ARM GAS  /var/folders/cw/6cmm0b_n7yj10n1wx8hfx52r0000gn/T//ccDi1eKm.s 			page 1


   1              		.cpu cortex-m0plus
   2              		.arch armv6s-m
   3              		.fpu softvfp
   4              		.eabi_attribute 20, 1
   5              		.eabi_attribute 21, 1
   6              		.eabi_attribute 23, 3
   7              		.eabi_attribute 24, 1
   8              		.eabi_attribute 25, 1
   9              		.eabi_attribute 26, 1
  10              		.eabi_attribute 30, 1
  11              		.eabi_attribute 34, 0
  12              		.eabi_attribute 18, 4
  13              		.file	"stm32g0xx_hal_exti.c"
  14              		.text
  15              	.Ltext0:
  16              		.cfi_sections	.debug_frame
  17              		.file 1 "Drivers/STM32G0xx_HAL_Driver/Src/stm32g0xx_hal_exti.c"
  18              		.section	.text.HAL_EXTI_SetConfigLine,"ax",%progbits
  19              		.align	1
  20              		.global	HAL_EXTI_SetConfigLine
  21              		.syntax unified
  22              		.code	16
  23              		.thumb_func
  25              	HAL_EXTI_SetConfigLine:
  26              	.LVL0:
  27              	.LFB158:
   1:Drivers/STM32G0xx_HAL_Driver/Src/stm32g0xx_hal_exti.c **** /**
   2:Drivers/STM32G0xx_HAL_Driver/Src/stm32g0xx_hal_exti.c ****   ******************************************************************************
   3:Drivers/STM32G0xx_HAL_Driver/Src/stm32g0xx_hal_exti.c ****   * @file    stm32g0xx_hal_exti.c
   4:Drivers/STM32G0xx_HAL_Driver/Src/stm32g0xx_hal_exti.c ****   * @author  MCD Application Team
   5:Drivers/STM32G0xx_HAL_Driver/Src/stm32g0xx_hal_exti.c ****   * @brief   EXTI HAL module driver.
   6:Drivers/STM32G0xx_HAL_Driver/Src/stm32g0xx_hal_exti.c ****   *          This file provides firmware functions to manage the following
   7:Drivers/STM32G0xx_HAL_Driver/Src/stm32g0xx_hal_exti.c ****   *          functionalities of the General Purpose Input/Output (EXTI) peripheral:
   8:Drivers/STM32G0xx_HAL_Driver/Src/stm32g0xx_hal_exti.c ****   *           + Initialization and de-initialization functions
   9:Drivers/STM32G0xx_HAL_Driver/Src/stm32g0xx_hal_exti.c ****   *           + IO operation functions
  10:Drivers/STM32G0xx_HAL_Driver/Src/stm32g0xx_hal_exti.c ****   *
  11:Drivers/STM32G0xx_HAL_Driver/Src/stm32g0xx_hal_exti.c ****   @verbatim
  12:Drivers/STM32G0xx_HAL_Driver/Src/stm32g0xx_hal_exti.c ****   ==============================================================================
  13:Drivers/STM32G0xx_HAL_Driver/Src/stm32g0xx_hal_exti.c ****                     ##### EXTI Peripheral features #####
  14:Drivers/STM32G0xx_HAL_Driver/Src/stm32g0xx_hal_exti.c ****   ==============================================================================
  15:Drivers/STM32G0xx_HAL_Driver/Src/stm32g0xx_hal_exti.c ****   [..]
  16:Drivers/STM32G0xx_HAL_Driver/Src/stm32g0xx_hal_exti.c ****     (+) Each Exti line can be configured within this driver.
  17:Drivers/STM32G0xx_HAL_Driver/Src/stm32g0xx_hal_exti.c **** 
  18:Drivers/STM32G0xx_HAL_Driver/Src/stm32g0xx_hal_exti.c ****     (+) Exti line can be configured in 3 different modes
  19:Drivers/STM32G0xx_HAL_Driver/Src/stm32g0xx_hal_exti.c ****         (++) Interrupt
  20:Drivers/STM32G0xx_HAL_Driver/Src/stm32g0xx_hal_exti.c ****         (++) Event
  21:Drivers/STM32G0xx_HAL_Driver/Src/stm32g0xx_hal_exti.c ****         (++) Both of them
  22:Drivers/STM32G0xx_HAL_Driver/Src/stm32g0xx_hal_exti.c **** 
  23:Drivers/STM32G0xx_HAL_Driver/Src/stm32g0xx_hal_exti.c ****     (+) Configurable Exti lines can be configured with 3 different triggers
  24:Drivers/STM32G0xx_HAL_Driver/Src/stm32g0xx_hal_exti.c ****         (++) Rising
  25:Drivers/STM32G0xx_HAL_Driver/Src/stm32g0xx_hal_exti.c ****         (++) Falling
  26:Drivers/STM32G0xx_HAL_Driver/Src/stm32g0xx_hal_exti.c ****         (++) Both of them
  27:Drivers/STM32G0xx_HAL_Driver/Src/stm32g0xx_hal_exti.c **** 
  28:Drivers/STM32G0xx_HAL_Driver/Src/stm32g0xx_hal_exti.c ****     (+) When set in interrupt mode, configurable Exti lines have two diffenrents
  29:Drivers/STM32G0xx_HAL_Driver/Src/stm32g0xx_hal_exti.c ****         interrupt pending registers which allow to distinguish which transition
  30:Drivers/STM32G0xx_HAL_Driver/Src/stm32g0xx_hal_exti.c ****         occurs:
  31:Drivers/STM32G0xx_HAL_Driver/Src/stm32g0xx_hal_exti.c ****         (++) Rising edge pending interrupt
ARM GAS  /var/folders/cw/6cmm0b_n7yj10n1wx8hfx52r0000gn/T//ccDi1eKm.s 			page 2


  32:Drivers/STM32G0xx_HAL_Driver/Src/stm32g0xx_hal_exti.c ****         (++) Falling
  33:Drivers/STM32G0xx_HAL_Driver/Src/stm32g0xx_hal_exti.c **** 
  34:Drivers/STM32G0xx_HAL_Driver/Src/stm32g0xx_hal_exti.c ****     (+) Exti lines 0 to 15 are linked to gpio pin number 0 to 15. Gpio port can
  35:Drivers/STM32G0xx_HAL_Driver/Src/stm32g0xx_hal_exti.c ****         be selected throught multiplexer.
  36:Drivers/STM32G0xx_HAL_Driver/Src/stm32g0xx_hal_exti.c **** 
  37:Drivers/STM32G0xx_HAL_Driver/Src/stm32g0xx_hal_exti.c ****                      ##### How to use this driver #####
  38:Drivers/STM32G0xx_HAL_Driver/Src/stm32g0xx_hal_exti.c ****   ==============================================================================
  39:Drivers/STM32G0xx_HAL_Driver/Src/stm32g0xx_hal_exti.c ****   [..]
  40:Drivers/STM32G0xx_HAL_Driver/Src/stm32g0xx_hal_exti.c **** 
  41:Drivers/STM32G0xx_HAL_Driver/Src/stm32g0xx_hal_exti.c ****     (#) Configure the EXTI line using HAL_EXTI_SetConfigLine().
  42:Drivers/STM32G0xx_HAL_Driver/Src/stm32g0xx_hal_exti.c ****         (++) Choose the interrupt line number by setting "Line" member from
  43:Drivers/STM32G0xx_HAL_Driver/Src/stm32g0xx_hal_exti.c ****              EXTI_ConfigTypeDef structure.
  44:Drivers/STM32G0xx_HAL_Driver/Src/stm32g0xx_hal_exti.c ****         (++) Configure the interrupt and/or event mode using "Mode" member from
  45:Drivers/STM32G0xx_HAL_Driver/Src/stm32g0xx_hal_exti.c ****              EXTI_ConfigTypeDef structure.
  46:Drivers/STM32G0xx_HAL_Driver/Src/stm32g0xx_hal_exti.c ****         (++) For configurable lines, configure rising and/or falling trigger
  47:Drivers/STM32G0xx_HAL_Driver/Src/stm32g0xx_hal_exti.c ****              "Trigger" member from EXTI_ConfigTypeDef structure.
  48:Drivers/STM32G0xx_HAL_Driver/Src/stm32g0xx_hal_exti.c ****         (++) For Exti lines linked to gpio, choose gpio port using "GPIOSel"
  49:Drivers/STM32G0xx_HAL_Driver/Src/stm32g0xx_hal_exti.c ****              member from GPIO_InitTypeDef structure.
  50:Drivers/STM32G0xx_HAL_Driver/Src/stm32g0xx_hal_exti.c **** 
  51:Drivers/STM32G0xx_HAL_Driver/Src/stm32g0xx_hal_exti.c ****     (#) Get current Exti configuration of a dedicated line using
  52:Drivers/STM32G0xx_HAL_Driver/Src/stm32g0xx_hal_exti.c ****         HAL_EXTI_GetConfigLine().
  53:Drivers/STM32G0xx_HAL_Driver/Src/stm32g0xx_hal_exti.c ****         (++) Provide exiting handle as parameter.
  54:Drivers/STM32G0xx_HAL_Driver/Src/stm32g0xx_hal_exti.c ****         (++) Provide pointer on EXTI_ConfigTypeDef structure as second parameter.
  55:Drivers/STM32G0xx_HAL_Driver/Src/stm32g0xx_hal_exti.c **** 
  56:Drivers/STM32G0xx_HAL_Driver/Src/stm32g0xx_hal_exti.c ****     (#) Clear Exti configuration of a dedicated line using HAL_EXTI_GetConfigLine().
  57:Drivers/STM32G0xx_HAL_Driver/Src/stm32g0xx_hal_exti.c ****         (++) Provide exiting handle as parameter.
  58:Drivers/STM32G0xx_HAL_Driver/Src/stm32g0xx_hal_exti.c **** 
  59:Drivers/STM32G0xx_HAL_Driver/Src/stm32g0xx_hal_exti.c ****     (#) Register callback to treat Exti interrupts using HAL_EXTI_RegisterCallback().
  60:Drivers/STM32G0xx_HAL_Driver/Src/stm32g0xx_hal_exti.c ****         (++) Provide exiting handle as first parameter.
  61:Drivers/STM32G0xx_HAL_Driver/Src/stm32g0xx_hal_exti.c ****         (++) Provide which callback will be registered using one value from
  62:Drivers/STM32G0xx_HAL_Driver/Src/stm32g0xx_hal_exti.c ****              EXTI_CallbackIDTypeDef.
  63:Drivers/STM32G0xx_HAL_Driver/Src/stm32g0xx_hal_exti.c ****         (++) Provide callback function pointer.
  64:Drivers/STM32G0xx_HAL_Driver/Src/stm32g0xx_hal_exti.c **** 
  65:Drivers/STM32G0xx_HAL_Driver/Src/stm32g0xx_hal_exti.c ****     (#) Get interrupt pending bit using HAL_EXTI_GetPending().
  66:Drivers/STM32G0xx_HAL_Driver/Src/stm32g0xx_hal_exti.c **** 
  67:Drivers/STM32G0xx_HAL_Driver/Src/stm32g0xx_hal_exti.c ****     (#) Clear interrupt pending bit using HAL_EXTI_GetPending().
  68:Drivers/STM32G0xx_HAL_Driver/Src/stm32g0xx_hal_exti.c **** 
  69:Drivers/STM32G0xx_HAL_Driver/Src/stm32g0xx_hal_exti.c ****     (#) Generate software interrupt using HAL_EXTI_GenerateSWI().
  70:Drivers/STM32G0xx_HAL_Driver/Src/stm32g0xx_hal_exti.c **** 
  71:Drivers/STM32G0xx_HAL_Driver/Src/stm32g0xx_hal_exti.c ****   @endverbatim
  72:Drivers/STM32G0xx_HAL_Driver/Src/stm32g0xx_hal_exti.c ****   ******************************************************************************
  73:Drivers/STM32G0xx_HAL_Driver/Src/stm32g0xx_hal_exti.c ****   * @attention
  74:Drivers/STM32G0xx_HAL_Driver/Src/stm32g0xx_hal_exti.c ****   *
  75:Drivers/STM32G0xx_HAL_Driver/Src/stm32g0xx_hal_exti.c ****   * <h2><center>&copy; Copyright (c) 2018 STMicroelectronics.
  76:Drivers/STM32G0xx_HAL_Driver/Src/stm32g0xx_hal_exti.c ****   * All rights reserved.</center></h2>
  77:Drivers/STM32G0xx_HAL_Driver/Src/stm32g0xx_hal_exti.c ****   *
  78:Drivers/STM32G0xx_HAL_Driver/Src/stm32g0xx_hal_exti.c ****   * This software component is licensed by ST under BSD 3-Clause license,
  79:Drivers/STM32G0xx_HAL_Driver/Src/stm32g0xx_hal_exti.c ****   * the "License"; You may not use this file except in compliance with the
  80:Drivers/STM32G0xx_HAL_Driver/Src/stm32g0xx_hal_exti.c ****   * License. You may obtain a copy of the License at:
  81:Drivers/STM32G0xx_HAL_Driver/Src/stm32g0xx_hal_exti.c ****   *                        opensource.org/licenses/BSD-3-Clause
  82:Drivers/STM32G0xx_HAL_Driver/Src/stm32g0xx_hal_exti.c ****   *
  83:Drivers/STM32G0xx_HAL_Driver/Src/stm32g0xx_hal_exti.c ****   ******************************************************************************
  84:Drivers/STM32G0xx_HAL_Driver/Src/stm32g0xx_hal_exti.c ****   */
  85:Drivers/STM32G0xx_HAL_Driver/Src/stm32g0xx_hal_exti.c **** 
  86:Drivers/STM32G0xx_HAL_Driver/Src/stm32g0xx_hal_exti.c **** /* Includes ------------------------------------------------------------------*/
  87:Drivers/STM32G0xx_HAL_Driver/Src/stm32g0xx_hal_exti.c **** #include "stm32g0xx_hal.h"
  88:Drivers/STM32G0xx_HAL_Driver/Src/stm32g0xx_hal_exti.c **** 
ARM GAS  /var/folders/cw/6cmm0b_n7yj10n1wx8hfx52r0000gn/T//ccDi1eKm.s 			page 3


  89:Drivers/STM32G0xx_HAL_Driver/Src/stm32g0xx_hal_exti.c **** /** @addtogroup STM32G0xx_HAL_Driver
  90:Drivers/STM32G0xx_HAL_Driver/Src/stm32g0xx_hal_exti.c ****   * @{
  91:Drivers/STM32G0xx_HAL_Driver/Src/stm32g0xx_hal_exti.c ****   */
  92:Drivers/STM32G0xx_HAL_Driver/Src/stm32g0xx_hal_exti.c **** 
  93:Drivers/STM32G0xx_HAL_Driver/Src/stm32g0xx_hal_exti.c **** /** @addtogroup EXTI
  94:Drivers/STM32G0xx_HAL_Driver/Src/stm32g0xx_hal_exti.c ****   * @{
  95:Drivers/STM32G0xx_HAL_Driver/Src/stm32g0xx_hal_exti.c ****   */
  96:Drivers/STM32G0xx_HAL_Driver/Src/stm32g0xx_hal_exti.c **** /** MISRA C:2012 deviation rule has been granted for following rule:
  97:Drivers/STM32G0xx_HAL_Driver/Src/stm32g0xx_hal_exti.c ****   * Rule-18.1_b - Medium: Array `EXTICR' 1st subscript interval [0,7] may be out
  98:Drivers/STM32G0xx_HAL_Driver/Src/stm32g0xx_hal_exti.c ****   * of bounds [0,3] in following API :
  99:Drivers/STM32G0xx_HAL_Driver/Src/stm32g0xx_hal_exti.c ****   * HAL_EXTI_SetConfigLine
 100:Drivers/STM32G0xx_HAL_Driver/Src/stm32g0xx_hal_exti.c ****   * HAL_EXTI_GetConfigLine
 101:Drivers/STM32G0xx_HAL_Driver/Src/stm32g0xx_hal_exti.c ****   * HAL_EXTI_ClearConfigLine
 102:Drivers/STM32G0xx_HAL_Driver/Src/stm32g0xx_hal_exti.c ****   */
 103:Drivers/STM32G0xx_HAL_Driver/Src/stm32g0xx_hal_exti.c **** 
 104:Drivers/STM32G0xx_HAL_Driver/Src/stm32g0xx_hal_exti.c **** #ifdef HAL_EXTI_MODULE_ENABLED
 105:Drivers/STM32G0xx_HAL_Driver/Src/stm32g0xx_hal_exti.c **** 
 106:Drivers/STM32G0xx_HAL_Driver/Src/stm32g0xx_hal_exti.c **** /* Private typedef -----------------------------------------------------------*/
 107:Drivers/STM32G0xx_HAL_Driver/Src/stm32g0xx_hal_exti.c **** /* Private defines ------------------------------------------------------------*/
 108:Drivers/STM32G0xx_HAL_Driver/Src/stm32g0xx_hal_exti.c **** /** @defgroup EXTI_Private_Constants EXTI Private Constants
 109:Drivers/STM32G0xx_HAL_Driver/Src/stm32g0xx_hal_exti.c ****   * @{
 110:Drivers/STM32G0xx_HAL_Driver/Src/stm32g0xx_hal_exti.c ****   */
 111:Drivers/STM32G0xx_HAL_Driver/Src/stm32g0xx_hal_exti.c **** #define EXTI_MODE_OFFSET                    0x04u   /* 0x10: offset between CPU IMR/EMR registers *
 112:Drivers/STM32G0xx_HAL_Driver/Src/stm32g0xx_hal_exti.c **** #define EXTI_CONFIG_OFFSET                  0x08u   /* 0x20: offset between CPU Rising/Falling conf
 113:Drivers/STM32G0xx_HAL_Driver/Src/stm32g0xx_hal_exti.c **** /**
 114:Drivers/STM32G0xx_HAL_Driver/Src/stm32g0xx_hal_exti.c ****   * @}
 115:Drivers/STM32G0xx_HAL_Driver/Src/stm32g0xx_hal_exti.c ****   */
 116:Drivers/STM32G0xx_HAL_Driver/Src/stm32g0xx_hal_exti.c **** 
 117:Drivers/STM32G0xx_HAL_Driver/Src/stm32g0xx_hal_exti.c **** /* Private macros ------------------------------------------------------------*/
 118:Drivers/STM32G0xx_HAL_Driver/Src/stm32g0xx_hal_exti.c **** /* Private variables ---------------------------------------------------------*/
 119:Drivers/STM32G0xx_HAL_Driver/Src/stm32g0xx_hal_exti.c **** /* Private function prototypes -----------------------------------------------*/
 120:Drivers/STM32G0xx_HAL_Driver/Src/stm32g0xx_hal_exti.c **** /* Exported functions --------------------------------------------------------*/
 121:Drivers/STM32G0xx_HAL_Driver/Src/stm32g0xx_hal_exti.c **** 
 122:Drivers/STM32G0xx_HAL_Driver/Src/stm32g0xx_hal_exti.c **** /** @addtogroup EXTI_Exported_Functions
 123:Drivers/STM32G0xx_HAL_Driver/Src/stm32g0xx_hal_exti.c ****   * @{
 124:Drivers/STM32G0xx_HAL_Driver/Src/stm32g0xx_hal_exti.c ****   */
 125:Drivers/STM32G0xx_HAL_Driver/Src/stm32g0xx_hal_exti.c **** 
 126:Drivers/STM32G0xx_HAL_Driver/Src/stm32g0xx_hal_exti.c **** /** @addtogroup EXTI_Exported_Functions_Group1
 127:Drivers/STM32G0xx_HAL_Driver/Src/stm32g0xx_hal_exti.c ****  *  @brief    Configuration functions
 128:Drivers/STM32G0xx_HAL_Driver/Src/stm32g0xx_hal_exti.c ****  *
 129:Drivers/STM32G0xx_HAL_Driver/Src/stm32g0xx_hal_exti.c **** @verbatim
 130:Drivers/STM32G0xx_HAL_Driver/Src/stm32g0xx_hal_exti.c ****  ===============================================================================
 131:Drivers/STM32G0xx_HAL_Driver/Src/stm32g0xx_hal_exti.c ****               ##### Configuration functions #####
 132:Drivers/STM32G0xx_HAL_Driver/Src/stm32g0xx_hal_exti.c ****  ===============================================================================
 133:Drivers/STM32G0xx_HAL_Driver/Src/stm32g0xx_hal_exti.c **** 
 134:Drivers/STM32G0xx_HAL_Driver/Src/stm32g0xx_hal_exti.c **** @endverbatim
 135:Drivers/STM32G0xx_HAL_Driver/Src/stm32g0xx_hal_exti.c ****   * @{
 136:Drivers/STM32G0xx_HAL_Driver/Src/stm32g0xx_hal_exti.c ****   */
 137:Drivers/STM32G0xx_HAL_Driver/Src/stm32g0xx_hal_exti.c **** 
 138:Drivers/STM32G0xx_HAL_Driver/Src/stm32g0xx_hal_exti.c **** /**
 139:Drivers/STM32G0xx_HAL_Driver/Src/stm32g0xx_hal_exti.c ****   * @brief  Set configuration of a dedicated Exti line.
 140:Drivers/STM32G0xx_HAL_Driver/Src/stm32g0xx_hal_exti.c ****   * @param  hexti Exti handle.
 141:Drivers/STM32G0xx_HAL_Driver/Src/stm32g0xx_hal_exti.c ****   * @param  pExtiConfig Pointer on EXTI configuration to be set.
 142:Drivers/STM32G0xx_HAL_Driver/Src/stm32g0xx_hal_exti.c ****   * @retval HAL Status.
 143:Drivers/STM32G0xx_HAL_Driver/Src/stm32g0xx_hal_exti.c ****   */
 144:Drivers/STM32G0xx_HAL_Driver/Src/stm32g0xx_hal_exti.c **** HAL_StatusTypeDef HAL_EXTI_SetConfigLine(EXTI_HandleTypeDef *hexti, EXTI_ConfigTypeDef *pExtiConfig
 145:Drivers/STM32G0xx_HAL_Driver/Src/stm32g0xx_hal_exti.c **** {
ARM GAS  /var/folders/cw/6cmm0b_n7yj10n1wx8hfx52r0000gn/T//ccDi1eKm.s 			page 4


  28              		.loc 1 145 1 view -0
  29              		.cfi_startproc
  30              		@ args = 0, pretend = 0, frame = 0
  31              		@ frame_needed = 0, uses_anonymous_args = 0
  32              		.loc 1 145 1 is_stmt 0 view .LVU1
  33 0000 F0B5     		push	{r4, r5, r6, r7, lr}
  34              	.LCFI0:
  35              		.cfi_def_cfa_offset 20
  36              		.cfi_offset 4, -20
  37              		.cfi_offset 5, -16
  38              		.cfi_offset 6, -12
  39              		.cfi_offset 7, -8
  40              		.cfi_offset 14, -4
  41 0002 C646     		mov	lr, r8
  42 0004 00B5     		push	{lr}
  43              	.LCFI1:
  44              		.cfi_def_cfa_offset 24
  45              		.cfi_offset 8, -24
 146:Drivers/STM32G0xx_HAL_Driver/Src/stm32g0xx_hal_exti.c ****   __IO uint32_t *regaddr;
  46              		.loc 1 146 3 is_stmt 1 view .LVU2
 147:Drivers/STM32G0xx_HAL_Driver/Src/stm32g0xx_hal_exti.c ****   uint32_t regval;
  47              		.loc 1 147 3 view .LVU3
 148:Drivers/STM32G0xx_HAL_Driver/Src/stm32g0xx_hal_exti.c ****   uint32_t linepos;
  48              		.loc 1 148 3 view .LVU4
 149:Drivers/STM32G0xx_HAL_Driver/Src/stm32g0xx_hal_exti.c ****   uint32_t maskline;
  49              		.loc 1 149 3 view .LVU5
 150:Drivers/STM32G0xx_HAL_Driver/Src/stm32g0xx_hal_exti.c ****   uint32_t offset;
  50              		.loc 1 150 3 view .LVU6
 151:Drivers/STM32G0xx_HAL_Driver/Src/stm32g0xx_hal_exti.c **** 
 152:Drivers/STM32G0xx_HAL_Driver/Src/stm32g0xx_hal_exti.c ****   /* Check null pointer */
 153:Drivers/STM32G0xx_HAL_Driver/Src/stm32g0xx_hal_exti.c ****   if ((hexti == NULL) || (pExtiConfig == NULL))
  51              		.loc 1 153 3 view .LVU7
  52              		.loc 1 153 6 is_stmt 0 view .LVU8
  53 0006 0028     		cmp	r0, #0
  54 0008 55D0     		beq	.L12
  55              		.loc 1 153 23 discriminator 1 view .LVU9
  56 000a 0029     		cmp	r1, #0
  57 000c 55D0     		beq	.L13
 154:Drivers/STM32G0xx_HAL_Driver/Src/stm32g0xx_hal_exti.c ****   {
 155:Drivers/STM32G0xx_HAL_Driver/Src/stm32g0xx_hal_exti.c ****     return HAL_ERROR;
 156:Drivers/STM32G0xx_HAL_Driver/Src/stm32g0xx_hal_exti.c ****   }
 157:Drivers/STM32G0xx_HAL_Driver/Src/stm32g0xx_hal_exti.c **** 
 158:Drivers/STM32G0xx_HAL_Driver/Src/stm32g0xx_hal_exti.c ****   /* Check parameters */
 159:Drivers/STM32G0xx_HAL_Driver/Src/stm32g0xx_hal_exti.c ****   assert_param(IS_EXTI_LINE(pExtiConfig->Line));
  58              		.loc 1 159 3 is_stmt 1 view .LVU10
 160:Drivers/STM32G0xx_HAL_Driver/Src/stm32g0xx_hal_exti.c ****   assert_param(IS_EXTI_MODE(pExtiConfig->Mode));
  59              		.loc 1 160 3 view .LVU11
 161:Drivers/STM32G0xx_HAL_Driver/Src/stm32g0xx_hal_exti.c **** 
 162:Drivers/STM32G0xx_HAL_Driver/Src/stm32g0xx_hal_exti.c ****   /* Assign line number to handle */
 163:Drivers/STM32G0xx_HAL_Driver/Src/stm32g0xx_hal_exti.c ****   hexti->Line = pExtiConfig->Line;
  60              		.loc 1 163 3 view .LVU12
  61              		.loc 1 163 28 is_stmt 0 view .LVU13
  62 000e 0D68     		ldr	r5, [r1]
  63              		.loc 1 163 15 view .LVU14
  64 0010 0560     		str	r5, [r0]
 164:Drivers/STM32G0xx_HAL_Driver/Src/stm32g0xx_hal_exti.c **** 
 165:Drivers/STM32G0xx_HAL_Driver/Src/stm32g0xx_hal_exti.c ****   /* compute line register offset and line mask */
ARM GAS  /var/folders/cw/6cmm0b_n7yj10n1wx8hfx52r0000gn/T//ccDi1eKm.s 			page 5


 166:Drivers/STM32G0xx_HAL_Driver/Src/stm32g0xx_hal_exti.c ****   offset = ((pExtiConfig->Line & EXTI_REG_MASK) >> EXTI_REG_SHIFT);
  65              		.loc 1 166 3 is_stmt 1 view .LVU15
  66              		.loc 1 166 49 is_stmt 0 view .LVU16
  67 0012 2B0C     		lsrs	r3, r5, #16
  68              		.loc 1 166 10 view .LVU17
  69 0014 0122     		movs	r2, #1
  70 0016 1340     		ands	r3, r2
  71              	.LVL1:
 167:Drivers/STM32G0xx_HAL_Driver/Src/stm32g0xx_hal_exti.c ****   linepos = (pExtiConfig->Line & EXTI_PIN_MASK);
  72              		.loc 1 167 3 is_stmt 1 view .LVU18
  73              		.loc 1 167 11 is_stmt 0 view .LVU19
  74 0018 1F20     		movs	r0, #31
  75              	.LVL2:
  76              		.loc 1 167 11 view .LVU20
  77 001a 2840     		ands	r0, r5
  78              	.LVL3:
 168:Drivers/STM32G0xx_HAL_Driver/Src/stm32g0xx_hal_exti.c ****   maskline = (1uL << linepos);
  79              		.loc 1 168 3 is_stmt 1 view .LVU21
  80              		.loc 1 168 12 is_stmt 0 view .LVU22
  81 001c 8240     		lsls	r2, r2, r0
  82              	.LVL4:
 169:Drivers/STM32G0xx_HAL_Driver/Src/stm32g0xx_hal_exti.c **** 
 170:Drivers/STM32G0xx_HAL_Driver/Src/stm32g0xx_hal_exti.c ****   /* Configure triggers for configurable lines */
 171:Drivers/STM32G0xx_HAL_Driver/Src/stm32g0xx_hal_exti.c ****   if ((pExtiConfig->Line & EXTI_CONFIG) != 0x00u)
  83              		.loc 1 171 3 is_stmt 1 view .LVU23
  84              		.loc 1 171 6 is_stmt 0 view .LVU24
  85 001e AC01     		lsls	r4, r5, #6
  86 0020 19D5     		bpl	.L3
 172:Drivers/STM32G0xx_HAL_Driver/Src/stm32g0xx_hal_exti.c ****   {
 173:Drivers/STM32G0xx_HAL_Driver/Src/stm32g0xx_hal_exti.c ****     assert_param(IS_EXTI_TRIGGER(pExtiConfig->Trigger));
  87              		.loc 1 173 5 is_stmt 1 view .LVU25
 174:Drivers/STM32G0xx_HAL_Driver/Src/stm32g0xx_hal_exti.c **** 
 175:Drivers/STM32G0xx_HAL_Driver/Src/stm32g0xx_hal_exti.c ****     /* Configure rising trigger */
 176:Drivers/STM32G0xx_HAL_Driver/Src/stm32g0xx_hal_exti.c ****     regaddr = (&EXTI->RTSR1 + (EXTI_CONFIG_OFFSET * offset));
  88              		.loc 1 176 5 view .LVU26
  89              		.loc 1 176 29 is_stmt 0 view .LVU27
  90 0022 5C01     		lsls	r4, r3, #5
  91              		.loc 1 176 13 view .LVU28
  92 0024 264E     		ldr	r6, .L16
  93 0026 A719     		adds	r7, r4, r6
  94              	.LVL5:
 177:Drivers/STM32G0xx_HAL_Driver/Src/stm32g0xx_hal_exti.c ****     regval = *regaddr;
  95              		.loc 1 177 5 is_stmt 1 view .LVU29
  96              		.loc 1 177 12 is_stmt 0 view .LVU30
  97 0028 3E68     		ldr	r6, [r7]
  98 002a B046     		mov	r8, r6
  99              	.LVL6:
 178:Drivers/STM32G0xx_HAL_Driver/Src/stm32g0xx_hal_exti.c **** 
 179:Drivers/STM32G0xx_HAL_Driver/Src/stm32g0xx_hal_exti.c ****     /* Mask or set line */
 180:Drivers/STM32G0xx_HAL_Driver/Src/stm32g0xx_hal_exti.c ****     if ((pExtiConfig->Trigger & EXTI_TRIGGER_RISING) != 0x00u)
 100              		.loc 1 180 5 is_stmt 1 view .LVU31
 101              		.loc 1 180 21 is_stmt 0 view .LVU32
 102 002c 8E68     		ldr	r6, [r1, #8]
 103              	.LVL7:
 104              		.loc 1 180 8 view .LVU33
 105 002e F607     		lsls	r6, r6, #31
 106 0030 27D5     		bpl	.L4
ARM GAS  /var/folders/cw/6cmm0b_n7yj10n1wx8hfx52r0000gn/T//ccDi1eKm.s 			page 6


 181:Drivers/STM32G0xx_HAL_Driver/Src/stm32g0xx_hal_exti.c ****     {
 182:Drivers/STM32G0xx_HAL_Driver/Src/stm32g0xx_hal_exti.c ****       regval |= maskline;
 107              		.loc 1 182 7 is_stmt 1 view .LVU34
 108              		.loc 1 182 14 is_stmt 0 view .LVU35
 109 0032 4646     		mov	r6, r8
 110 0034 1643     		orrs	r6, r2
 111              	.LVL8:
 112              	.L5:
 183:Drivers/STM32G0xx_HAL_Driver/Src/stm32g0xx_hal_exti.c ****     }
 184:Drivers/STM32G0xx_HAL_Driver/Src/stm32g0xx_hal_exti.c ****     else
 185:Drivers/STM32G0xx_HAL_Driver/Src/stm32g0xx_hal_exti.c ****     {
 186:Drivers/STM32G0xx_HAL_Driver/Src/stm32g0xx_hal_exti.c ****       regval &= ~maskline;
 187:Drivers/STM32G0xx_HAL_Driver/Src/stm32g0xx_hal_exti.c ****     }
 188:Drivers/STM32G0xx_HAL_Driver/Src/stm32g0xx_hal_exti.c **** 
 189:Drivers/STM32G0xx_HAL_Driver/Src/stm32g0xx_hal_exti.c ****     /* Store rising trigger mode */
 190:Drivers/STM32G0xx_HAL_Driver/Src/stm32g0xx_hal_exti.c ****     *regaddr = regval;
 113              		.loc 1 190 5 is_stmt 1 view .LVU36
 114              		.loc 1 190 14 is_stmt 0 view .LVU37
 115 0036 3E60     		str	r6, [r7]
 191:Drivers/STM32G0xx_HAL_Driver/Src/stm32g0xx_hal_exti.c **** 
 192:Drivers/STM32G0xx_HAL_Driver/Src/stm32g0xx_hal_exti.c ****     /* Configure falling trigger */
 193:Drivers/STM32G0xx_HAL_Driver/Src/stm32g0xx_hal_exti.c ****     regaddr = (&EXTI->FTSR1 + (EXTI_CONFIG_OFFSET * offset));
 116              		.loc 1 193 5 is_stmt 1 view .LVU38
 117              		.loc 1 193 13 is_stmt 0 view .LVU39
 118 0038 224E     		ldr	r6, .L16+4
 119              	.LVL9:
 120              		.loc 1 193 13 view .LVU40
 121 003a B446     		mov	ip, r6
 122 003c 6444     		add	r4, r4, ip
 123              	.LVL10:
 194:Drivers/STM32G0xx_HAL_Driver/Src/stm32g0xx_hal_exti.c ****     regval = *regaddr;
 124              		.loc 1 194 5 is_stmt 1 view .LVU41
 125              		.loc 1 194 12 is_stmt 0 view .LVU42
 126 003e 2668     		ldr	r6, [r4]
 127              	.LVL11:
 195:Drivers/STM32G0xx_HAL_Driver/Src/stm32g0xx_hal_exti.c **** 
 196:Drivers/STM32G0xx_HAL_Driver/Src/stm32g0xx_hal_exti.c ****     /* Mask or set line */
 197:Drivers/STM32G0xx_HAL_Driver/Src/stm32g0xx_hal_exti.c ****     if ((pExtiConfig->Trigger & EXTI_TRIGGER_FALLING) != 0x00u)
 128              		.loc 1 197 5 is_stmt 1 view .LVU43
 129              		.loc 1 197 21 is_stmt 0 view .LVU44
 130 0040 8F68     		ldr	r7, [r1, #8]
 131              		.loc 1 197 8 view .LVU45
 132 0042 BF07     		lsls	r7, r7, #30
 133 0044 20D5     		bpl	.L6
 198:Drivers/STM32G0xx_HAL_Driver/Src/stm32g0xx_hal_exti.c ****     {
 199:Drivers/STM32G0xx_HAL_Driver/Src/stm32g0xx_hal_exti.c ****       regval |= maskline;
 134              		.loc 1 199 7 is_stmt 1 view .LVU46
 135              		.loc 1 199 14 is_stmt 0 view .LVU47
 136 0046 1643     		orrs	r6, r2
 137              	.LVL12:
 138              	.L7:
 200:Drivers/STM32G0xx_HAL_Driver/Src/stm32g0xx_hal_exti.c ****     }
 201:Drivers/STM32G0xx_HAL_Driver/Src/stm32g0xx_hal_exti.c ****     else
 202:Drivers/STM32G0xx_HAL_Driver/Src/stm32g0xx_hal_exti.c ****     {
 203:Drivers/STM32G0xx_HAL_Driver/Src/stm32g0xx_hal_exti.c ****       regval &= ~maskline;
 204:Drivers/STM32G0xx_HAL_Driver/Src/stm32g0xx_hal_exti.c ****     }
 205:Drivers/STM32G0xx_HAL_Driver/Src/stm32g0xx_hal_exti.c **** 
ARM GAS  /var/folders/cw/6cmm0b_n7yj10n1wx8hfx52r0000gn/T//ccDi1eKm.s 			page 7


 206:Drivers/STM32G0xx_HAL_Driver/Src/stm32g0xx_hal_exti.c ****     /* Store falling trigger mode */
 207:Drivers/STM32G0xx_HAL_Driver/Src/stm32g0xx_hal_exti.c ****     *regaddr = regval;
 139              		.loc 1 207 5 is_stmt 1 view .LVU48
 140              		.loc 1 207 14 is_stmt 0 view .LVU49
 141 0048 2660     		str	r6, [r4]
 208:Drivers/STM32G0xx_HAL_Driver/Src/stm32g0xx_hal_exti.c **** 
 209:Drivers/STM32G0xx_HAL_Driver/Src/stm32g0xx_hal_exti.c ****     /* Configure gpio port selection in case of gpio exti line */
 210:Drivers/STM32G0xx_HAL_Driver/Src/stm32g0xx_hal_exti.c ****     if ((pExtiConfig->Line & EXTI_GPIO) == EXTI_GPIO)
 142              		.loc 1 210 5 is_stmt 1 view .LVU50
 143              		.loc 1 210 21 is_stmt 0 view .LVU51
 144 004a 0C68     		ldr	r4, [r1]
 145              	.LVL13:
 146              		.loc 1 210 28 view .LVU52
 147 004c C026     		movs	r6, #192
 148              	.LVL14:
 149              		.loc 1 210 28 view .LVU53
 150 004e F604     		lsls	r6, r6, #19
 151 0050 3440     		ands	r4, r6
 152              		.loc 1 210 8 view .LVU54
 153 0052 B442     		cmp	r4, r6
 154 0054 1AD0     		beq	.L15
 155              	.LVL15:
 156              	.L3:
 211:Drivers/STM32G0xx_HAL_Driver/Src/stm32g0xx_hal_exti.c ****     {
 212:Drivers/STM32G0xx_HAL_Driver/Src/stm32g0xx_hal_exti.c ****       assert_param(IS_EXTI_GPIO_PORT(pExtiConfig->GPIOSel));
 213:Drivers/STM32G0xx_HAL_Driver/Src/stm32g0xx_hal_exti.c ****       assert_param(IS_EXTI_GPIO_PIN(linepos));
 214:Drivers/STM32G0xx_HAL_Driver/Src/stm32g0xx_hal_exti.c **** 
 215:Drivers/STM32G0xx_HAL_Driver/Src/stm32g0xx_hal_exti.c ****       regval = EXTI->EXTICR[linepos >> 2u];
 216:Drivers/STM32G0xx_HAL_Driver/Src/stm32g0xx_hal_exti.c ****       regval &= ~(EXTI_EXTICR1_EXTI0 << (EXTI_EXTICR1_EXTI1_Pos * (linepos & 0x03u)));
 217:Drivers/STM32G0xx_HAL_Driver/Src/stm32g0xx_hal_exti.c ****       regval |= (pExtiConfig->GPIOSel << (EXTI_EXTICR1_EXTI1_Pos * (linepos & 0x03u)));
 218:Drivers/STM32G0xx_HAL_Driver/Src/stm32g0xx_hal_exti.c ****       EXTI->EXTICR[linepos >> 2u] = regval;
 219:Drivers/STM32G0xx_HAL_Driver/Src/stm32g0xx_hal_exti.c ****     }
 220:Drivers/STM32G0xx_HAL_Driver/Src/stm32g0xx_hal_exti.c ****   }
 221:Drivers/STM32G0xx_HAL_Driver/Src/stm32g0xx_hal_exti.c **** 
 222:Drivers/STM32G0xx_HAL_Driver/Src/stm32g0xx_hal_exti.c ****   /* Configure interrupt mode : read current mode */
 223:Drivers/STM32G0xx_HAL_Driver/Src/stm32g0xx_hal_exti.c ****   regaddr = (&EXTI->IMR1 + (EXTI_MODE_OFFSET * offset));
 157              		.loc 1 223 3 is_stmt 1 view .LVU55
 158              		.loc 1 223 26 is_stmt 0 view .LVU56
 159 0056 1B01     		lsls	r3, r3, #4
 160              	.LVL16:
 161              		.loc 1 223 11 view .LVU57
 162 0058 1B48     		ldr	r0, .L16+8
 163 005a 1C18     		adds	r4, r3, r0
 164              	.LVL17:
 224:Drivers/STM32G0xx_HAL_Driver/Src/stm32g0xx_hal_exti.c ****   regval = *regaddr;
 165              		.loc 1 224 3 is_stmt 1 view .LVU58
 166              		.loc 1 224 10 is_stmt 0 view .LVU59
 167 005c 2068     		ldr	r0, [r4]
 168              	.LVL18:
 225:Drivers/STM32G0xx_HAL_Driver/Src/stm32g0xx_hal_exti.c **** 
 226:Drivers/STM32G0xx_HAL_Driver/Src/stm32g0xx_hal_exti.c ****   /* Mask or set line */
 227:Drivers/STM32G0xx_HAL_Driver/Src/stm32g0xx_hal_exti.c ****   if ((pExtiConfig->Mode & EXTI_MODE_INTERRUPT) != 0x00u)
 169              		.loc 1 227 3 is_stmt 1 view .LVU60
 170              		.loc 1 227 19 is_stmt 0 view .LVU61
 171 005e 4D68     		ldr	r5, [r1, #4]
 172              		.loc 1 227 6 view .LVU62
 173 0060 ED07     		lsls	r5, r5, #31
ARM GAS  /var/folders/cw/6cmm0b_n7yj10n1wx8hfx52r0000gn/T//ccDi1eKm.s 			page 8


 174 0062 24D5     		bpl	.L8
 228:Drivers/STM32G0xx_HAL_Driver/Src/stm32g0xx_hal_exti.c ****   {
 229:Drivers/STM32G0xx_HAL_Driver/Src/stm32g0xx_hal_exti.c ****     regval |= maskline;
 175              		.loc 1 229 5 is_stmt 1 view .LVU63
 176              		.loc 1 229 12 is_stmt 0 view .LVU64
 177 0064 1043     		orrs	r0, r2
 178              	.LVL19:
 179              	.L9:
 230:Drivers/STM32G0xx_HAL_Driver/Src/stm32g0xx_hal_exti.c ****   }
 231:Drivers/STM32G0xx_HAL_Driver/Src/stm32g0xx_hal_exti.c ****   else
 232:Drivers/STM32G0xx_HAL_Driver/Src/stm32g0xx_hal_exti.c ****   {
 233:Drivers/STM32G0xx_HAL_Driver/Src/stm32g0xx_hal_exti.c ****     regval &= ~maskline;
 234:Drivers/STM32G0xx_HAL_Driver/Src/stm32g0xx_hal_exti.c ****   }
 235:Drivers/STM32G0xx_HAL_Driver/Src/stm32g0xx_hal_exti.c **** 
 236:Drivers/STM32G0xx_HAL_Driver/Src/stm32g0xx_hal_exti.c ****   /* Store interrupt mode */
 237:Drivers/STM32G0xx_HAL_Driver/Src/stm32g0xx_hal_exti.c ****   *regaddr = regval;
 180              		.loc 1 237 3 is_stmt 1 view .LVU65
 181              		.loc 1 237 12 is_stmt 0 view .LVU66
 182 0066 2060     		str	r0, [r4]
 238:Drivers/STM32G0xx_HAL_Driver/Src/stm32g0xx_hal_exti.c **** 
 239:Drivers/STM32G0xx_HAL_Driver/Src/stm32g0xx_hal_exti.c ****   /* Configure event mode : read current mode */
 240:Drivers/STM32G0xx_HAL_Driver/Src/stm32g0xx_hal_exti.c ****   regaddr = (&EXTI->EMR1 + (EXTI_MODE_OFFSET * offset));
 183              		.loc 1 240 3 is_stmt 1 view .LVU67
 184              		.loc 1 240 11 is_stmt 0 view .LVU68
 185 0068 1848     		ldr	r0, .L16+12
 186              	.LVL20:
 187              		.loc 1 240 11 view .LVU69
 188 006a 8446     		mov	ip, r0
 189 006c 6344     		add	r3, r3, ip
 190              	.LVL21:
 241:Drivers/STM32G0xx_HAL_Driver/Src/stm32g0xx_hal_exti.c ****   regval = *regaddr;
 191              		.loc 1 241 3 is_stmt 1 view .LVU70
 192              		.loc 1 241 10 is_stmt 0 view .LVU71
 193 006e 1868     		ldr	r0, [r3]
 194              	.LVL22:
 242:Drivers/STM32G0xx_HAL_Driver/Src/stm32g0xx_hal_exti.c **** 
 243:Drivers/STM32G0xx_HAL_Driver/Src/stm32g0xx_hal_exti.c ****   /* Mask or set line */
 244:Drivers/STM32G0xx_HAL_Driver/Src/stm32g0xx_hal_exti.c ****   if ((pExtiConfig->Mode & EXTI_MODE_EVENT) != 0x00u)
 195              		.loc 1 244 3 is_stmt 1 view .LVU72
 196              		.loc 1 244 19 is_stmt 0 view .LVU73
 197 0070 4968     		ldr	r1, [r1, #4]
 198              	.LVL23:
 199              		.loc 1 244 6 view .LVU74
 200 0072 8907     		lsls	r1, r1, #30
 201 0074 1DD5     		bpl	.L10
 245:Drivers/STM32G0xx_HAL_Driver/Src/stm32g0xx_hal_exti.c ****   {
 246:Drivers/STM32G0xx_HAL_Driver/Src/stm32g0xx_hal_exti.c ****     regval |= maskline;
 202              		.loc 1 246 5 is_stmt 1 view .LVU75
 203              		.loc 1 246 12 is_stmt 0 view .LVU76
 204 0076 1043     		orrs	r0, r2
 205              	.LVL24:
 206              	.L11:
 247:Drivers/STM32G0xx_HAL_Driver/Src/stm32g0xx_hal_exti.c ****   }
 248:Drivers/STM32G0xx_HAL_Driver/Src/stm32g0xx_hal_exti.c ****   else
 249:Drivers/STM32G0xx_HAL_Driver/Src/stm32g0xx_hal_exti.c ****   {
 250:Drivers/STM32G0xx_HAL_Driver/Src/stm32g0xx_hal_exti.c ****     regval &= ~maskline;
 251:Drivers/STM32G0xx_HAL_Driver/Src/stm32g0xx_hal_exti.c ****   }
ARM GAS  /var/folders/cw/6cmm0b_n7yj10n1wx8hfx52r0000gn/T//ccDi1eKm.s 			page 9


 252:Drivers/STM32G0xx_HAL_Driver/Src/stm32g0xx_hal_exti.c **** 
 253:Drivers/STM32G0xx_HAL_Driver/Src/stm32g0xx_hal_exti.c ****   /* Store event mode */
 254:Drivers/STM32G0xx_HAL_Driver/Src/stm32g0xx_hal_exti.c ****   *regaddr = regval;
 207              		.loc 1 254 3 is_stmt 1 view .LVU77
 208              		.loc 1 254 12 is_stmt 0 view .LVU78
 209 0078 1860     		str	r0, [r3]
 255:Drivers/STM32G0xx_HAL_Driver/Src/stm32g0xx_hal_exti.c **** 
 256:Drivers/STM32G0xx_HAL_Driver/Src/stm32g0xx_hal_exti.c ****   return HAL_OK;
 210              		.loc 1 256 3 is_stmt 1 view .LVU79
 211              		.loc 1 256 10 is_stmt 0 view .LVU80
 212 007a 0020     		movs	r0, #0
 213              	.LVL25:
 214              	.L2:
 257:Drivers/STM32G0xx_HAL_Driver/Src/stm32g0xx_hal_exti.c **** }
 215              		.loc 1 257 1 view .LVU81
 216              		@ sp needed
 217 007c 80BC     		pop	{r7}
 218 007e B846     		mov	r8, r7
 219 0080 F0BD     		pop	{r4, r5, r6, r7, pc}
 220              	.LVL26:
 221              	.L4:
 186:Drivers/STM32G0xx_HAL_Driver/Src/stm32g0xx_hal_exti.c ****     }
 222              		.loc 1 186 7 is_stmt 1 view .LVU82
 186:Drivers/STM32G0xx_HAL_Driver/Src/stm32g0xx_hal_exti.c ****     }
 223              		.loc 1 186 14 is_stmt 0 view .LVU83
 224 0082 4646     		mov	r6, r8
 225 0084 9643     		bics	r6, r2
 226              	.LVL27:
 186:Drivers/STM32G0xx_HAL_Driver/Src/stm32g0xx_hal_exti.c ****     }
 227              		.loc 1 186 14 view .LVU84
 228 0086 D6E7     		b	.L5
 229              	.LVL28:
 230              	.L6:
 203:Drivers/STM32G0xx_HAL_Driver/Src/stm32g0xx_hal_exti.c ****     }
 231              		.loc 1 203 7 is_stmt 1 view .LVU85
 203:Drivers/STM32G0xx_HAL_Driver/Src/stm32g0xx_hal_exti.c ****     }
 232              		.loc 1 203 14 is_stmt 0 view .LVU86
 233 0088 9643     		bics	r6, r2
 234              	.LVL29:
 203:Drivers/STM32G0xx_HAL_Driver/Src/stm32g0xx_hal_exti.c ****     }
 235              		.loc 1 203 14 view .LVU87
 236 008a DDE7     		b	.L7
 237              	.LVL30:
 238              	.L15:
 212:Drivers/STM32G0xx_HAL_Driver/Src/stm32g0xx_hal_exti.c ****       assert_param(IS_EXTI_GPIO_PIN(linepos));
 239              		.loc 1 212 7 is_stmt 1 view .LVU88
 213:Drivers/STM32G0xx_HAL_Driver/Src/stm32g0xx_hal_exti.c **** 
 240              		.loc 1 213 7 view .LVU89
 215:Drivers/STM32G0xx_HAL_Driver/Src/stm32g0xx_hal_exti.c ****       regval &= ~(EXTI_EXTICR1_EXTI0 << (EXTI_EXTICR1_EXTI1_Pos * (linepos & 0x03u)));
 241              		.loc 1 215 7 view .LVU90
 215:Drivers/STM32G0xx_HAL_Driver/Src/stm32g0xx_hal_exti.c ****       regval &= ~(EXTI_EXTICR1_EXTI0 << (EXTI_EXTICR1_EXTI1_Pos * (linepos & 0x03u)));
 242              		.loc 1 215 37 is_stmt 0 view .LVU91
 243 008c 8008     		lsrs	r0, r0, #2
 244              	.LVL31:
 215:Drivers/STM32G0xx_HAL_Driver/Src/stm32g0xx_hal_exti.c ****       regval &= ~(EXTI_EXTICR1_EXTI0 << (EXTI_EXTICR1_EXTI1_Pos * (linepos & 0x03u)));
 245              		.loc 1 215 14 view .LVU92
 246 008e 0C4E     		ldr	r6, .L16
ARM GAS  /var/folders/cw/6cmm0b_n7yj10n1wx8hfx52r0000gn/T//ccDi1eKm.s 			page 10


 247 0090 1830     		adds	r0, r0, #24
 248 0092 8000     		lsls	r0, r0, #2
 249 0094 8759     		ldr	r7, [r0, r6]
 250              	.LVL32:
 216:Drivers/STM32G0xx_HAL_Driver/Src/stm32g0xx_hal_exti.c ****       regval |= (pExtiConfig->GPIOSel << (EXTI_EXTICR1_EXTI1_Pos * (linepos & 0x03u)));
 251              		.loc 1 216 7 is_stmt 1 view .LVU93
 216:Drivers/STM32G0xx_HAL_Driver/Src/stm32g0xx_hal_exti.c ****       regval |= (pExtiConfig->GPIOSel << (EXTI_EXTICR1_EXTI1_Pos * (linepos & 0x03u)));
 252              		.loc 1 216 76 is_stmt 0 view .LVU94
 253 0096 0324     		movs	r4, #3
 254 0098 2C40     		ands	r4, r5
 216:Drivers/STM32G0xx_HAL_Driver/Src/stm32g0xx_hal_exti.c ****       regval |= (pExtiConfig->GPIOSel << (EXTI_EXTICR1_EXTI1_Pos * (linepos & 0x03u)));
 255              		.loc 1 216 65 view .LVU95
 256 009a E400     		lsls	r4, r4, #3
 216:Drivers/STM32G0xx_HAL_Driver/Src/stm32g0xx_hal_exti.c ****       regval |= (pExtiConfig->GPIOSel << (EXTI_EXTICR1_EXTI1_Pos * (linepos & 0x03u)));
 257              		.loc 1 216 38 view .LVU96
 258 009c 0725     		movs	r5, #7
 259              	.LVL33:
 216:Drivers/STM32G0xx_HAL_Driver/Src/stm32g0xx_hal_exti.c ****       regval |= (pExtiConfig->GPIOSel << (EXTI_EXTICR1_EXTI1_Pos * (linepos & 0x03u)));
 260              		.loc 1 216 38 view .LVU97
 261 009e A540     		lsls	r5, r5, r4
 216:Drivers/STM32G0xx_HAL_Driver/Src/stm32g0xx_hal_exti.c ****       regval |= (pExtiConfig->GPIOSel << (EXTI_EXTICR1_EXTI1_Pos * (linepos & 0x03u)));
 262              		.loc 1 216 14 view .LVU98
 263 00a0 AF43     		bics	r7, r5
 264              	.LVL34:
 217:Drivers/STM32G0xx_HAL_Driver/Src/stm32g0xx_hal_exti.c ****       EXTI->EXTICR[linepos >> 2u] = regval;
 265              		.loc 1 217 7 is_stmt 1 view .LVU99
 217:Drivers/STM32G0xx_HAL_Driver/Src/stm32g0xx_hal_exti.c ****       EXTI->EXTICR[linepos >> 2u] = regval;
 266              		.loc 1 217 29 is_stmt 0 view .LVU100
 267 00a2 CD68     		ldr	r5, [r1, #12]
 217:Drivers/STM32G0xx_HAL_Driver/Src/stm32g0xx_hal_exti.c ****       EXTI->EXTICR[linepos >> 2u] = regval;
 268              		.loc 1 217 39 view .LVU101
 269 00a4 A540     		lsls	r5, r5, r4
 270 00a6 2C00     		movs	r4, r5
 217:Drivers/STM32G0xx_HAL_Driver/Src/stm32g0xx_hal_exti.c ****       EXTI->EXTICR[linepos >> 2u] = regval;
 271              		.loc 1 217 14 view .LVU102
 272 00a8 3C43     		orrs	r4, r7
 273              	.LVL35:
 218:Drivers/STM32G0xx_HAL_Driver/Src/stm32g0xx_hal_exti.c ****     }
 274              		.loc 1 218 7 is_stmt 1 view .LVU103
 218:Drivers/STM32G0xx_HAL_Driver/Src/stm32g0xx_hal_exti.c ****     }
 275              		.loc 1 218 35 is_stmt 0 view .LVU104
 276 00aa 8451     		str	r4, [r0, r6]
 277 00ac D3E7     		b	.L3
 278              	.LVL36:
 279              	.L8:
 233:Drivers/STM32G0xx_HAL_Driver/Src/stm32g0xx_hal_exti.c ****   }
 280              		.loc 1 233 5 is_stmt 1 view .LVU105
 233:Drivers/STM32G0xx_HAL_Driver/Src/stm32g0xx_hal_exti.c ****   }
 281              		.loc 1 233 12 is_stmt 0 view .LVU106
 282 00ae 9043     		bics	r0, r2
 283              	.LVL37:
 233:Drivers/STM32G0xx_HAL_Driver/Src/stm32g0xx_hal_exti.c ****   }
 284              		.loc 1 233 12 view .LVU107
 285 00b0 D9E7     		b	.L9
 286              	.LVL38:
 287              	.L10:
 250:Drivers/STM32G0xx_HAL_Driver/Src/stm32g0xx_hal_exti.c ****   }
ARM GAS  /var/folders/cw/6cmm0b_n7yj10n1wx8hfx52r0000gn/T//ccDi1eKm.s 			page 11


 288              		.loc 1 250 5 is_stmt 1 view .LVU108
 250:Drivers/STM32G0xx_HAL_Driver/Src/stm32g0xx_hal_exti.c ****   }
 289              		.loc 1 250 12 is_stmt 0 view .LVU109
 290 00b2 9043     		bics	r0, r2
 291              	.LVL39:
 250:Drivers/STM32G0xx_HAL_Driver/Src/stm32g0xx_hal_exti.c ****   }
 292              		.loc 1 250 12 view .LVU110
 293 00b4 E0E7     		b	.L11
 294              	.LVL40:
 295              	.L12:
 155:Drivers/STM32G0xx_HAL_Driver/Src/stm32g0xx_hal_exti.c ****   }
 296              		.loc 1 155 12 view .LVU111
 297 00b6 0120     		movs	r0, #1
 298              	.LVL41:
 155:Drivers/STM32G0xx_HAL_Driver/Src/stm32g0xx_hal_exti.c ****   }
 299              		.loc 1 155 12 view .LVU112
 300 00b8 E0E7     		b	.L2
 301              	.LVL42:
 302              	.L13:
 155:Drivers/STM32G0xx_HAL_Driver/Src/stm32g0xx_hal_exti.c ****   }
 303              		.loc 1 155 12 view .LVU113
 304 00ba 0120     		movs	r0, #1
 305              	.LVL43:
 155:Drivers/STM32G0xx_HAL_Driver/Src/stm32g0xx_hal_exti.c ****   }
 306              		.loc 1 155 12 view .LVU114
 307 00bc DEE7     		b	.L2
 308              	.L17:
 309 00be C046     		.align	2
 310              	.L16:
 311 00c0 00180240 		.word	1073879040
 312 00c4 04180240 		.word	1073879044
 313 00c8 80180240 		.word	1073879168
 314 00cc 84180240 		.word	1073879172
 315              		.cfi_endproc
 316              	.LFE158:
 318              		.section	.text.HAL_EXTI_GetConfigLine,"ax",%progbits
 319              		.align	1
 320              		.global	HAL_EXTI_GetConfigLine
 321              		.syntax unified
 322              		.code	16
 323              		.thumb_func
 325              	HAL_EXTI_GetConfigLine:
 326              	.LVL44:
 327              	.LFB159:
 258:Drivers/STM32G0xx_HAL_Driver/Src/stm32g0xx_hal_exti.c **** 
 259:Drivers/STM32G0xx_HAL_Driver/Src/stm32g0xx_hal_exti.c **** 
 260:Drivers/STM32G0xx_HAL_Driver/Src/stm32g0xx_hal_exti.c **** /**
 261:Drivers/STM32G0xx_HAL_Driver/Src/stm32g0xx_hal_exti.c ****   * @brief  Get configuration of a dedicated Exti line.
 262:Drivers/STM32G0xx_HAL_Driver/Src/stm32g0xx_hal_exti.c ****   * @param  hexti Exti handle.
 263:Drivers/STM32G0xx_HAL_Driver/Src/stm32g0xx_hal_exti.c ****   * @param  pExtiConfig Pointer on structure to store Exti configuration.
 264:Drivers/STM32G0xx_HAL_Driver/Src/stm32g0xx_hal_exti.c ****   * @retval HAL Status.
 265:Drivers/STM32G0xx_HAL_Driver/Src/stm32g0xx_hal_exti.c ****   */
 266:Drivers/STM32G0xx_HAL_Driver/Src/stm32g0xx_hal_exti.c **** HAL_StatusTypeDef HAL_EXTI_GetConfigLine(EXTI_HandleTypeDef *hexti, EXTI_ConfigTypeDef *pExtiConfig
 267:Drivers/STM32G0xx_HAL_Driver/Src/stm32g0xx_hal_exti.c **** {
 328              		.loc 1 267 1 is_stmt 1 view -0
 329              		.cfi_startproc
 330              		@ args = 0, pretend = 0, frame = 0
ARM GAS  /var/folders/cw/6cmm0b_n7yj10n1wx8hfx52r0000gn/T//ccDi1eKm.s 			page 12


 331              		@ frame_needed = 0, uses_anonymous_args = 0
 332              		.loc 1 267 1 is_stmt 0 view .LVU116
 333 0000 70B5     		push	{r4, r5, r6, lr}
 334              	.LCFI2:
 335              		.cfi_def_cfa_offset 16
 336              		.cfi_offset 4, -16
 337              		.cfi_offset 5, -12
 338              		.cfi_offset 6, -8
 339              		.cfi_offset 14, -4
 268:Drivers/STM32G0xx_HAL_Driver/Src/stm32g0xx_hal_exti.c ****   __IO uint32_t *regaddr;
 340              		.loc 1 268 3 is_stmt 1 view .LVU117
 269:Drivers/STM32G0xx_HAL_Driver/Src/stm32g0xx_hal_exti.c ****   uint32_t regval;
 341              		.loc 1 269 3 view .LVU118
 270:Drivers/STM32G0xx_HAL_Driver/Src/stm32g0xx_hal_exti.c ****   uint32_t linepos;
 342              		.loc 1 270 3 view .LVU119
 271:Drivers/STM32G0xx_HAL_Driver/Src/stm32g0xx_hal_exti.c ****   uint32_t maskline;
 343              		.loc 1 271 3 view .LVU120
 272:Drivers/STM32G0xx_HAL_Driver/Src/stm32g0xx_hal_exti.c ****   uint32_t offset;
 344              		.loc 1 272 3 view .LVU121
 273:Drivers/STM32G0xx_HAL_Driver/Src/stm32g0xx_hal_exti.c **** 
 274:Drivers/STM32G0xx_HAL_Driver/Src/stm32g0xx_hal_exti.c ****   /* Check null pointer */
 275:Drivers/STM32G0xx_HAL_Driver/Src/stm32g0xx_hal_exti.c ****   if ((hexti == NULL) || (pExtiConfig == NULL))
 345              		.loc 1 275 3 view .LVU122
 346              		.loc 1 275 6 is_stmt 0 view .LVU123
 347 0002 0028     		cmp	r0, #0
 348 0004 50D0     		beq	.L28
 349              		.loc 1 275 23 discriminator 1 view .LVU124
 350 0006 0029     		cmp	r1, #0
 351 0008 50D0     		beq	.L29
 276:Drivers/STM32G0xx_HAL_Driver/Src/stm32g0xx_hal_exti.c ****   {
 277:Drivers/STM32G0xx_HAL_Driver/Src/stm32g0xx_hal_exti.c ****     return HAL_ERROR;
 278:Drivers/STM32G0xx_HAL_Driver/Src/stm32g0xx_hal_exti.c ****   }
 279:Drivers/STM32G0xx_HAL_Driver/Src/stm32g0xx_hal_exti.c **** 
 280:Drivers/STM32G0xx_HAL_Driver/Src/stm32g0xx_hal_exti.c ****   /* Check the parameter */
 281:Drivers/STM32G0xx_HAL_Driver/Src/stm32g0xx_hal_exti.c ****   assert_param(IS_EXTI_LINE(hexti->Line));
 352              		.loc 1 281 3 is_stmt 1 view .LVU125
 282:Drivers/STM32G0xx_HAL_Driver/Src/stm32g0xx_hal_exti.c **** 
 283:Drivers/STM32G0xx_HAL_Driver/Src/stm32g0xx_hal_exti.c ****   /* Store handle line number to configiguration structure */
 284:Drivers/STM32G0xx_HAL_Driver/Src/stm32g0xx_hal_exti.c ****   pExtiConfig->Line = hexti->Line;
 353              		.loc 1 284 3 view .LVU126
 354              		.loc 1 284 28 is_stmt 0 view .LVU127
 355 000a 0468     		ldr	r4, [r0]
 356              		.loc 1 284 21 view .LVU128
 357 000c 0C60     		str	r4, [r1]
 285:Drivers/STM32G0xx_HAL_Driver/Src/stm32g0xx_hal_exti.c **** 
 286:Drivers/STM32G0xx_HAL_Driver/Src/stm32g0xx_hal_exti.c ****   /* compute line register offset and line mask */
 287:Drivers/STM32G0xx_HAL_Driver/Src/stm32g0xx_hal_exti.c ****   offset = ((pExtiConfig->Line & EXTI_REG_MASK) >> EXTI_REG_SHIFT);
 358              		.loc 1 287 3 is_stmt 1 view .LVU129
 359              		.loc 1 287 49 is_stmt 0 view .LVU130
 360 000e 220C     		lsrs	r2, r4, #16
 361              		.loc 1 287 10 view .LVU131
 362 0010 0123     		movs	r3, #1
 363 0012 1A40     		ands	r2, r3
 364              	.LVL45:
 288:Drivers/STM32G0xx_HAL_Driver/Src/stm32g0xx_hal_exti.c ****   linepos = (pExtiConfig->Line & EXTI_PIN_MASK);
 365              		.loc 1 288 3 is_stmt 1 view .LVU132
 366              		.loc 1 288 11 is_stmt 0 view .LVU133
ARM GAS  /var/folders/cw/6cmm0b_n7yj10n1wx8hfx52r0000gn/T//ccDi1eKm.s 			page 13


 367 0014 1F25     		movs	r5, #31
 368 0016 2540     		ands	r5, r4
 369              	.LVL46:
 289:Drivers/STM32G0xx_HAL_Driver/Src/stm32g0xx_hal_exti.c ****   maskline = (1uL << linepos);
 370              		.loc 1 289 3 is_stmt 1 view .LVU134
 371              		.loc 1 289 12 is_stmt 0 view .LVU135
 372 0018 AB40     		lsls	r3, r3, r5
 373              	.LVL47:
 290:Drivers/STM32G0xx_HAL_Driver/Src/stm32g0xx_hal_exti.c **** 
 291:Drivers/STM32G0xx_HAL_Driver/Src/stm32g0xx_hal_exti.c ****   /* 1] Get core mode : interrupt */
 292:Drivers/STM32G0xx_HAL_Driver/Src/stm32g0xx_hal_exti.c ****   regaddr = (&EXTI->IMR1 + (EXTI_MODE_OFFSET * offset));
 374              		.loc 1 292 3 is_stmt 1 view .LVU136
 375              		.loc 1 292 26 is_stmt 0 view .LVU137
 376 001a 1001     		lsls	r0, r2, #4
 377              	.LVL48:
 378              		.loc 1 292 11 view .LVU138
 379 001c 244E     		ldr	r6, .L31
 380 001e 8619     		adds	r6, r0, r6
 381              	.LVL49:
 293:Drivers/STM32G0xx_HAL_Driver/Src/stm32g0xx_hal_exti.c ****   regval = *regaddr;
 382              		.loc 1 293 3 is_stmt 1 view .LVU139
 383              		.loc 1 293 10 is_stmt 0 view .LVU140
 384 0020 3668     		ldr	r6, [r6]
 385              	.LVL50:
 294:Drivers/STM32G0xx_HAL_Driver/Src/stm32g0xx_hal_exti.c **** 
 295:Drivers/STM32G0xx_HAL_Driver/Src/stm32g0xx_hal_exti.c ****   /* Check if selected line is enable */
 296:Drivers/STM32G0xx_HAL_Driver/Src/stm32g0xx_hal_exti.c ****   if ((regval & maskline) != 0x00u)
 386              		.loc 1 296 3 is_stmt 1 view .LVU141
 387              		.loc 1 296 6 is_stmt 0 view .LVU142
 388 0022 1E42     		tst	r6, r3
 389 0024 28D0     		beq	.L20
 297:Drivers/STM32G0xx_HAL_Driver/Src/stm32g0xx_hal_exti.c ****   {
 298:Drivers/STM32G0xx_HAL_Driver/Src/stm32g0xx_hal_exti.c ****     pExtiConfig->Mode = EXTI_MODE_INTERRUPT;
 390              		.loc 1 298 5 is_stmt 1 view .LVU143
 391              		.loc 1 298 23 is_stmt 0 view .LVU144
 392 0026 0126     		movs	r6, #1
 393              	.LVL51:
 394              		.loc 1 298 23 view .LVU145
 395 0028 4E60     		str	r6, [r1, #4]
 396              	.L21:
 299:Drivers/STM32G0xx_HAL_Driver/Src/stm32g0xx_hal_exti.c ****   }
 300:Drivers/STM32G0xx_HAL_Driver/Src/stm32g0xx_hal_exti.c ****   else
 301:Drivers/STM32G0xx_HAL_Driver/Src/stm32g0xx_hal_exti.c ****   {
 302:Drivers/STM32G0xx_HAL_Driver/Src/stm32g0xx_hal_exti.c ****     pExtiConfig->Mode = EXTI_MODE_NONE;
 303:Drivers/STM32G0xx_HAL_Driver/Src/stm32g0xx_hal_exti.c ****   }
 304:Drivers/STM32G0xx_HAL_Driver/Src/stm32g0xx_hal_exti.c **** 
 305:Drivers/STM32G0xx_HAL_Driver/Src/stm32g0xx_hal_exti.c ****   /* Get event mode */
 306:Drivers/STM32G0xx_HAL_Driver/Src/stm32g0xx_hal_exti.c ****   regaddr = (&EXTI->EMR1 + (EXTI_MODE_OFFSET * offset));
 397              		.loc 1 306 3 is_stmt 1 view .LVU146
 398              		.loc 1 306 11 is_stmt 0 view .LVU147
 399 002a 224E     		ldr	r6, .L31+4
 400 002c B446     		mov	ip, r6
 401 002e 6044     		add	r0, r0, ip
 402              	.LVL52:
 307:Drivers/STM32G0xx_HAL_Driver/Src/stm32g0xx_hal_exti.c ****   regval = *regaddr;
 403              		.loc 1 307 3 is_stmt 1 view .LVU148
 404              		.loc 1 307 10 is_stmt 0 view .LVU149
ARM GAS  /var/folders/cw/6cmm0b_n7yj10n1wx8hfx52r0000gn/T//ccDi1eKm.s 			page 14


 405 0030 0068     		ldr	r0, [r0]
 406              	.LVL53:
 308:Drivers/STM32G0xx_HAL_Driver/Src/stm32g0xx_hal_exti.c **** 
 309:Drivers/STM32G0xx_HAL_Driver/Src/stm32g0xx_hal_exti.c ****   /* Check if selected line is enable */
 310:Drivers/STM32G0xx_HAL_Driver/Src/stm32g0xx_hal_exti.c ****   if ((regval & maskline) != 0x00u)
 407              		.loc 1 310 3 is_stmt 1 view .LVU150
 408              		.loc 1 310 6 is_stmt 0 view .LVU151
 409 0032 1842     		tst	r0, r3
 410 0034 03D0     		beq	.L22
 311:Drivers/STM32G0xx_HAL_Driver/Src/stm32g0xx_hal_exti.c ****   {
 312:Drivers/STM32G0xx_HAL_Driver/Src/stm32g0xx_hal_exti.c ****     pExtiConfig->Mode |= EXTI_MODE_EVENT;
 411              		.loc 1 312 5 is_stmt 1 view .LVU152
 412              		.loc 1 312 16 is_stmt 0 view .LVU153
 413 0036 4868     		ldr	r0, [r1, #4]
 414              	.LVL54:
 415              		.loc 1 312 23 view .LVU154
 416 0038 0226     		movs	r6, #2
 417              	.LVL55:
 418              		.loc 1 312 23 view .LVU155
 419 003a 3043     		orrs	r0, r6
 420 003c 4860     		str	r0, [r1, #4]
 421              	.L22:
 313:Drivers/STM32G0xx_HAL_Driver/Src/stm32g0xx_hal_exti.c ****   }
 314:Drivers/STM32G0xx_HAL_Driver/Src/stm32g0xx_hal_exti.c **** 
 315:Drivers/STM32G0xx_HAL_Driver/Src/stm32g0xx_hal_exti.c ****   /* 2] Get trigger for configurable lines : rising */
 316:Drivers/STM32G0xx_HAL_Driver/Src/stm32g0xx_hal_exti.c ****   if ((pExtiConfig->Line & EXTI_CONFIG) != 0x00u)
 422              		.loc 1 316 3 is_stmt 1 view .LVU156
 423              		.loc 1 316 6 is_stmt 0 view .LVU157
 424 003e A001     		lsls	r0, r4, #6
 425 0040 2DD5     		bpl	.L23
 317:Drivers/STM32G0xx_HAL_Driver/Src/stm32g0xx_hal_exti.c ****   {
 318:Drivers/STM32G0xx_HAL_Driver/Src/stm32g0xx_hal_exti.c ****     regaddr = (&EXTI->RTSR1 + (EXTI_CONFIG_OFFSET * offset));
 426              		.loc 1 318 5 is_stmt 1 view .LVU158
 427              		.loc 1 318 29 is_stmt 0 view .LVU159
 428 0042 5201     		lsls	r2, r2, #5
 429              	.LVL56:
 430              		.loc 1 318 13 view .LVU160
 431 0044 1C48     		ldr	r0, .L31+8
 432 0046 1018     		adds	r0, r2, r0
 433              	.LVL57:
 319:Drivers/STM32G0xx_HAL_Driver/Src/stm32g0xx_hal_exti.c ****     regval = *regaddr;
 434              		.loc 1 319 5 is_stmt 1 view .LVU161
 435              		.loc 1 319 12 is_stmt 0 view .LVU162
 436 0048 0068     		ldr	r0, [r0]
 437              	.LVL58:
 320:Drivers/STM32G0xx_HAL_Driver/Src/stm32g0xx_hal_exti.c **** 
 321:Drivers/STM32G0xx_HAL_Driver/Src/stm32g0xx_hal_exti.c ****     /* Check if configuration of selected line is enable */
 322:Drivers/STM32G0xx_HAL_Driver/Src/stm32g0xx_hal_exti.c ****     if ((regval & maskline) != 0x00u)
 438              		.loc 1 322 5 is_stmt 1 view .LVU163
 439              		.loc 1 322 8 is_stmt 0 view .LVU164
 440 004a 1842     		tst	r0, r3
 441 004c 17D0     		beq	.L24
 323:Drivers/STM32G0xx_HAL_Driver/Src/stm32g0xx_hal_exti.c ****     {
 324:Drivers/STM32G0xx_HAL_Driver/Src/stm32g0xx_hal_exti.c ****       pExtiConfig->Trigger = EXTI_TRIGGER_RISING;
 442              		.loc 1 324 7 is_stmt 1 view .LVU165
 443              		.loc 1 324 28 is_stmt 0 view .LVU166
 444 004e 0120     		movs	r0, #1
ARM GAS  /var/folders/cw/6cmm0b_n7yj10n1wx8hfx52r0000gn/T//ccDi1eKm.s 			page 15


 445              	.LVL59:
 446              		.loc 1 324 28 view .LVU167
 447 0050 8860     		str	r0, [r1, #8]
 448              	.LVL60:
 449              	.L25:
 325:Drivers/STM32G0xx_HAL_Driver/Src/stm32g0xx_hal_exti.c ****     }
 326:Drivers/STM32G0xx_HAL_Driver/Src/stm32g0xx_hal_exti.c ****     else
 327:Drivers/STM32G0xx_HAL_Driver/Src/stm32g0xx_hal_exti.c ****     {
 328:Drivers/STM32G0xx_HAL_Driver/Src/stm32g0xx_hal_exti.c ****       pExtiConfig->Trigger = EXTI_TRIGGER_NONE;
 329:Drivers/STM32G0xx_HAL_Driver/Src/stm32g0xx_hal_exti.c ****     }
 330:Drivers/STM32G0xx_HAL_Driver/Src/stm32g0xx_hal_exti.c **** 
 331:Drivers/STM32G0xx_HAL_Driver/Src/stm32g0xx_hal_exti.c ****     /* Get falling configuration */
 332:Drivers/STM32G0xx_HAL_Driver/Src/stm32g0xx_hal_exti.c ****     regaddr = (&EXTI->FTSR1 + (EXTI_CONFIG_OFFSET * offset));
 450              		.loc 1 332 5 is_stmt 1 view .LVU168
 451              		.loc 1 332 13 is_stmt 0 view .LVU169
 452 0052 1A48     		ldr	r0, .L31+12
 453 0054 8446     		mov	ip, r0
 454 0056 6244     		add	r2, r2, ip
 455              	.LVL61:
 333:Drivers/STM32G0xx_HAL_Driver/Src/stm32g0xx_hal_exti.c ****     regval = *regaddr;
 456              		.loc 1 333 5 is_stmt 1 view .LVU170
 457              		.loc 1 333 12 is_stmt 0 view .LVU171
 458 0058 1268     		ldr	r2, [r2]
 459              	.LVL62:
 334:Drivers/STM32G0xx_HAL_Driver/Src/stm32g0xx_hal_exti.c **** 
 335:Drivers/STM32G0xx_HAL_Driver/Src/stm32g0xx_hal_exti.c ****     /* Check if configuration of selected line is enable */
 336:Drivers/STM32G0xx_HAL_Driver/Src/stm32g0xx_hal_exti.c ****     if ((regval & maskline) != 0x00u)
 460              		.loc 1 336 5 is_stmt 1 view .LVU172
 461              		.loc 1 336 8 is_stmt 0 view .LVU173
 462 005a 1A42     		tst	r2, r3
 463 005c 03D0     		beq	.L26
 337:Drivers/STM32G0xx_HAL_Driver/Src/stm32g0xx_hal_exti.c ****     {
 338:Drivers/STM32G0xx_HAL_Driver/Src/stm32g0xx_hal_exti.c ****       pExtiConfig->Trigger |= EXTI_TRIGGER_FALLING;
 464              		.loc 1 338 7 is_stmt 1 view .LVU174
 465              		.loc 1 338 18 is_stmt 0 view .LVU175
 466 005e 8B68     		ldr	r3, [r1, #8]
 467              	.LVL63:
 468              		.loc 1 338 28 view .LVU176
 469 0060 0222     		movs	r2, #2
 470              	.LVL64:
 471              		.loc 1 338 28 view .LVU177
 472 0062 1343     		orrs	r3, r2
 473 0064 8B60     		str	r3, [r1, #8]
 474              	.L26:
 339:Drivers/STM32G0xx_HAL_Driver/Src/stm32g0xx_hal_exti.c ****     }
 340:Drivers/STM32G0xx_HAL_Driver/Src/stm32g0xx_hal_exti.c **** 
 341:Drivers/STM32G0xx_HAL_Driver/Src/stm32g0xx_hal_exti.c ****     /* Get Gpio port selection for gpio lines */
 342:Drivers/STM32G0xx_HAL_Driver/Src/stm32g0xx_hal_exti.c ****     if ((pExtiConfig->Line & EXTI_GPIO) == EXTI_GPIO)
 475              		.loc 1 342 5 is_stmt 1 view .LVU178
 476              		.loc 1 342 28 is_stmt 0 view .LVU179
 477 0066 C022     		movs	r2, #192
 478 0068 D204     		lsls	r2, r2, #19
 479 006a 1440     		ands	r4, r2
 480              	.LVL65:
 481              		.loc 1 342 8 view .LVU180
 482 006c 9442     		cmp	r4, r2
 483 006e 09D0     		beq	.L30
ARM GAS  /var/folders/cw/6cmm0b_n7yj10n1wx8hfx52r0000gn/T//ccDi1eKm.s 			page 16


 343:Drivers/STM32G0xx_HAL_Driver/Src/stm32g0xx_hal_exti.c ****     {
 344:Drivers/STM32G0xx_HAL_Driver/Src/stm32g0xx_hal_exti.c ****       assert_param(IS_EXTI_GPIO_PIN(linepos));
 345:Drivers/STM32G0xx_HAL_Driver/Src/stm32g0xx_hal_exti.c **** 
 346:Drivers/STM32G0xx_HAL_Driver/Src/stm32g0xx_hal_exti.c ****       regval = EXTI->EXTICR[linepos >> 2u];
 347:Drivers/STM32G0xx_HAL_Driver/Src/stm32g0xx_hal_exti.c ****       pExtiConfig->GPIOSel = ((regval << (EXTI_EXTICR1_EXTI1_Pos * (3uL - (linepos & 0x03u)))) >> 2
 348:Drivers/STM32G0xx_HAL_Driver/Src/stm32g0xx_hal_exti.c ****     }
 349:Drivers/STM32G0xx_HAL_Driver/Src/stm32g0xx_hal_exti.c ****     else
 350:Drivers/STM32G0xx_HAL_Driver/Src/stm32g0xx_hal_exti.c ****     {
 351:Drivers/STM32G0xx_HAL_Driver/Src/stm32g0xx_hal_exti.c ****       pExtiConfig->GPIOSel = 0x00u;
 484              		.loc 1 351 7 is_stmt 1 view .LVU181
 485              		.loc 1 351 28 is_stmt 0 view .LVU182
 486 0070 0023     		movs	r3, #0
 487 0072 CB60     		str	r3, [r1, #12]
 352:Drivers/STM32G0xx_HAL_Driver/Src/stm32g0xx_hal_exti.c ****     }
 353:Drivers/STM32G0xx_HAL_Driver/Src/stm32g0xx_hal_exti.c ****   }
 354:Drivers/STM32G0xx_HAL_Driver/Src/stm32g0xx_hal_exti.c ****   else
 355:Drivers/STM32G0xx_HAL_Driver/Src/stm32g0xx_hal_exti.c ****   {
 356:Drivers/STM32G0xx_HAL_Driver/Src/stm32g0xx_hal_exti.c ****     pExtiConfig->Trigger = EXTI_TRIGGER_NONE;
 357:Drivers/STM32G0xx_HAL_Driver/Src/stm32g0xx_hal_exti.c ****     pExtiConfig->GPIOSel = 0x00u;
 358:Drivers/STM32G0xx_HAL_Driver/Src/stm32g0xx_hal_exti.c ****   }
 359:Drivers/STM32G0xx_HAL_Driver/Src/stm32g0xx_hal_exti.c **** 
 360:Drivers/STM32G0xx_HAL_Driver/Src/stm32g0xx_hal_exti.c ****   return HAL_OK;
 488              		.loc 1 360 10 view .LVU183
 489 0074 0020     		movs	r0, #0
 490              	.LVL66:
 491              		.loc 1 360 10 view .LVU184
 492 0076 16E0     		b	.L19
 493              	.LVL67:
 494              	.L20:
 302:Drivers/STM32G0xx_HAL_Driver/Src/stm32g0xx_hal_exti.c ****   }
 495              		.loc 1 302 5 is_stmt 1 view .LVU185
 302:Drivers/STM32G0xx_HAL_Driver/Src/stm32g0xx_hal_exti.c ****   }
 496              		.loc 1 302 23 is_stmt 0 view .LVU186
 497 0078 0026     		movs	r6, #0
 498              	.LVL68:
 302:Drivers/STM32G0xx_HAL_Driver/Src/stm32g0xx_hal_exti.c ****   }
 499              		.loc 1 302 23 view .LVU187
 500 007a 4E60     		str	r6, [r1, #4]
 501 007c D5E7     		b	.L21
 502              	.LVL69:
 503              	.L24:
 328:Drivers/STM32G0xx_HAL_Driver/Src/stm32g0xx_hal_exti.c ****     }
 504              		.loc 1 328 7 is_stmt 1 view .LVU188
 328:Drivers/STM32G0xx_HAL_Driver/Src/stm32g0xx_hal_exti.c ****     }
 505              		.loc 1 328 28 is_stmt 0 view .LVU189
 506 007e 0020     		movs	r0, #0
 507              	.LVL70:
 328:Drivers/STM32G0xx_HAL_Driver/Src/stm32g0xx_hal_exti.c ****     }
 508              		.loc 1 328 28 view .LVU190
 509 0080 8860     		str	r0, [r1, #8]
 510 0082 E6E7     		b	.L25
 511              	.LVL71:
 512              	.L30:
 344:Drivers/STM32G0xx_HAL_Driver/Src/stm32g0xx_hal_exti.c **** 
 513              		.loc 1 344 7 is_stmt 1 view .LVU191
 346:Drivers/STM32G0xx_HAL_Driver/Src/stm32g0xx_hal_exti.c ****       pExtiConfig->GPIOSel = ((regval << (EXTI_EXTICR1_EXTI1_Pos * (3uL - (linepos & 0x03u)))) >> 2
 514              		.loc 1 346 7 view .LVU192
ARM GAS  /var/folders/cw/6cmm0b_n7yj10n1wx8hfx52r0000gn/T//ccDi1eKm.s 			page 17


 346:Drivers/STM32G0xx_HAL_Driver/Src/stm32g0xx_hal_exti.c ****       pExtiConfig->GPIOSel = ((regval << (EXTI_EXTICR1_EXTI1_Pos * (3uL - (linepos & 0x03u)))) >> 2
 515              		.loc 1 346 37 is_stmt 0 view .LVU193
 516 0084 AB08     		lsrs	r3, r5, #2
 346:Drivers/STM32G0xx_HAL_Driver/Src/stm32g0xx_hal_exti.c ****       pExtiConfig->GPIOSel = ((regval << (EXTI_EXTICR1_EXTI1_Pos * (3uL - (linepos & 0x03u)))) >> 2
 517              		.loc 1 346 14 view .LVU194
 518 0086 1833     		adds	r3, r3, #24
 519 0088 9B00     		lsls	r3, r3, #2
 520 008a 0B4A     		ldr	r2, .L31+8
 521 008c 9B58     		ldr	r3, [r3, r2]
 522              	.LVL72:
 347:Drivers/STM32G0xx_HAL_Driver/Src/stm32g0xx_hal_exti.c ****     }
 523              		.loc 1 347 7 is_stmt 1 view .LVU195
 347:Drivers/STM32G0xx_HAL_Driver/Src/stm32g0xx_hal_exti.c ****     }
 524              		.loc 1 347 73 is_stmt 0 view .LVU196
 525 008e 0322     		movs	r2, #3
 526 0090 AA43     		bics	r2, r5
 347:Drivers/STM32G0xx_HAL_Driver/Src/stm32g0xx_hal_exti.c ****     }
 527              		.loc 1 347 66 view .LVU197
 528 0092 D200     		lsls	r2, r2, #3
 347:Drivers/STM32G0xx_HAL_Driver/Src/stm32g0xx_hal_exti.c ****     }
 529              		.loc 1 347 39 view .LVU198
 530 0094 9340     		lsls	r3, r3, r2
 531              	.LVL73:
 347:Drivers/STM32G0xx_HAL_Driver/Src/stm32g0xx_hal_exti.c ****     }
 532              		.loc 1 347 96 view .LVU199
 533 0096 1B0E     		lsrs	r3, r3, #24
 347:Drivers/STM32G0xx_HAL_Driver/Src/stm32g0xx_hal_exti.c ****     }
 534              		.loc 1 347 28 view .LVU200
 535 0098 CB60     		str	r3, [r1, #12]
 536              		.loc 1 360 10 view .LVU201
 537 009a 0020     		movs	r0, #0
 538              	.LVL74:
 539              		.loc 1 360 10 view .LVU202
 540 009c 03E0     		b	.L19
 541              	.LVL75:
 542              	.L23:
 356:Drivers/STM32G0xx_HAL_Driver/Src/stm32g0xx_hal_exti.c ****     pExtiConfig->GPIOSel = 0x00u;
 543              		.loc 1 356 5 is_stmt 1 view .LVU203
 356:Drivers/STM32G0xx_HAL_Driver/Src/stm32g0xx_hal_exti.c ****     pExtiConfig->GPIOSel = 0x00u;
 544              		.loc 1 356 26 is_stmt 0 view .LVU204
 545 009e 0023     		movs	r3, #0
 546              	.LVL76:
 356:Drivers/STM32G0xx_HAL_Driver/Src/stm32g0xx_hal_exti.c ****     pExtiConfig->GPIOSel = 0x00u;
 547              		.loc 1 356 26 view .LVU205
 548 00a0 8B60     		str	r3, [r1, #8]
 357:Drivers/STM32G0xx_HAL_Driver/Src/stm32g0xx_hal_exti.c ****   }
 549              		.loc 1 357 5 is_stmt 1 view .LVU206
 357:Drivers/STM32G0xx_HAL_Driver/Src/stm32g0xx_hal_exti.c ****   }
 550              		.loc 1 357 26 is_stmt 0 view .LVU207
 551 00a2 CB60     		str	r3, [r1, #12]
 552              		.loc 1 360 10 view .LVU208
 553 00a4 0020     		movs	r0, #0
 554              	.LVL77:
 555              	.L19:
 361:Drivers/STM32G0xx_HAL_Driver/Src/stm32g0xx_hal_exti.c **** }
 556              		.loc 1 361 1 view .LVU209
 557              		@ sp needed
ARM GAS  /var/folders/cw/6cmm0b_n7yj10n1wx8hfx52r0000gn/T//ccDi1eKm.s 			page 18


 558 00a6 70BD     		pop	{r4, r5, r6, pc}
 559              	.LVL78:
 560              	.L28:
 277:Drivers/STM32G0xx_HAL_Driver/Src/stm32g0xx_hal_exti.c ****   }
 561              		.loc 1 277 12 view .LVU210
 562 00a8 0120     		movs	r0, #1
 563              	.LVL79:
 277:Drivers/STM32G0xx_HAL_Driver/Src/stm32g0xx_hal_exti.c ****   }
 564              		.loc 1 277 12 view .LVU211
 565 00aa FCE7     		b	.L19
 566              	.LVL80:
 567              	.L29:
 277:Drivers/STM32G0xx_HAL_Driver/Src/stm32g0xx_hal_exti.c ****   }
 568              		.loc 1 277 12 view .LVU212
 569 00ac 0120     		movs	r0, #1
 570              	.LVL81:
 277:Drivers/STM32G0xx_HAL_Driver/Src/stm32g0xx_hal_exti.c ****   }
 571              		.loc 1 277 12 view .LVU213
 572 00ae FAE7     		b	.L19
 573              	.L32:
 574              		.align	2
 575              	.L31:
 576 00b0 80180240 		.word	1073879168
 577 00b4 84180240 		.word	1073879172
 578 00b8 00180240 		.word	1073879040
 579 00bc 04180240 		.word	1073879044
 580              		.cfi_endproc
 581              	.LFE159:
 583              		.section	.text.HAL_EXTI_ClearConfigLine,"ax",%progbits
 584              		.align	1
 585              		.global	HAL_EXTI_ClearConfigLine
 586              		.syntax unified
 587              		.code	16
 588              		.thumb_func
 590              	HAL_EXTI_ClearConfigLine:
 591              	.LVL82:
 592              	.LFB160:
 362:Drivers/STM32G0xx_HAL_Driver/Src/stm32g0xx_hal_exti.c **** 
 363:Drivers/STM32G0xx_HAL_Driver/Src/stm32g0xx_hal_exti.c **** 
 364:Drivers/STM32G0xx_HAL_Driver/Src/stm32g0xx_hal_exti.c **** /**
 365:Drivers/STM32G0xx_HAL_Driver/Src/stm32g0xx_hal_exti.c ****   * @brief  Clear whole configuration of a dedicated Exti line.
 366:Drivers/STM32G0xx_HAL_Driver/Src/stm32g0xx_hal_exti.c ****   * @param  hexti Exti handle.
 367:Drivers/STM32G0xx_HAL_Driver/Src/stm32g0xx_hal_exti.c ****   * @retval HAL Status.
 368:Drivers/STM32G0xx_HAL_Driver/Src/stm32g0xx_hal_exti.c ****   */
 369:Drivers/STM32G0xx_HAL_Driver/Src/stm32g0xx_hal_exti.c **** HAL_StatusTypeDef HAL_EXTI_ClearConfigLine(EXTI_HandleTypeDef *hexti)
 370:Drivers/STM32G0xx_HAL_Driver/Src/stm32g0xx_hal_exti.c **** {
 593              		.loc 1 370 1 is_stmt 1 view -0
 594              		.cfi_startproc
 595              		@ args = 0, pretend = 0, frame = 0
 596              		@ frame_needed = 0, uses_anonymous_args = 0
 597              		.loc 1 370 1 is_stmt 0 view .LVU215
 598 0000 F0B5     		push	{r4, r5, r6, r7, lr}
 599              	.LCFI3:
 600              		.cfi_def_cfa_offset 20
 601              		.cfi_offset 4, -20
 602              		.cfi_offset 5, -16
 603              		.cfi_offset 6, -12
ARM GAS  /var/folders/cw/6cmm0b_n7yj10n1wx8hfx52r0000gn/T//ccDi1eKm.s 			page 19


 604              		.cfi_offset 7, -8
 605              		.cfi_offset 14, -4
 606 0002 C646     		mov	lr, r8
 607 0004 00B5     		push	{lr}
 608              	.LCFI4:
 609              		.cfi_def_cfa_offset 24
 610              		.cfi_offset 8, -24
 371:Drivers/STM32G0xx_HAL_Driver/Src/stm32g0xx_hal_exti.c ****   __IO uint32_t *regaddr;
 611              		.loc 1 371 3 is_stmt 1 view .LVU216
 372:Drivers/STM32G0xx_HAL_Driver/Src/stm32g0xx_hal_exti.c ****   uint32_t regval;
 612              		.loc 1 372 3 view .LVU217
 373:Drivers/STM32G0xx_HAL_Driver/Src/stm32g0xx_hal_exti.c ****   uint32_t linepos;
 613              		.loc 1 373 3 view .LVU218
 374:Drivers/STM32G0xx_HAL_Driver/Src/stm32g0xx_hal_exti.c ****   uint32_t maskline;
 614              		.loc 1 374 3 view .LVU219
 375:Drivers/STM32G0xx_HAL_Driver/Src/stm32g0xx_hal_exti.c ****   uint32_t offset;
 615              		.loc 1 375 3 view .LVU220
 376:Drivers/STM32G0xx_HAL_Driver/Src/stm32g0xx_hal_exti.c **** 
 377:Drivers/STM32G0xx_HAL_Driver/Src/stm32g0xx_hal_exti.c ****   /* Check null pointer */
 378:Drivers/STM32G0xx_HAL_Driver/Src/stm32g0xx_hal_exti.c ****   if (hexti == NULL)
 616              		.loc 1 378 3 view .LVU221
 617              		.loc 1 378 6 is_stmt 0 view .LVU222
 618 0006 0028     		cmp	r0, #0
 619 0008 3DD0     		beq	.L35
 379:Drivers/STM32G0xx_HAL_Driver/Src/stm32g0xx_hal_exti.c ****   {
 380:Drivers/STM32G0xx_HAL_Driver/Src/stm32g0xx_hal_exti.c ****     return HAL_ERROR;
 381:Drivers/STM32G0xx_HAL_Driver/Src/stm32g0xx_hal_exti.c ****   }
 382:Drivers/STM32G0xx_HAL_Driver/Src/stm32g0xx_hal_exti.c **** 
 383:Drivers/STM32G0xx_HAL_Driver/Src/stm32g0xx_hal_exti.c ****   /* Check the parameter */
 384:Drivers/STM32G0xx_HAL_Driver/Src/stm32g0xx_hal_exti.c ****   assert_param(IS_EXTI_LINE(hexti->Line));
 620              		.loc 1 384 3 is_stmt 1 view .LVU223
 385:Drivers/STM32G0xx_HAL_Driver/Src/stm32g0xx_hal_exti.c **** 
 386:Drivers/STM32G0xx_HAL_Driver/Src/stm32g0xx_hal_exti.c ****   /* compute line register offset and line mask */
 387:Drivers/STM32G0xx_HAL_Driver/Src/stm32g0xx_hal_exti.c ****   offset = ((hexti->Line & EXTI_REG_MASK) >> EXTI_REG_SHIFT);
 621              		.loc 1 387 3 view .LVU224
 622              		.loc 1 387 19 is_stmt 0 view .LVU225
 623 000a 0668     		ldr	r6, [r0]
 624              		.loc 1 387 43 view .LVU226
 625 000c 330C     		lsrs	r3, r6, #16
 626              		.loc 1 387 10 view .LVU227
 627 000e 0122     		movs	r2, #1
 628 0010 1340     		ands	r3, r2
 629              	.LVL83:
 388:Drivers/STM32G0xx_HAL_Driver/Src/stm32g0xx_hal_exti.c ****   linepos = (hexti->Line & EXTI_PIN_MASK);
 630              		.loc 1 388 3 is_stmt 1 view .LVU228
 631              		.loc 1 388 11 is_stmt 0 view .LVU229
 632 0012 1F24     		movs	r4, #31
 633 0014 3440     		ands	r4, r6
 634              	.LVL84:
 389:Drivers/STM32G0xx_HAL_Driver/Src/stm32g0xx_hal_exti.c ****   maskline = (1uL << linepos);
 635              		.loc 1 389 3 is_stmt 1 view .LVU230
 636              		.loc 1 389 12 is_stmt 0 view .LVU231
 637 0016 A240     		lsls	r2, r2, r4
 638              	.LVL85:
 390:Drivers/STM32G0xx_HAL_Driver/Src/stm32g0xx_hal_exti.c **** 
 391:Drivers/STM32G0xx_HAL_Driver/Src/stm32g0xx_hal_exti.c ****   /* 1] Clear interrupt mode */
 392:Drivers/STM32G0xx_HAL_Driver/Src/stm32g0xx_hal_exti.c ****   regaddr = (&EXTI->IMR1 + (EXTI_MODE_OFFSET * offset));
ARM GAS  /var/folders/cw/6cmm0b_n7yj10n1wx8hfx52r0000gn/T//ccDi1eKm.s 			page 20


 639              		.loc 1 392 3 is_stmt 1 view .LVU232
 640              		.loc 1 392 26 is_stmt 0 view .LVU233
 641 0018 1901     		lsls	r1, r3, #4
 642              		.loc 1 392 11 view .LVU234
 643 001a 1E4D     		ldr	r5, .L39
 644 001c AC46     		mov	ip, r5
 645 001e 8C44     		add	ip, ip, r1
 646              	.LVL86:
 393:Drivers/STM32G0xx_HAL_Driver/Src/stm32g0xx_hal_exti.c ****   regval = (*regaddr & ~maskline);
 647              		.loc 1 393 3 is_stmt 1 view .LVU235
 648              		.loc 1 393 13 is_stmt 0 view .LVU236
 649 0020 6546     		mov	r5, ip
 650 0022 2D68     		ldr	r5, [r5]
 651              		.loc 1 393 24 view .LVU237
 652 0024 D743     		mvns	r7, r2
 653 0026 B846     		mov	r8, r7
 654              		.loc 1 393 10 view .LVU238
 655 0028 9543     		bics	r5, r2
 656              	.LVL87:
 394:Drivers/STM32G0xx_HAL_Driver/Src/stm32g0xx_hal_exti.c ****   *regaddr = regval;
 657              		.loc 1 394 3 is_stmt 1 view .LVU239
 658              		.loc 1 394 12 is_stmt 0 view .LVU240
 659 002a 6746     		mov	r7, ip
 660 002c 3D60     		str	r5, [r7]
 395:Drivers/STM32G0xx_HAL_Driver/Src/stm32g0xx_hal_exti.c **** 
 396:Drivers/STM32G0xx_HAL_Driver/Src/stm32g0xx_hal_exti.c ****   /* 2] Clear event mode */
 397:Drivers/STM32G0xx_HAL_Driver/Src/stm32g0xx_hal_exti.c ****   regaddr = (&EXTI->EMR1 + (EXTI_MODE_OFFSET * offset));
 661              		.loc 1 397 3 is_stmt 1 view .LVU241
 662              		.loc 1 397 11 is_stmt 0 view .LVU242
 663 002e 1A4D     		ldr	r5, .L39+4
 664              	.LVL88:
 665              		.loc 1 397 11 view .LVU243
 666 0030 AC46     		mov	ip, r5
 667              	.LVL89:
 668              		.loc 1 397 11 view .LVU244
 669 0032 6144     		add	r1, r1, ip
 670              	.LVL90:
 398:Drivers/STM32G0xx_HAL_Driver/Src/stm32g0xx_hal_exti.c ****   regval = (*regaddr & ~maskline);
 671              		.loc 1 398 3 is_stmt 1 view .LVU245
 672              		.loc 1 398 13 is_stmt 0 view .LVU246
 673 0034 0D68     		ldr	r5, [r1]
 674              		.loc 1 398 10 view .LVU247
 675 0036 9543     		bics	r5, r2
 676              	.LVL91:
 399:Drivers/STM32G0xx_HAL_Driver/Src/stm32g0xx_hal_exti.c ****   *regaddr = regval;
 677              		.loc 1 399 3 is_stmt 1 view .LVU248
 678              		.loc 1 399 12 is_stmt 0 view .LVU249
 679 0038 0D60     		str	r5, [r1]
 400:Drivers/STM32G0xx_HAL_Driver/Src/stm32g0xx_hal_exti.c **** 
 401:Drivers/STM32G0xx_HAL_Driver/Src/stm32g0xx_hal_exti.c ****   /* 3] Clear triggers in case of configurable lines */
 402:Drivers/STM32G0xx_HAL_Driver/Src/stm32g0xx_hal_exti.c ****   if ((hexti->Line & EXTI_CONFIG) != 0x00u)
 680              		.loc 1 402 3 is_stmt 1 view .LVU250
 681              		.loc 1 402 13 is_stmt 0 view .LVU251
 682 003a 0268     		ldr	r2, [r0]
 683              	.LVL92:
 684              		.loc 1 402 6 view .LVU252
 685 003c 9201     		lsls	r2, r2, #6
ARM GAS  /var/folders/cw/6cmm0b_n7yj10n1wx8hfx52r0000gn/T//ccDi1eKm.s 			page 21


 686 003e 24D5     		bpl	.L36
 403:Drivers/STM32G0xx_HAL_Driver/Src/stm32g0xx_hal_exti.c ****   {
 404:Drivers/STM32G0xx_HAL_Driver/Src/stm32g0xx_hal_exti.c ****     regaddr = (&EXTI->RTSR1 + (EXTI_CONFIG_OFFSET * offset));
 687              		.loc 1 404 5 is_stmt 1 view .LVU253
 688              		.loc 1 404 29 is_stmt 0 view .LVU254
 689 0040 5B01     		lsls	r3, r3, #5
 690              	.LVL93:
 691              		.loc 1 404 13 view .LVU255
 692 0042 164A     		ldr	r2, .L39+8
 693 0044 9918     		adds	r1, r3, r2
 694              	.LVL94:
 405:Drivers/STM32G0xx_HAL_Driver/Src/stm32g0xx_hal_exti.c ****     regval = (*regaddr & ~maskline);
 695              		.loc 1 405 5 is_stmt 1 view .LVU256
 696              		.loc 1 405 15 is_stmt 0 view .LVU257
 697 0046 0A68     		ldr	r2, [r1]
 698              		.loc 1 405 12 view .LVU258
 699 0048 4546     		mov	r5, r8
 700              	.LVL95:
 701              		.loc 1 405 12 view .LVU259
 702 004a 2A40     		ands	r2, r5
 703              	.LVL96:
 406:Drivers/STM32G0xx_HAL_Driver/Src/stm32g0xx_hal_exti.c ****     *regaddr = regval;
 704              		.loc 1 406 5 is_stmt 1 view .LVU260
 705              		.loc 1 406 14 is_stmt 0 view .LVU261
 706 004c 0A60     		str	r2, [r1]
 407:Drivers/STM32G0xx_HAL_Driver/Src/stm32g0xx_hal_exti.c **** 
 408:Drivers/STM32G0xx_HAL_Driver/Src/stm32g0xx_hal_exti.c ****     regaddr = (&EXTI->FTSR1 + (EXTI_CONFIG_OFFSET * offset));
 707              		.loc 1 408 5 is_stmt 1 view .LVU262
 708              		.loc 1 408 13 is_stmt 0 view .LVU263
 709 004e 144A     		ldr	r2, .L39+12
 710              	.LVL97:
 711              		.loc 1 408 13 view .LVU264
 712 0050 9446     		mov	ip, r2
 713 0052 6344     		add	r3, r3, ip
 714              	.LVL98:
 409:Drivers/STM32G0xx_HAL_Driver/Src/stm32g0xx_hal_exti.c ****     regval = (*regaddr & ~maskline);
 715              		.loc 1 409 5 is_stmt 1 view .LVU265
 716              		.loc 1 409 15 is_stmt 0 view .LVU266
 717 0054 1A68     		ldr	r2, [r3]
 718              		.loc 1 409 12 view .LVU267
 719 0056 2A40     		ands	r2, r5
 720              	.LVL99:
 410:Drivers/STM32G0xx_HAL_Driver/Src/stm32g0xx_hal_exti.c ****     *regaddr = regval;
 721              		.loc 1 410 5 is_stmt 1 view .LVU268
 722              		.loc 1 410 14 is_stmt 0 view .LVU269
 723 0058 1A60     		str	r2, [r3]
 411:Drivers/STM32G0xx_HAL_Driver/Src/stm32g0xx_hal_exti.c **** 
 412:Drivers/STM32G0xx_HAL_Driver/Src/stm32g0xx_hal_exti.c ****     /* Get Gpio port selection for gpio lines */
 413:Drivers/STM32G0xx_HAL_Driver/Src/stm32g0xx_hal_exti.c ****     if ((hexti->Line & EXTI_GPIO) == EXTI_GPIO)
 724              		.loc 1 413 5 is_stmt 1 view .LVU270
 725              		.loc 1 413 15 is_stmt 0 view .LVU271
 726 005a 0368     		ldr	r3, [r0]
 727              	.LVL100:
 728              		.loc 1 413 22 view .LVU272
 729 005c C022     		movs	r2, #192
 730              	.LVL101:
 731              		.loc 1 413 22 view .LVU273
ARM GAS  /var/folders/cw/6cmm0b_n7yj10n1wx8hfx52r0000gn/T//ccDi1eKm.s 			page 22


 732 005e D204     		lsls	r2, r2, #19
 733 0060 1340     		ands	r3, r2
 734              		.loc 1 413 8 view .LVU274
 735 0062 9342     		cmp	r3, r2
 736 0064 01D0     		beq	.L38
 414:Drivers/STM32G0xx_HAL_Driver/Src/stm32g0xx_hal_exti.c ****     {
 415:Drivers/STM32G0xx_HAL_Driver/Src/stm32g0xx_hal_exti.c ****       assert_param(IS_EXTI_GPIO_PIN(linepos));
 416:Drivers/STM32G0xx_HAL_Driver/Src/stm32g0xx_hal_exti.c **** 
 417:Drivers/STM32G0xx_HAL_Driver/Src/stm32g0xx_hal_exti.c ****       regval = EXTI->EXTICR[linepos >> 2u];
 418:Drivers/STM32G0xx_HAL_Driver/Src/stm32g0xx_hal_exti.c ****       regval &= ~(EXTI_EXTICR1_EXTI0 << (EXTI_EXTICR1_EXTI1_Pos * (linepos & 0x03u)));
 419:Drivers/STM32G0xx_HAL_Driver/Src/stm32g0xx_hal_exti.c ****       EXTI->EXTICR[linepos >> 2u] = regval;
 420:Drivers/STM32G0xx_HAL_Driver/Src/stm32g0xx_hal_exti.c ****     }
 421:Drivers/STM32G0xx_HAL_Driver/Src/stm32g0xx_hal_exti.c ****   }
 422:Drivers/STM32G0xx_HAL_Driver/Src/stm32g0xx_hal_exti.c **** 
 423:Drivers/STM32G0xx_HAL_Driver/Src/stm32g0xx_hal_exti.c ****   return HAL_OK;
 737              		.loc 1 423 10 view .LVU275
 738 0066 0020     		movs	r0, #0
 739              	.LVL102:
 740              		.loc 1 423 10 view .LVU276
 741 0068 10E0     		b	.L34
 742              	.LVL103:
 743              	.L38:
 415:Drivers/STM32G0xx_HAL_Driver/Src/stm32g0xx_hal_exti.c **** 
 744              		.loc 1 415 7 is_stmt 1 view .LVU277
 417:Drivers/STM32G0xx_HAL_Driver/Src/stm32g0xx_hal_exti.c ****       regval &= ~(EXTI_EXTICR1_EXTI0 << (EXTI_EXTICR1_EXTI1_Pos * (linepos & 0x03u)));
 745              		.loc 1 417 7 view .LVU278
 417:Drivers/STM32G0xx_HAL_Driver/Src/stm32g0xx_hal_exti.c ****       regval &= ~(EXTI_EXTICR1_EXTI0 << (EXTI_EXTICR1_EXTI1_Pos * (linepos & 0x03u)));
 746              		.loc 1 417 37 is_stmt 0 view .LVU279
 747 006a A408     		lsrs	r4, r4, #2
 748              	.LVL104:
 417:Drivers/STM32G0xx_HAL_Driver/Src/stm32g0xx_hal_exti.c ****       regval &= ~(EXTI_EXTICR1_EXTI0 << (EXTI_EXTICR1_EXTI1_Pos * (linepos & 0x03u)));
 749              		.loc 1 417 14 view .LVU280
 750 006c 0B48     		ldr	r0, .L39+8
 751              	.LVL105:
 417:Drivers/STM32G0xx_HAL_Driver/Src/stm32g0xx_hal_exti.c ****       regval &= ~(EXTI_EXTICR1_EXTI0 << (EXTI_EXTICR1_EXTI1_Pos * (linepos & 0x03u)));
 752              		.loc 1 417 14 view .LVU281
 753 006e 1834     		adds	r4, r4, #24
 754 0070 A400     		lsls	r4, r4, #2
 755 0072 2258     		ldr	r2, [r4, r0]
 756              	.LVL106:
 418:Drivers/STM32G0xx_HAL_Driver/Src/stm32g0xx_hal_exti.c ****       EXTI->EXTICR[linepos >> 2u] = regval;
 757              		.loc 1 418 7 is_stmt 1 view .LVU282
 418:Drivers/STM32G0xx_HAL_Driver/Src/stm32g0xx_hal_exti.c ****       EXTI->EXTICR[linepos >> 2u] = regval;
 758              		.loc 1 418 76 is_stmt 0 view .LVU283
 759 0074 0323     		movs	r3, #3
 760 0076 3340     		ands	r3, r6
 418:Drivers/STM32G0xx_HAL_Driver/Src/stm32g0xx_hal_exti.c ****       EXTI->EXTICR[linepos >> 2u] = regval;
 761              		.loc 1 418 65 view .LVU284
 762 0078 DB00     		lsls	r3, r3, #3
 418:Drivers/STM32G0xx_HAL_Driver/Src/stm32g0xx_hal_exti.c ****       EXTI->EXTICR[linepos >> 2u] = regval;
 763              		.loc 1 418 38 view .LVU285
 764 007a 0721     		movs	r1, #7
 765              	.LVL107:
 418:Drivers/STM32G0xx_HAL_Driver/Src/stm32g0xx_hal_exti.c ****       EXTI->EXTICR[linepos >> 2u] = regval;
 766              		.loc 1 418 38 view .LVU286
 767 007c 9940     		lsls	r1, r1, r3
 418:Drivers/STM32G0xx_HAL_Driver/Src/stm32g0xx_hal_exti.c ****       EXTI->EXTICR[linepos >> 2u] = regval;
ARM GAS  /var/folders/cw/6cmm0b_n7yj10n1wx8hfx52r0000gn/T//ccDi1eKm.s 			page 23


 768              		.loc 1 418 14 view .LVU287
 769 007e 8A43     		bics	r2, r1
 770              	.LVL108:
 419:Drivers/STM32G0xx_HAL_Driver/Src/stm32g0xx_hal_exti.c ****     }
 771              		.loc 1 419 7 is_stmt 1 view .LVU288
 419:Drivers/STM32G0xx_HAL_Driver/Src/stm32g0xx_hal_exti.c ****     }
 772              		.loc 1 419 35 is_stmt 0 view .LVU289
 773 0080 2250     		str	r2, [r4, r0]
 774              		.loc 1 423 10 view .LVU290
 775 0082 0020     		movs	r0, #0
 776 0084 02E0     		b	.L34
 777              	.LVL109:
 778              	.L35:
 380:Drivers/STM32G0xx_HAL_Driver/Src/stm32g0xx_hal_exti.c ****   }
 779              		.loc 1 380 12 view .LVU291
 780 0086 0120     		movs	r0, #1
 781              	.LVL110:
 380:Drivers/STM32G0xx_HAL_Driver/Src/stm32g0xx_hal_exti.c ****   }
 782              		.loc 1 380 12 view .LVU292
 783 0088 00E0     		b	.L34
 784              	.LVL111:
 785              	.L36:
 786              		.loc 1 423 10 view .LVU293
 787 008a 0020     		movs	r0, #0
 788              	.LVL112:
 789              	.L34:
 424:Drivers/STM32G0xx_HAL_Driver/Src/stm32g0xx_hal_exti.c **** }
 790              		.loc 1 424 1 view .LVU294
 791              		@ sp needed
 792 008c 80BC     		pop	{r7}
 793 008e B846     		mov	r8, r7
 794 0090 F0BD     		pop	{r4, r5, r6, r7, pc}
 795              	.L40:
 796 0092 C046     		.align	2
 797              	.L39:
 798 0094 80180240 		.word	1073879168
 799 0098 84180240 		.word	1073879172
 800 009c 00180240 		.word	1073879040
 801 00a0 04180240 		.word	1073879044
 802              		.cfi_endproc
 803              	.LFE160:
 805              		.section	.text.HAL_EXTI_RegisterCallback,"ax",%progbits
 806              		.align	1
 807              		.global	HAL_EXTI_RegisterCallback
 808              		.syntax unified
 809              		.code	16
 810              		.thumb_func
 812              	HAL_EXTI_RegisterCallback:
 813              	.LVL113:
 814              	.LFB161:
 425:Drivers/STM32G0xx_HAL_Driver/Src/stm32g0xx_hal_exti.c **** 
 426:Drivers/STM32G0xx_HAL_Driver/Src/stm32g0xx_hal_exti.c **** 
 427:Drivers/STM32G0xx_HAL_Driver/Src/stm32g0xx_hal_exti.c **** /**
 428:Drivers/STM32G0xx_HAL_Driver/Src/stm32g0xx_hal_exti.c ****   * @brief  Register callback for a dedicaated Exti line.
 429:Drivers/STM32G0xx_HAL_Driver/Src/stm32g0xx_hal_exti.c ****   * @param  hexti Exti handle.
 430:Drivers/STM32G0xx_HAL_Driver/Src/stm32g0xx_hal_exti.c ****   * @param  CallbackID User callback identifier.
 431:Drivers/STM32G0xx_HAL_Driver/Src/stm32g0xx_hal_exti.c ****   *         This parameter can be one of @arg @ref EXTI_CallbackIDTypeDef values.
ARM GAS  /var/folders/cw/6cmm0b_n7yj10n1wx8hfx52r0000gn/T//ccDi1eKm.s 			page 24


 432:Drivers/STM32G0xx_HAL_Driver/Src/stm32g0xx_hal_exti.c ****   * @param  pPendingCbfn function pointer to be stored as callback.
 433:Drivers/STM32G0xx_HAL_Driver/Src/stm32g0xx_hal_exti.c ****   * @retval HAL Status.
 434:Drivers/STM32G0xx_HAL_Driver/Src/stm32g0xx_hal_exti.c ****   */
 435:Drivers/STM32G0xx_HAL_Driver/Src/stm32g0xx_hal_exti.c **** HAL_StatusTypeDef HAL_EXTI_RegisterCallback(EXTI_HandleTypeDef *hexti, EXTI_CallbackIDTypeDef Callb
 436:Drivers/STM32G0xx_HAL_Driver/Src/stm32g0xx_hal_exti.c **** {
 815              		.loc 1 436 1 is_stmt 1 view -0
 816              		.cfi_startproc
 817              		@ args = 0, pretend = 0, frame = 0
 818              		@ frame_needed = 0, uses_anonymous_args = 0
 819              		@ link register save eliminated.
 437:Drivers/STM32G0xx_HAL_Driver/Src/stm32g0xx_hal_exti.c ****   HAL_StatusTypeDef status = HAL_OK;
 820              		.loc 1 437 3 view .LVU296
 438:Drivers/STM32G0xx_HAL_Driver/Src/stm32g0xx_hal_exti.c **** 
 439:Drivers/STM32G0xx_HAL_Driver/Src/stm32g0xx_hal_exti.c ****   switch (CallbackID)
 821              		.loc 1 439 3 view .LVU297
 822 0000 0129     		cmp	r1, #1
 823 0002 09D0     		beq	.L42
 824 0004 0229     		cmp	r1, #2
 825 0006 0AD0     		beq	.L43
 826 0008 0029     		cmp	r1, #0
 827 000a 01D0     		beq	.L46
 828 000c 0120     		movs	r0, #1
 829              	.LVL114:
 830              	.L44:
 440:Drivers/STM32G0xx_HAL_Driver/Src/stm32g0xx_hal_exti.c ****   {
 441:Drivers/STM32G0xx_HAL_Driver/Src/stm32g0xx_hal_exti.c ****     case  HAL_EXTI_COMMON_CB_ID:
 442:Drivers/STM32G0xx_HAL_Driver/Src/stm32g0xx_hal_exti.c ****       hexti->RisingCallback = pPendingCbfn;
 443:Drivers/STM32G0xx_HAL_Driver/Src/stm32g0xx_hal_exti.c ****       hexti->FallingCallback = pPendingCbfn;
 444:Drivers/STM32G0xx_HAL_Driver/Src/stm32g0xx_hal_exti.c ****       break;
 445:Drivers/STM32G0xx_HAL_Driver/Src/stm32g0xx_hal_exti.c **** 
 446:Drivers/STM32G0xx_HAL_Driver/Src/stm32g0xx_hal_exti.c ****     case  HAL_EXTI_RISING_CB_ID:
 447:Drivers/STM32G0xx_HAL_Driver/Src/stm32g0xx_hal_exti.c ****       hexti->RisingCallback = pPendingCbfn;
 448:Drivers/STM32G0xx_HAL_Driver/Src/stm32g0xx_hal_exti.c ****       break;
 449:Drivers/STM32G0xx_HAL_Driver/Src/stm32g0xx_hal_exti.c **** 
 450:Drivers/STM32G0xx_HAL_Driver/Src/stm32g0xx_hal_exti.c ****     case  HAL_EXTI_FALLING_CB_ID:
 451:Drivers/STM32G0xx_HAL_Driver/Src/stm32g0xx_hal_exti.c ****       hexti->FallingCallback = pPendingCbfn;
 452:Drivers/STM32G0xx_HAL_Driver/Src/stm32g0xx_hal_exti.c ****       break;
 453:Drivers/STM32G0xx_HAL_Driver/Src/stm32g0xx_hal_exti.c **** 
 454:Drivers/STM32G0xx_HAL_Driver/Src/stm32g0xx_hal_exti.c ****     default:
 455:Drivers/STM32G0xx_HAL_Driver/Src/stm32g0xx_hal_exti.c ****       status = HAL_ERROR;
 456:Drivers/STM32G0xx_HAL_Driver/Src/stm32g0xx_hal_exti.c ****       break;
 457:Drivers/STM32G0xx_HAL_Driver/Src/stm32g0xx_hal_exti.c ****   }
 458:Drivers/STM32G0xx_HAL_Driver/Src/stm32g0xx_hal_exti.c **** 
 459:Drivers/STM32G0xx_HAL_Driver/Src/stm32g0xx_hal_exti.c ****   return status;
 831              		.loc 1 459 3 view .LVU298
 460:Drivers/STM32G0xx_HAL_Driver/Src/stm32g0xx_hal_exti.c **** }
 832              		.loc 1 460 1 is_stmt 0 view .LVU299
 833              		@ sp needed
 834 000e 7047     		bx	lr
 835              	.LVL115:
 836              	.L46:
 442:Drivers/STM32G0xx_HAL_Driver/Src/stm32g0xx_hal_exti.c ****       hexti->FallingCallback = pPendingCbfn;
 837              		.loc 1 442 7 is_stmt 1 view .LVU300
 442:Drivers/STM32G0xx_HAL_Driver/Src/stm32g0xx_hal_exti.c ****       hexti->FallingCallback = pPendingCbfn;
 838              		.loc 1 442 29 is_stmt 0 view .LVU301
 839 0010 4260     		str	r2, [r0, #4]
 443:Drivers/STM32G0xx_HAL_Driver/Src/stm32g0xx_hal_exti.c ****       break;
ARM GAS  /var/folders/cw/6cmm0b_n7yj10n1wx8hfx52r0000gn/T//ccDi1eKm.s 			page 25


 840              		.loc 1 443 7 is_stmt 1 view .LVU302
 443:Drivers/STM32G0xx_HAL_Driver/Src/stm32g0xx_hal_exti.c ****       break;
 841              		.loc 1 443 30 is_stmt 0 view .LVU303
 842 0012 8260     		str	r2, [r0, #8]
 444:Drivers/STM32G0xx_HAL_Driver/Src/stm32g0xx_hal_exti.c **** 
 843              		.loc 1 444 7 is_stmt 1 view .LVU304
 437:Drivers/STM32G0xx_HAL_Driver/Src/stm32g0xx_hal_exti.c **** 
 844              		.loc 1 437 21 is_stmt 0 view .LVU305
 845 0014 0800     		movs	r0, r1
 846              	.LVL116:
 444:Drivers/STM32G0xx_HAL_Driver/Src/stm32g0xx_hal_exti.c **** 
 847              		.loc 1 444 7 view .LVU306
 848 0016 FAE7     		b	.L44
 849              	.LVL117:
 850              	.L42:
 447:Drivers/STM32G0xx_HAL_Driver/Src/stm32g0xx_hal_exti.c ****       break;
 851              		.loc 1 447 7 is_stmt 1 view .LVU307
 447:Drivers/STM32G0xx_HAL_Driver/Src/stm32g0xx_hal_exti.c ****       break;
 852              		.loc 1 447 29 is_stmt 0 view .LVU308
 853 0018 4260     		str	r2, [r0, #4]
 448:Drivers/STM32G0xx_HAL_Driver/Src/stm32g0xx_hal_exti.c **** 
 854              		.loc 1 448 7 is_stmt 1 view .LVU309
 437:Drivers/STM32G0xx_HAL_Driver/Src/stm32g0xx_hal_exti.c **** 
 855              		.loc 1 437 21 is_stmt 0 view .LVU310
 856 001a 0020     		movs	r0, #0
 857              	.LVL118:
 448:Drivers/STM32G0xx_HAL_Driver/Src/stm32g0xx_hal_exti.c **** 
 858              		.loc 1 448 7 view .LVU311
 859 001c F7E7     		b	.L44
 860              	.LVL119:
 861              	.L43:
 451:Drivers/STM32G0xx_HAL_Driver/Src/stm32g0xx_hal_exti.c ****       break;
 862              		.loc 1 451 7 is_stmt 1 view .LVU312
 451:Drivers/STM32G0xx_HAL_Driver/Src/stm32g0xx_hal_exti.c ****       break;
 863              		.loc 1 451 30 is_stmt 0 view .LVU313
 864 001e 8260     		str	r2, [r0, #8]
 452:Drivers/STM32G0xx_HAL_Driver/Src/stm32g0xx_hal_exti.c **** 
 865              		.loc 1 452 7 is_stmt 1 view .LVU314
 437:Drivers/STM32G0xx_HAL_Driver/Src/stm32g0xx_hal_exti.c **** 
 866              		.loc 1 437 21 is_stmt 0 view .LVU315
 867 0020 0020     		movs	r0, #0
 868              	.LVL120:
 452:Drivers/STM32G0xx_HAL_Driver/Src/stm32g0xx_hal_exti.c **** 
 869              		.loc 1 452 7 view .LVU316
 870 0022 F4E7     		b	.L44
 871              		.cfi_endproc
 872              	.LFE161:
 874              		.section	.text.HAL_EXTI_GetHandle,"ax",%progbits
 875              		.align	1
 876              		.global	HAL_EXTI_GetHandle
 877              		.syntax unified
 878              		.code	16
 879              		.thumb_func
 881              	HAL_EXTI_GetHandle:
 882              	.LVL121:
 883              	.LFB162:
 461:Drivers/STM32G0xx_HAL_Driver/Src/stm32g0xx_hal_exti.c **** 
ARM GAS  /var/folders/cw/6cmm0b_n7yj10n1wx8hfx52r0000gn/T//ccDi1eKm.s 			page 26


 462:Drivers/STM32G0xx_HAL_Driver/Src/stm32g0xx_hal_exti.c **** 
 463:Drivers/STM32G0xx_HAL_Driver/Src/stm32g0xx_hal_exti.c **** /**
 464:Drivers/STM32G0xx_HAL_Driver/Src/stm32g0xx_hal_exti.c ****   * @brief  Store line number as handle private field.
 465:Drivers/STM32G0xx_HAL_Driver/Src/stm32g0xx_hal_exti.c ****   * @param  hexti Exti handle.
 466:Drivers/STM32G0xx_HAL_Driver/Src/stm32g0xx_hal_exti.c ****   * @param  ExtiLine Exti line number.
 467:Drivers/STM32G0xx_HAL_Driver/Src/stm32g0xx_hal_exti.c ****   *         This parameter can be from 0 to @ref EXTI_LINE_NB.
 468:Drivers/STM32G0xx_HAL_Driver/Src/stm32g0xx_hal_exti.c ****   * @retval HAL Status.
 469:Drivers/STM32G0xx_HAL_Driver/Src/stm32g0xx_hal_exti.c ****   */
 470:Drivers/STM32G0xx_HAL_Driver/Src/stm32g0xx_hal_exti.c **** HAL_StatusTypeDef HAL_EXTI_GetHandle(EXTI_HandleTypeDef *hexti, uint32_t ExtiLine)
 471:Drivers/STM32G0xx_HAL_Driver/Src/stm32g0xx_hal_exti.c **** {
 884              		.loc 1 471 1 is_stmt 1 view -0
 885              		.cfi_startproc
 886              		@ args = 0, pretend = 0, frame = 0
 887              		@ frame_needed = 0, uses_anonymous_args = 0
 888              		@ link register save eliminated.
 472:Drivers/STM32G0xx_HAL_Driver/Src/stm32g0xx_hal_exti.c ****   /* Check the parameters */
 473:Drivers/STM32G0xx_HAL_Driver/Src/stm32g0xx_hal_exti.c ****   assert_param(IS_EXTI_LINE(ExtiLine));
 889              		.loc 1 473 3 view .LVU318
 474:Drivers/STM32G0xx_HAL_Driver/Src/stm32g0xx_hal_exti.c **** 
 475:Drivers/STM32G0xx_HAL_Driver/Src/stm32g0xx_hal_exti.c ****   /* Check null pointer */
 476:Drivers/STM32G0xx_HAL_Driver/Src/stm32g0xx_hal_exti.c ****   if (hexti == NULL)
 890              		.loc 1 476 3 view .LVU319
 891              		.loc 1 476 6 is_stmt 0 view .LVU320
 892 0000 0028     		cmp	r0, #0
 893 0002 02D0     		beq	.L49
 477:Drivers/STM32G0xx_HAL_Driver/Src/stm32g0xx_hal_exti.c ****   {
 478:Drivers/STM32G0xx_HAL_Driver/Src/stm32g0xx_hal_exti.c ****     return HAL_ERROR;
 479:Drivers/STM32G0xx_HAL_Driver/Src/stm32g0xx_hal_exti.c ****   }
 480:Drivers/STM32G0xx_HAL_Driver/Src/stm32g0xx_hal_exti.c ****   else
 481:Drivers/STM32G0xx_HAL_Driver/Src/stm32g0xx_hal_exti.c ****   {
 482:Drivers/STM32G0xx_HAL_Driver/Src/stm32g0xx_hal_exti.c ****     /* Store line number as handle private field */
 483:Drivers/STM32G0xx_HAL_Driver/Src/stm32g0xx_hal_exti.c ****     hexti->Line = ExtiLine;
 894              		.loc 1 483 5 is_stmt 1 view .LVU321
 895              		.loc 1 483 17 is_stmt 0 view .LVU322
 896 0004 0160     		str	r1, [r0]
 484:Drivers/STM32G0xx_HAL_Driver/Src/stm32g0xx_hal_exti.c **** 
 485:Drivers/STM32G0xx_HAL_Driver/Src/stm32g0xx_hal_exti.c ****     return HAL_OK;
 897              		.loc 1 485 5 is_stmt 1 view .LVU323
 898              		.loc 1 485 12 is_stmt 0 view .LVU324
 899 0006 0020     		movs	r0, #0
 900              	.LVL122:
 901              	.L48:
 486:Drivers/STM32G0xx_HAL_Driver/Src/stm32g0xx_hal_exti.c ****   }
 487:Drivers/STM32G0xx_HAL_Driver/Src/stm32g0xx_hal_exti.c **** }
 902              		.loc 1 487 1 view .LVU325
 903              		@ sp needed
 904 0008 7047     		bx	lr
 905              	.LVL123:
 906              	.L49:
 478:Drivers/STM32G0xx_HAL_Driver/Src/stm32g0xx_hal_exti.c ****   }
 907              		.loc 1 478 12 view .LVU326
 908 000a 0120     		movs	r0, #1
 909              	.LVL124:
 478:Drivers/STM32G0xx_HAL_Driver/Src/stm32g0xx_hal_exti.c ****   }
 910              		.loc 1 478 12 view .LVU327
 911 000c FCE7     		b	.L48
 912              		.cfi_endproc
ARM GAS  /var/folders/cw/6cmm0b_n7yj10n1wx8hfx52r0000gn/T//ccDi1eKm.s 			page 27


 913              	.LFE162:
 915              		.section	.text.HAL_EXTI_IRQHandler,"ax",%progbits
 916              		.align	1
 917              		.global	HAL_EXTI_IRQHandler
 918              		.syntax unified
 919              		.code	16
 920              		.thumb_func
 922              	HAL_EXTI_IRQHandler:
 923              	.LVL125:
 924              	.LFB163:
 488:Drivers/STM32G0xx_HAL_Driver/Src/stm32g0xx_hal_exti.c **** 
 489:Drivers/STM32G0xx_HAL_Driver/Src/stm32g0xx_hal_exti.c **** 
 490:Drivers/STM32G0xx_HAL_Driver/Src/stm32g0xx_hal_exti.c **** /**
 491:Drivers/STM32G0xx_HAL_Driver/Src/stm32g0xx_hal_exti.c ****   * @}
 492:Drivers/STM32G0xx_HAL_Driver/Src/stm32g0xx_hal_exti.c ****   */
 493:Drivers/STM32G0xx_HAL_Driver/Src/stm32g0xx_hal_exti.c **** 
 494:Drivers/STM32G0xx_HAL_Driver/Src/stm32g0xx_hal_exti.c **** /** @addtogroup EXTI_Exported_Functions_Group2
 495:Drivers/STM32G0xx_HAL_Driver/Src/stm32g0xx_hal_exti.c ****  *  @brief EXTI IO functions.
 496:Drivers/STM32G0xx_HAL_Driver/Src/stm32g0xx_hal_exti.c ****  *
 497:Drivers/STM32G0xx_HAL_Driver/Src/stm32g0xx_hal_exti.c **** @verbatim
 498:Drivers/STM32G0xx_HAL_Driver/Src/stm32g0xx_hal_exti.c ****  ===============================================================================
 499:Drivers/STM32G0xx_HAL_Driver/Src/stm32g0xx_hal_exti.c ****                        ##### IO operation functions #####
 500:Drivers/STM32G0xx_HAL_Driver/Src/stm32g0xx_hal_exti.c ****  ===============================================================================
 501:Drivers/STM32G0xx_HAL_Driver/Src/stm32g0xx_hal_exti.c **** 
 502:Drivers/STM32G0xx_HAL_Driver/Src/stm32g0xx_hal_exti.c **** @endverbatim
 503:Drivers/STM32G0xx_HAL_Driver/Src/stm32g0xx_hal_exti.c ****   * @{
 504:Drivers/STM32G0xx_HAL_Driver/Src/stm32g0xx_hal_exti.c ****   */
 505:Drivers/STM32G0xx_HAL_Driver/Src/stm32g0xx_hal_exti.c **** 
 506:Drivers/STM32G0xx_HAL_Driver/Src/stm32g0xx_hal_exti.c **** /**
 507:Drivers/STM32G0xx_HAL_Driver/Src/stm32g0xx_hal_exti.c ****   * @brief  Handle EXTI interrupt request.
 508:Drivers/STM32G0xx_HAL_Driver/Src/stm32g0xx_hal_exti.c ****   * @param  hexti Exti handle.
 509:Drivers/STM32G0xx_HAL_Driver/Src/stm32g0xx_hal_exti.c ****   * @retval none.
 510:Drivers/STM32G0xx_HAL_Driver/Src/stm32g0xx_hal_exti.c ****   */
 511:Drivers/STM32G0xx_HAL_Driver/Src/stm32g0xx_hal_exti.c **** void HAL_EXTI_IRQHandler(EXTI_HandleTypeDef *hexti)
 512:Drivers/STM32G0xx_HAL_Driver/Src/stm32g0xx_hal_exti.c **** {
 925              		.loc 1 512 1 is_stmt 1 view -0
 926              		.cfi_startproc
 927              		@ args = 0, pretend = 0, frame = 0
 928              		@ frame_needed = 0, uses_anonymous_args = 0
 929              		.loc 1 512 1 is_stmt 0 view .LVU329
 930 0000 70B5     		push	{r4, r5, r6, lr}
 931              	.LCFI5:
 932              		.cfi_def_cfa_offset 16
 933              		.cfi_offset 4, -16
 934              		.cfi_offset 5, -12
 935              		.cfi_offset 6, -8
 936              		.cfi_offset 14, -4
 937 0002 0600     		movs	r6, r0
 513:Drivers/STM32G0xx_HAL_Driver/Src/stm32g0xx_hal_exti.c ****   __IO uint32_t *regaddr;
 938              		.loc 1 513 3 is_stmt 1 view .LVU330
 514:Drivers/STM32G0xx_HAL_Driver/Src/stm32g0xx_hal_exti.c ****   uint32_t regval;
 939              		.loc 1 514 3 view .LVU331
 515:Drivers/STM32G0xx_HAL_Driver/Src/stm32g0xx_hal_exti.c ****   uint32_t maskline;
 940              		.loc 1 515 3 view .LVU332
 516:Drivers/STM32G0xx_HAL_Driver/Src/stm32g0xx_hal_exti.c ****   uint32_t offset;
 941              		.loc 1 516 3 view .LVU333
 517:Drivers/STM32G0xx_HAL_Driver/Src/stm32g0xx_hal_exti.c **** 
ARM GAS  /var/folders/cw/6cmm0b_n7yj10n1wx8hfx52r0000gn/T//ccDi1eKm.s 			page 28


 518:Drivers/STM32G0xx_HAL_Driver/Src/stm32g0xx_hal_exti.c ****   /* Compute line register offset and line mask */
 519:Drivers/STM32G0xx_HAL_Driver/Src/stm32g0xx_hal_exti.c ****   offset = ((hexti->Line & EXTI_REG_MASK) >> EXTI_REG_SHIFT);
 942              		.loc 1 519 3 view .LVU334
 943              		.loc 1 519 19 is_stmt 0 view .LVU335
 944 0004 0268     		ldr	r2, [r0]
 945              		.loc 1 519 43 view .LVU336
 946 0006 140C     		lsrs	r4, r2, #16
 947              		.loc 1 519 10 view .LVU337
 948 0008 0125     		movs	r5, #1
 949 000a 2C40     		ands	r4, r5
 950              	.LVL126:
 520:Drivers/STM32G0xx_HAL_Driver/Src/stm32g0xx_hal_exti.c ****   maskline = (1uL << (hexti->Line & EXTI_PIN_MASK));
 951              		.loc 1 520 3 is_stmt 1 view .LVU338
 952              		.loc 1 520 35 is_stmt 0 view .LVU339
 953 000c 1F23     		movs	r3, #31
 954 000e 1340     		ands	r3, r2
 955              		.loc 1 520 12 view .LVU340
 956 0010 9D40     		lsls	r5, r5, r3
 957              	.LVL127:
 521:Drivers/STM32G0xx_HAL_Driver/Src/stm32g0xx_hal_exti.c **** 
 522:Drivers/STM32G0xx_HAL_Driver/Src/stm32g0xx_hal_exti.c ****   /* Get rising edge pending bit  */
 523:Drivers/STM32G0xx_HAL_Driver/Src/stm32g0xx_hal_exti.c ****   regaddr = (&EXTI->RPR1 + (EXTI_CONFIG_OFFSET * offset));
 958              		.loc 1 523 3 is_stmt 1 view .LVU341
 959              		.loc 1 523 26 is_stmt 0 view .LVU342
 960 0012 6401     		lsls	r4, r4, #5
 961              	.LVL128:
 962              		.loc 1 523 11 view .LVU343
 963 0014 0A4B     		ldr	r3, .L53
 964 0016 E318     		adds	r3, r4, r3
 965              	.LVL129:
 524:Drivers/STM32G0xx_HAL_Driver/Src/stm32g0xx_hal_exti.c ****   regval = (*regaddr & maskline);
 966              		.loc 1 524 3 is_stmt 1 view .LVU344
 967              		.loc 1 524 13 is_stmt 0 view .LVU345
 968 0018 1A68     		ldr	r2, [r3]
 969              	.LVL130:
 525:Drivers/STM32G0xx_HAL_Driver/Src/stm32g0xx_hal_exti.c **** 
 526:Drivers/STM32G0xx_HAL_Driver/Src/stm32g0xx_hal_exti.c ****   if (regval != 0x00u)
 970              		.loc 1 526 3 is_stmt 1 view .LVU346
 971              		.loc 1 526 6 is_stmt 0 view .LVU347
 972 001a 1542     		tst	r5, r2
 973 001c 04D0     		beq	.L51
 527:Drivers/STM32G0xx_HAL_Driver/Src/stm32g0xx_hal_exti.c ****   {
 528:Drivers/STM32G0xx_HAL_Driver/Src/stm32g0xx_hal_exti.c ****     /* Clear pending bit */
 529:Drivers/STM32G0xx_HAL_Driver/Src/stm32g0xx_hal_exti.c ****     *regaddr = maskline;
 974              		.loc 1 529 5 is_stmt 1 view .LVU348
 975              		.loc 1 529 14 is_stmt 0 view .LVU349
 976 001e 1D60     		str	r5, [r3]
 977              	.LVL131:
 530:Drivers/STM32G0xx_HAL_Driver/Src/stm32g0xx_hal_exti.c **** 
 531:Drivers/STM32G0xx_HAL_Driver/Src/stm32g0xx_hal_exti.c ****     /* Call rising callback */
 532:Drivers/STM32G0xx_HAL_Driver/Src/stm32g0xx_hal_exti.c ****     if (hexti->RisingCallback != NULL)
 978              		.loc 1 532 5 is_stmt 1 view .LVU350
 979              		.loc 1 532 14 is_stmt 0 view .LVU351
 980 0020 4368     		ldr	r3, [r0, #4]
 981              	.LVL132:
 982              		.loc 1 532 8 view .LVU352
 983 0022 002B     		cmp	r3, #0
ARM GAS  /var/folders/cw/6cmm0b_n7yj10n1wx8hfx52r0000gn/T//ccDi1eKm.s 			page 29


 984 0024 00D0     		beq	.L51
 533:Drivers/STM32G0xx_HAL_Driver/Src/stm32g0xx_hal_exti.c ****     {
 534:Drivers/STM32G0xx_HAL_Driver/Src/stm32g0xx_hal_exti.c ****       hexti->RisingCallback();
 985              		.loc 1 534 7 is_stmt 1 view .LVU353
 986 0026 9847     		blx	r3
 987              	.LVL133:
 988              	.L51:
 535:Drivers/STM32G0xx_HAL_Driver/Src/stm32g0xx_hal_exti.c ****     }
 536:Drivers/STM32G0xx_HAL_Driver/Src/stm32g0xx_hal_exti.c ****   }
 537:Drivers/STM32G0xx_HAL_Driver/Src/stm32g0xx_hal_exti.c **** 
 538:Drivers/STM32G0xx_HAL_Driver/Src/stm32g0xx_hal_exti.c ****   /* Get falling edge pending bit  */
 539:Drivers/STM32G0xx_HAL_Driver/Src/stm32g0xx_hal_exti.c ****   regaddr = (&EXTI->FPR1 + (EXTI_CONFIG_OFFSET * offset));
 989              		.loc 1 539 3 view .LVU354
 990              		.loc 1 539 11 is_stmt 0 view .LVU355
 991 0028 064B     		ldr	r3, .L53+4
 992 002a 9C46     		mov	ip, r3
 993 002c 6444     		add	r4, r4, ip
 994              	.LVL134:
 540:Drivers/STM32G0xx_HAL_Driver/Src/stm32g0xx_hal_exti.c ****   regval = (*regaddr & maskline);
 995              		.loc 1 540 3 is_stmt 1 view .LVU356
 996              		.loc 1 540 13 is_stmt 0 view .LVU357
 997 002e 2368     		ldr	r3, [r4]
 998              	.LVL135:
 541:Drivers/STM32G0xx_HAL_Driver/Src/stm32g0xx_hal_exti.c **** 
 542:Drivers/STM32G0xx_HAL_Driver/Src/stm32g0xx_hal_exti.c ****   if (regval != 0x00u)
 999              		.loc 1 542 3 is_stmt 1 view .LVU358
 1000              		.loc 1 542 6 is_stmt 0 view .LVU359
 1001 0030 1D42     		tst	r5, r3
 1002 0032 04D0     		beq	.L50
 543:Drivers/STM32G0xx_HAL_Driver/Src/stm32g0xx_hal_exti.c ****   {
 544:Drivers/STM32G0xx_HAL_Driver/Src/stm32g0xx_hal_exti.c ****     /* Clear pending bit */
 545:Drivers/STM32G0xx_HAL_Driver/Src/stm32g0xx_hal_exti.c ****     *regaddr = maskline;
 1003              		.loc 1 545 5 is_stmt 1 view .LVU360
 1004              		.loc 1 545 14 is_stmt 0 view .LVU361
 1005 0034 2560     		str	r5, [r4]
 546:Drivers/STM32G0xx_HAL_Driver/Src/stm32g0xx_hal_exti.c **** 
 547:Drivers/STM32G0xx_HAL_Driver/Src/stm32g0xx_hal_exti.c ****     /* Call rising callback */
 548:Drivers/STM32G0xx_HAL_Driver/Src/stm32g0xx_hal_exti.c ****     if (hexti->FallingCallback != NULL)
 1006              		.loc 1 548 5 is_stmt 1 view .LVU362
 1007              		.loc 1 548 14 is_stmt 0 view .LVU363
 1008 0036 B368     		ldr	r3, [r6, #8]
 1009              	.LVL136:
 1010              		.loc 1 548 8 view .LVU364
 1011 0038 002B     		cmp	r3, #0
 1012 003a 00D0     		beq	.L50
 549:Drivers/STM32G0xx_HAL_Driver/Src/stm32g0xx_hal_exti.c ****     {
 550:Drivers/STM32G0xx_HAL_Driver/Src/stm32g0xx_hal_exti.c ****       hexti->FallingCallback();
 1013              		.loc 1 550 7 is_stmt 1 view .LVU365
 1014 003c 9847     		blx	r3
 1015              	.LVL137:
 1016              	.L50:
 551:Drivers/STM32G0xx_HAL_Driver/Src/stm32g0xx_hal_exti.c ****     }
 552:Drivers/STM32G0xx_HAL_Driver/Src/stm32g0xx_hal_exti.c ****   }
 553:Drivers/STM32G0xx_HAL_Driver/Src/stm32g0xx_hal_exti.c **** }
 1017              		.loc 1 553 1 is_stmt 0 view .LVU366
 1018              		@ sp needed
 1019              	.LVL138:
ARM GAS  /var/folders/cw/6cmm0b_n7yj10n1wx8hfx52r0000gn/T//ccDi1eKm.s 			page 30


 1020              	.LVL139:
 1021              	.LVL140:
 1022              		.loc 1 553 1 view .LVU367
 1023 003e 70BD     		pop	{r4, r5, r6, pc}
 1024              	.L54:
 1025              		.align	2
 1026              	.L53:
 1027 0040 0C180240 		.word	1073879052
 1028 0044 10180240 		.word	1073879056
 1029              		.cfi_endproc
 1030              	.LFE163:
 1032              		.section	.text.HAL_EXTI_GetPending,"ax",%progbits
 1033              		.align	1
 1034              		.global	HAL_EXTI_GetPending
 1035              		.syntax unified
 1036              		.code	16
 1037              		.thumb_func
 1039              	HAL_EXTI_GetPending:
 1040              	.LVL141:
 1041              	.LFB164:
 554:Drivers/STM32G0xx_HAL_Driver/Src/stm32g0xx_hal_exti.c **** 
 555:Drivers/STM32G0xx_HAL_Driver/Src/stm32g0xx_hal_exti.c **** 
 556:Drivers/STM32G0xx_HAL_Driver/Src/stm32g0xx_hal_exti.c **** /**
 557:Drivers/STM32G0xx_HAL_Driver/Src/stm32g0xx_hal_exti.c ****   * @brief  Get interrupt pending bit of a dedicated line.
 558:Drivers/STM32G0xx_HAL_Driver/Src/stm32g0xx_hal_exti.c ****   * @param  hexti Exti handle.
 559:Drivers/STM32G0xx_HAL_Driver/Src/stm32g0xx_hal_exti.c ****   * @param  Edge Specify which pending edge as to be checked.
 560:Drivers/STM32G0xx_HAL_Driver/Src/stm32g0xx_hal_exti.c ****   *         This parameter can be one of the following values:
 561:Drivers/STM32G0xx_HAL_Driver/Src/stm32g0xx_hal_exti.c ****   *           @arg @ref EXTI_TRIGGER_RISING
 562:Drivers/STM32G0xx_HAL_Driver/Src/stm32g0xx_hal_exti.c ****   *           @arg @ref EXTI_TRIGGER_FALLING
 563:Drivers/STM32G0xx_HAL_Driver/Src/stm32g0xx_hal_exti.c ****   * @retval 1 if interrupt is pending else 0.
 564:Drivers/STM32G0xx_HAL_Driver/Src/stm32g0xx_hal_exti.c ****   */
 565:Drivers/STM32G0xx_HAL_Driver/Src/stm32g0xx_hal_exti.c **** uint32_t HAL_EXTI_GetPending(EXTI_HandleTypeDef *hexti, uint32_t Edge)
 566:Drivers/STM32G0xx_HAL_Driver/Src/stm32g0xx_hal_exti.c **** {
 1042              		.loc 1 566 1 is_stmt 1 view -0
 1043              		.cfi_startproc
 1044              		@ args = 0, pretend = 0, frame = 0
 1045              		@ frame_needed = 0, uses_anonymous_args = 0
 1046              		.loc 1 566 1 is_stmt 0 view .LVU369
 1047 0000 10B5     		push	{r4, lr}
 1048              	.LCFI6:
 1049              		.cfi_def_cfa_offset 8
 1050              		.cfi_offset 4, -8
 1051              		.cfi_offset 14, -4
 567:Drivers/STM32G0xx_HAL_Driver/Src/stm32g0xx_hal_exti.c ****   __IO uint32_t *regaddr;
 1052              		.loc 1 567 3 is_stmt 1 view .LVU370
 568:Drivers/STM32G0xx_HAL_Driver/Src/stm32g0xx_hal_exti.c ****   uint32_t regval;
 1053              		.loc 1 568 3 view .LVU371
 569:Drivers/STM32G0xx_HAL_Driver/Src/stm32g0xx_hal_exti.c ****   uint32_t linepos;
 1054              		.loc 1 569 3 view .LVU372
 570:Drivers/STM32G0xx_HAL_Driver/Src/stm32g0xx_hal_exti.c ****   uint32_t maskline;
 1055              		.loc 1 570 3 view .LVU373
 571:Drivers/STM32G0xx_HAL_Driver/Src/stm32g0xx_hal_exti.c ****   uint32_t offset;
 1056              		.loc 1 571 3 view .LVU374
 572:Drivers/STM32G0xx_HAL_Driver/Src/stm32g0xx_hal_exti.c **** 
 573:Drivers/STM32G0xx_HAL_Driver/Src/stm32g0xx_hal_exti.c ****   /* Check parameters */
 574:Drivers/STM32G0xx_HAL_Driver/Src/stm32g0xx_hal_exti.c ****   assert_param(IS_EXTI_LINE(hexti->Line));
 1057              		.loc 1 574 3 view .LVU375
ARM GAS  /var/folders/cw/6cmm0b_n7yj10n1wx8hfx52r0000gn/T//ccDi1eKm.s 			page 31


 575:Drivers/STM32G0xx_HAL_Driver/Src/stm32g0xx_hal_exti.c ****   assert_param(IS_EXTI_CONFIG_LINE(hexti->Line));
 1058              		.loc 1 575 3 view .LVU376
 576:Drivers/STM32G0xx_HAL_Driver/Src/stm32g0xx_hal_exti.c ****   assert_param(IS_EXTI_PENDING_EDGE(Edge));
 1059              		.loc 1 576 3 view .LVU377
 577:Drivers/STM32G0xx_HAL_Driver/Src/stm32g0xx_hal_exti.c **** 
 578:Drivers/STM32G0xx_HAL_Driver/Src/stm32g0xx_hal_exti.c ****   /* compute line register offset and line mask */
 579:Drivers/STM32G0xx_HAL_Driver/Src/stm32g0xx_hal_exti.c ****   offset = ((hexti->Line & EXTI_REG_MASK) >> EXTI_REG_SHIFT);
 1060              		.loc 1 579 3 view .LVU378
 1061              		.loc 1 579 19 is_stmt 0 view .LVU379
 1062 0002 0468     		ldr	r4, [r0]
 1063              		.loc 1 579 43 view .LVU380
 1064 0004 230C     		lsrs	r3, r4, #16
 1065              		.loc 1 579 10 view .LVU381
 1066 0006 0120     		movs	r0, #1
 1067              	.LVL142:
 1068              		.loc 1 579 10 view .LVU382
 1069 0008 0340     		ands	r3, r0
 1070              	.LVL143:
 580:Drivers/STM32G0xx_HAL_Driver/Src/stm32g0xx_hal_exti.c ****   linepos = (hexti->Line & EXTI_PIN_MASK);
 1071              		.loc 1 580 3 is_stmt 1 view .LVU383
 1072              		.loc 1 580 11 is_stmt 0 view .LVU384
 1073 000a 1F22     		movs	r2, #31
 1074 000c 2240     		ands	r2, r4
 1075              	.LVL144:
 581:Drivers/STM32G0xx_HAL_Driver/Src/stm32g0xx_hal_exti.c ****   maskline = (1uL << linepos);
 1076              		.loc 1 581 3 is_stmt 1 view .LVU385
 1077              		.loc 1 581 12 is_stmt 0 view .LVU386
 1078 000e 9040     		lsls	r0, r0, r2
 1079              	.LVL145:
 582:Drivers/STM32G0xx_HAL_Driver/Src/stm32g0xx_hal_exti.c **** 
 583:Drivers/STM32G0xx_HAL_Driver/Src/stm32g0xx_hal_exti.c ****   if (Edge != EXTI_TRIGGER_RISING)
 1080              		.loc 1 583 3 is_stmt 1 view .LVU387
 1081              		.loc 1 583 6 is_stmt 0 view .LVU388
 1082 0010 0129     		cmp	r1, #1
 1083 0012 07D0     		beq	.L56
 584:Drivers/STM32G0xx_HAL_Driver/Src/stm32g0xx_hal_exti.c ****   {
 585:Drivers/STM32G0xx_HAL_Driver/Src/stm32g0xx_hal_exti.c ****     /* Get falling edge pending bit */
 586:Drivers/STM32G0xx_HAL_Driver/Src/stm32g0xx_hal_exti.c ****     regaddr = (&EXTI->FPR1 + (EXTI_CONFIG_OFFSET * offset));
 1084              		.loc 1 586 5 is_stmt 1 view .LVU389
 1085              		.loc 1 586 28 is_stmt 0 view .LVU390
 1086 0014 5B01     		lsls	r3, r3, #5
 1087              	.LVL146:
 1088              		.loc 1 586 13 view .LVU391
 1089 0016 0649     		ldr	r1, .L58
 1090              	.LVL147:
 1091              		.loc 1 586 13 view .LVU392
 1092 0018 8C46     		mov	ip, r1
 1093 001a 6344     		add	r3, r3, ip
 1094              	.LVL148:
 1095              	.L57:
 587:Drivers/STM32G0xx_HAL_Driver/Src/stm32g0xx_hal_exti.c ****   }
 588:Drivers/STM32G0xx_HAL_Driver/Src/stm32g0xx_hal_exti.c ****   else
 589:Drivers/STM32G0xx_HAL_Driver/Src/stm32g0xx_hal_exti.c ****   {
 590:Drivers/STM32G0xx_HAL_Driver/Src/stm32g0xx_hal_exti.c ****     /* Get rising edge pending bit */
 591:Drivers/STM32G0xx_HAL_Driver/Src/stm32g0xx_hal_exti.c ****     regaddr = (&EXTI->RPR1 + (EXTI_CONFIG_OFFSET * offset));
 592:Drivers/STM32G0xx_HAL_Driver/Src/stm32g0xx_hal_exti.c ****   }
 593:Drivers/STM32G0xx_HAL_Driver/Src/stm32g0xx_hal_exti.c **** 
ARM GAS  /var/folders/cw/6cmm0b_n7yj10n1wx8hfx52r0000gn/T//ccDi1eKm.s 			page 32


 594:Drivers/STM32G0xx_HAL_Driver/Src/stm32g0xx_hal_exti.c ****   /* return 1 if bit is set else 0 */
 595:Drivers/STM32G0xx_HAL_Driver/Src/stm32g0xx_hal_exti.c ****   regval = ((*regaddr & maskline) >> linepos);
 1096              		.loc 1 595 3 is_stmt 1 view .LVU393
 1097              		.loc 1 595 14 is_stmt 0 view .LVU394
 1098 001c 1B68     		ldr	r3, [r3]
 1099              	.LVL149:
 1100              		.loc 1 595 23 view .LVU395
 1101 001e 1840     		ands	r0, r3
 1102              	.LVL150:
 1103              		.loc 1 595 10 view .LVU396
 1104 0020 D040     		lsrs	r0, r0, r2
 1105              	.LVL151:
 596:Drivers/STM32G0xx_HAL_Driver/Src/stm32g0xx_hal_exti.c ****   return regval;
 1106              		.loc 1 596 3 is_stmt 1 view .LVU397
 597:Drivers/STM32G0xx_HAL_Driver/Src/stm32g0xx_hal_exti.c **** }
 1107              		.loc 1 597 1 is_stmt 0 view .LVU398
 1108              		@ sp needed
 1109              	.LVL152:
 1110              		.loc 1 597 1 view .LVU399
 1111 0022 10BD     		pop	{r4, pc}
 1112              	.LVL153:
 1113              	.L56:
 591:Drivers/STM32G0xx_HAL_Driver/Src/stm32g0xx_hal_exti.c ****   }
 1114              		.loc 1 591 5 is_stmt 1 view .LVU400
 591:Drivers/STM32G0xx_HAL_Driver/Src/stm32g0xx_hal_exti.c ****   }
 1115              		.loc 1 591 28 is_stmt 0 view .LVU401
 1116 0024 5B01     		lsls	r3, r3, #5
 1117              	.LVL154:
 591:Drivers/STM32G0xx_HAL_Driver/Src/stm32g0xx_hal_exti.c ****   }
 1118              		.loc 1 591 13 view .LVU402
 1119 0026 0349     		ldr	r1, .L58+4
 1120              	.LVL155:
 591:Drivers/STM32G0xx_HAL_Driver/Src/stm32g0xx_hal_exti.c ****   }
 1121              		.loc 1 591 13 view .LVU403
 1122 0028 8C46     		mov	ip, r1
 1123 002a 6344     		add	r3, r3, ip
 1124              	.LVL156:
 591:Drivers/STM32G0xx_HAL_Driver/Src/stm32g0xx_hal_exti.c ****   }
 1125              		.loc 1 591 13 view .LVU404
 1126 002c F6E7     		b	.L57
 1127              	.L59:
 1128 002e C046     		.align	2
 1129              	.L58:
 1130 0030 10180240 		.word	1073879056
 1131 0034 0C180240 		.word	1073879052
 1132              		.cfi_endproc
 1133              	.LFE164:
 1135              		.section	.text.HAL_EXTI_ClearPending,"ax",%progbits
 1136              		.align	1
 1137              		.global	HAL_EXTI_ClearPending
 1138              		.syntax unified
 1139              		.code	16
 1140              		.thumb_func
 1142              	HAL_EXTI_ClearPending:
 1143              	.LVL157:
 1144              	.LFB165:
 598:Drivers/STM32G0xx_HAL_Driver/Src/stm32g0xx_hal_exti.c **** 
ARM GAS  /var/folders/cw/6cmm0b_n7yj10n1wx8hfx52r0000gn/T//ccDi1eKm.s 			page 33


 599:Drivers/STM32G0xx_HAL_Driver/Src/stm32g0xx_hal_exti.c **** 
 600:Drivers/STM32G0xx_HAL_Driver/Src/stm32g0xx_hal_exti.c **** /**
 601:Drivers/STM32G0xx_HAL_Driver/Src/stm32g0xx_hal_exti.c ****   * @brief  Clear interrupt pending bit of a dedicated line.
 602:Drivers/STM32G0xx_HAL_Driver/Src/stm32g0xx_hal_exti.c ****   * @param  hexti Exti handle.
 603:Drivers/STM32G0xx_HAL_Driver/Src/stm32g0xx_hal_exti.c ****   * @param  Edge Specify which pending edge as to be clear.
 604:Drivers/STM32G0xx_HAL_Driver/Src/stm32g0xx_hal_exti.c ****   *         This parameter can be one of the following values:
 605:Drivers/STM32G0xx_HAL_Driver/Src/stm32g0xx_hal_exti.c ****   *           @arg @ref EXTI_TRIGGER_RISING
 606:Drivers/STM32G0xx_HAL_Driver/Src/stm32g0xx_hal_exti.c ****   *           @arg @ref EXTI_TRIGGER_FALLING
 607:Drivers/STM32G0xx_HAL_Driver/Src/stm32g0xx_hal_exti.c ****   * @retval None.
 608:Drivers/STM32G0xx_HAL_Driver/Src/stm32g0xx_hal_exti.c ****   */
 609:Drivers/STM32G0xx_HAL_Driver/Src/stm32g0xx_hal_exti.c **** void HAL_EXTI_ClearPending(EXTI_HandleTypeDef *hexti, uint32_t Edge)
 610:Drivers/STM32G0xx_HAL_Driver/Src/stm32g0xx_hal_exti.c **** {
 1145              		.loc 1 610 1 is_stmt 1 view -0
 1146              		.cfi_startproc
 1147              		@ args = 0, pretend = 0, frame = 0
 1148              		@ frame_needed = 0, uses_anonymous_args = 0
 1149              		.loc 1 610 1 is_stmt 0 view .LVU406
 1150 0000 10B5     		push	{r4, lr}
 1151              	.LCFI7:
 1152              		.cfi_def_cfa_offset 8
 1153              		.cfi_offset 4, -8
 1154              		.cfi_offset 14, -4
 611:Drivers/STM32G0xx_HAL_Driver/Src/stm32g0xx_hal_exti.c ****   __IO uint32_t *regaddr;
 1155              		.loc 1 611 3 is_stmt 1 view .LVU407
 612:Drivers/STM32G0xx_HAL_Driver/Src/stm32g0xx_hal_exti.c ****   uint32_t maskline;
 1156              		.loc 1 612 3 view .LVU408
 613:Drivers/STM32G0xx_HAL_Driver/Src/stm32g0xx_hal_exti.c ****   uint32_t offset;
 1157              		.loc 1 613 3 view .LVU409
 614:Drivers/STM32G0xx_HAL_Driver/Src/stm32g0xx_hal_exti.c **** 
 615:Drivers/STM32G0xx_HAL_Driver/Src/stm32g0xx_hal_exti.c ****   /* Check parameters */
 616:Drivers/STM32G0xx_HAL_Driver/Src/stm32g0xx_hal_exti.c ****   assert_param(IS_EXTI_LINE(hexti->Line));
 1158              		.loc 1 616 3 view .LVU410
 617:Drivers/STM32G0xx_HAL_Driver/Src/stm32g0xx_hal_exti.c ****   assert_param(IS_EXTI_CONFIG_LINE(hexti->Line));
 1159              		.loc 1 617 3 view .LVU411
 618:Drivers/STM32G0xx_HAL_Driver/Src/stm32g0xx_hal_exti.c ****   assert_param(IS_EXTI_PENDING_EDGE(Edge));
 1160              		.loc 1 618 3 view .LVU412
 619:Drivers/STM32G0xx_HAL_Driver/Src/stm32g0xx_hal_exti.c **** 
 620:Drivers/STM32G0xx_HAL_Driver/Src/stm32g0xx_hal_exti.c ****   /* compute line register offset and line mask */
 621:Drivers/STM32G0xx_HAL_Driver/Src/stm32g0xx_hal_exti.c ****   offset = ((hexti->Line & EXTI_REG_MASK) >> EXTI_REG_SHIFT);
 1161              		.loc 1 621 3 view .LVU413
 1162              		.loc 1 621 19 is_stmt 0 view .LVU414
 1163 0002 0468     		ldr	r4, [r0]
 1164              		.loc 1 621 43 view .LVU415
 1165 0004 230C     		lsrs	r3, r4, #16
 1166              		.loc 1 621 10 view .LVU416
 1167 0006 0122     		movs	r2, #1
 1168 0008 1340     		ands	r3, r2
 1169              	.LVL158:
 622:Drivers/STM32G0xx_HAL_Driver/Src/stm32g0xx_hal_exti.c ****   maskline = (1uL << (hexti->Line & EXTI_PIN_MASK));
 1170              		.loc 1 622 3 is_stmt 1 view .LVU417
 1171              		.loc 1 622 35 is_stmt 0 view .LVU418
 1172 000a 1F20     		movs	r0, #31
 1173              	.LVL159:
 1174              		.loc 1 622 35 view .LVU419
 1175 000c 2040     		ands	r0, r4
 1176              		.loc 1 622 12 view .LVU420
 1177 000e 8240     		lsls	r2, r2, r0
ARM GAS  /var/folders/cw/6cmm0b_n7yj10n1wx8hfx52r0000gn/T//ccDi1eKm.s 			page 34


 1178              	.LVL160:
 623:Drivers/STM32G0xx_HAL_Driver/Src/stm32g0xx_hal_exti.c **** 
 624:Drivers/STM32G0xx_HAL_Driver/Src/stm32g0xx_hal_exti.c ****   if (Edge != EXTI_TRIGGER_RISING)
 1179              		.loc 1 624 3 is_stmt 1 view .LVU421
 1180              		.loc 1 624 6 is_stmt 0 view .LVU422
 1181 0010 0129     		cmp	r1, #1
 1182 0012 05D0     		beq	.L61
 625:Drivers/STM32G0xx_HAL_Driver/Src/stm32g0xx_hal_exti.c ****   {
 626:Drivers/STM32G0xx_HAL_Driver/Src/stm32g0xx_hal_exti.c ****     /* Get falling edge pending register address */
 627:Drivers/STM32G0xx_HAL_Driver/Src/stm32g0xx_hal_exti.c ****     regaddr = (&EXTI->FPR1 + (EXTI_CONFIG_OFFSET * offset));
 1183              		.loc 1 627 5 is_stmt 1 view .LVU423
 1184              		.loc 1 627 28 is_stmt 0 view .LVU424
 1185 0014 5B01     		lsls	r3, r3, #5
 1186              	.LVL161:
 1187              		.loc 1 627 13 view .LVU425
 1188 0016 0549     		ldr	r1, .L63
 1189              	.LVL162:
 1190              		.loc 1 627 13 view .LVU426
 1191 0018 8C46     		mov	ip, r1
 1192 001a 6344     		add	r3, r3, ip
 1193              	.LVL163:
 1194              	.L62:
 628:Drivers/STM32G0xx_HAL_Driver/Src/stm32g0xx_hal_exti.c ****   }
 629:Drivers/STM32G0xx_HAL_Driver/Src/stm32g0xx_hal_exti.c ****   else
 630:Drivers/STM32G0xx_HAL_Driver/Src/stm32g0xx_hal_exti.c ****   {
 631:Drivers/STM32G0xx_HAL_Driver/Src/stm32g0xx_hal_exti.c ****     /* Get falling edge pending register address */
 632:Drivers/STM32G0xx_HAL_Driver/Src/stm32g0xx_hal_exti.c ****     regaddr = (&EXTI->RPR1 + (EXTI_CONFIG_OFFSET * offset));
 633:Drivers/STM32G0xx_HAL_Driver/Src/stm32g0xx_hal_exti.c ****   }
 634:Drivers/STM32G0xx_HAL_Driver/Src/stm32g0xx_hal_exti.c **** 
 635:Drivers/STM32G0xx_HAL_Driver/Src/stm32g0xx_hal_exti.c ****   /* Clear Pending bit */
 636:Drivers/STM32G0xx_HAL_Driver/Src/stm32g0xx_hal_exti.c ****   *regaddr =  maskline;
 1195              		.loc 1 636 3 is_stmt 1 view .LVU427
 1196              		.loc 1 636 12 is_stmt 0 view .LVU428
 1197 001c 1A60     		str	r2, [r3]
 637:Drivers/STM32G0xx_HAL_Driver/Src/stm32g0xx_hal_exti.c **** }
 1198              		.loc 1 637 1 view .LVU429
 1199              		@ sp needed
 1200              	.LVL164:
 1201              		.loc 1 637 1 view .LVU430
 1202 001e 10BD     		pop	{r4, pc}
 1203              	.LVL165:
 1204              	.L61:
 632:Drivers/STM32G0xx_HAL_Driver/Src/stm32g0xx_hal_exti.c ****   }
 1205              		.loc 1 632 5 is_stmt 1 view .LVU431
 632:Drivers/STM32G0xx_HAL_Driver/Src/stm32g0xx_hal_exti.c ****   }
 1206              		.loc 1 632 28 is_stmt 0 view .LVU432
 1207 0020 5B01     		lsls	r3, r3, #5
 1208              	.LVL166:
 632:Drivers/STM32G0xx_HAL_Driver/Src/stm32g0xx_hal_exti.c ****   }
 1209              		.loc 1 632 13 view .LVU433
 1210 0022 0349     		ldr	r1, .L63+4
 1211              	.LVL167:
 632:Drivers/STM32G0xx_HAL_Driver/Src/stm32g0xx_hal_exti.c ****   }
 1212              		.loc 1 632 13 view .LVU434
 1213 0024 8C46     		mov	ip, r1
 1214 0026 6344     		add	r3, r3, ip
 1215              	.LVL168:
ARM GAS  /var/folders/cw/6cmm0b_n7yj10n1wx8hfx52r0000gn/T//ccDi1eKm.s 			page 35


 632:Drivers/STM32G0xx_HAL_Driver/Src/stm32g0xx_hal_exti.c ****   }
 1216              		.loc 1 632 13 view .LVU435
 1217 0028 F8E7     		b	.L62
 1218              	.L64:
 1219 002a C046     		.align	2
 1220              	.L63:
 1221 002c 10180240 		.word	1073879056
 1222 0030 0C180240 		.word	1073879052
 1223              		.cfi_endproc
 1224              	.LFE165:
 1226              		.section	.text.HAL_EXTI_GenerateSWI,"ax",%progbits
 1227              		.align	1
 1228              		.global	HAL_EXTI_GenerateSWI
 1229              		.syntax unified
 1230              		.code	16
 1231              		.thumb_func
 1233              	HAL_EXTI_GenerateSWI:
 1234              	.LVL169:
 1235              	.LFB166:
 638:Drivers/STM32G0xx_HAL_Driver/Src/stm32g0xx_hal_exti.c **** 
 639:Drivers/STM32G0xx_HAL_Driver/Src/stm32g0xx_hal_exti.c **** 
 640:Drivers/STM32G0xx_HAL_Driver/Src/stm32g0xx_hal_exti.c **** /**
 641:Drivers/STM32G0xx_HAL_Driver/Src/stm32g0xx_hal_exti.c ****   * @brief  Generate a software interrupt for a dedicated line.
 642:Drivers/STM32G0xx_HAL_Driver/Src/stm32g0xx_hal_exti.c ****   * @param  hexti Exti handle.
 643:Drivers/STM32G0xx_HAL_Driver/Src/stm32g0xx_hal_exti.c ****   * @retval None.
 644:Drivers/STM32G0xx_HAL_Driver/Src/stm32g0xx_hal_exti.c ****   */
 645:Drivers/STM32G0xx_HAL_Driver/Src/stm32g0xx_hal_exti.c **** void HAL_EXTI_GenerateSWI(EXTI_HandleTypeDef *hexti)
 646:Drivers/STM32G0xx_HAL_Driver/Src/stm32g0xx_hal_exti.c **** {
 1236              		.loc 1 646 1 is_stmt 1 view -0
 1237              		.cfi_startproc
 1238              		@ args = 0, pretend = 0, frame = 0
 1239              		@ frame_needed = 0, uses_anonymous_args = 0
 1240              		@ link register save eliminated.
 647:Drivers/STM32G0xx_HAL_Driver/Src/stm32g0xx_hal_exti.c ****   __IO uint32_t *regaddr;
 1241              		.loc 1 647 3 view .LVU437
 648:Drivers/STM32G0xx_HAL_Driver/Src/stm32g0xx_hal_exti.c ****   uint32_t maskline;
 1242              		.loc 1 648 3 view .LVU438
 649:Drivers/STM32G0xx_HAL_Driver/Src/stm32g0xx_hal_exti.c ****   uint32_t offset;
 1243              		.loc 1 649 3 view .LVU439
 650:Drivers/STM32G0xx_HAL_Driver/Src/stm32g0xx_hal_exti.c **** 
 651:Drivers/STM32G0xx_HAL_Driver/Src/stm32g0xx_hal_exti.c ****   /* Check parameterd */
 652:Drivers/STM32G0xx_HAL_Driver/Src/stm32g0xx_hal_exti.c ****   assert_param(IS_EXTI_LINE(hexti->Line));
 1244              		.loc 1 652 3 view .LVU440
 653:Drivers/STM32G0xx_HAL_Driver/Src/stm32g0xx_hal_exti.c ****   assert_param(IS_EXTI_CONFIG_LINE(hexti->Line));
 1245              		.loc 1 653 3 view .LVU441
 654:Drivers/STM32G0xx_HAL_Driver/Src/stm32g0xx_hal_exti.c **** 
 655:Drivers/STM32G0xx_HAL_Driver/Src/stm32g0xx_hal_exti.c ****   /* compute line register offset and line mask */
 656:Drivers/STM32G0xx_HAL_Driver/Src/stm32g0xx_hal_exti.c ****   offset = ((hexti->Line & EXTI_REG_MASK) >> EXTI_REG_SHIFT);
 1246              		.loc 1 656 3 view .LVU442
 1247              		.loc 1 656 19 is_stmt 0 view .LVU443
 1248 0000 0068     		ldr	r0, [r0]
 1249              	.LVL170:
 1250              		.loc 1 656 43 view .LVU444
 1251 0002 030C     		lsrs	r3, r0, #16
 1252              		.loc 1 656 10 view .LVU445
 1253 0004 0122     		movs	r2, #1
 1254 0006 1340     		ands	r3, r2
ARM GAS  /var/folders/cw/6cmm0b_n7yj10n1wx8hfx52r0000gn/T//ccDi1eKm.s 			page 36


 1255              	.LVL171:
 657:Drivers/STM32G0xx_HAL_Driver/Src/stm32g0xx_hal_exti.c ****   maskline = (1uL << (hexti->Line & EXTI_PIN_MASK));
 1256              		.loc 1 657 3 is_stmt 1 view .LVU446
 1257              		.loc 1 657 35 is_stmt 0 view .LVU447
 1258 0008 1F21     		movs	r1, #31
 1259 000a 0140     		ands	r1, r0
 1260              		.loc 1 657 12 view .LVU448
 1261 000c 8A40     		lsls	r2, r2, r1
 1262              	.LVL172:
 658:Drivers/STM32G0xx_HAL_Driver/Src/stm32g0xx_hal_exti.c **** 
 659:Drivers/STM32G0xx_HAL_Driver/Src/stm32g0xx_hal_exti.c ****   regaddr = (&EXTI->SWIER1 + (EXTI_CONFIG_OFFSET * offset));
 1263              		.loc 1 659 3 is_stmt 1 view .LVU449
 1264              		.loc 1 659 28 is_stmt 0 view .LVU450
 1265 000e 5B01     		lsls	r3, r3, #5
 1266              	.LVL173:
 1267              		.loc 1 659 11 view .LVU451
 1268 0010 0249     		ldr	r1, .L66
 1269 0012 8C46     		mov	ip, r1
 1270 0014 6344     		add	r3, r3, ip
 1271              	.LVL174:
 660:Drivers/STM32G0xx_HAL_Driver/Src/stm32g0xx_hal_exti.c ****   *regaddr = maskline;
 1272              		.loc 1 660 3 is_stmt 1 view .LVU452
 1273              		.loc 1 660 12 is_stmt 0 view .LVU453
 1274 0016 1A60     		str	r2, [r3]
 661:Drivers/STM32G0xx_HAL_Driver/Src/stm32g0xx_hal_exti.c **** }
 1275              		.loc 1 661 1 view .LVU454
 1276              		@ sp needed
 1277 0018 7047     		bx	lr
 1278              	.L67:
 1279 001a C046     		.align	2
 1280              	.L66:
 1281 001c 08180240 		.word	1073879048
 1282              		.cfi_endproc
 1283              	.LFE166:
 1285              		.text
 1286              	.Letext0:
 1287              		.file 2 "/Applications/ArmGNUToolchain/12.3.rel1/arm-none-eabi/arm-none-eabi/include/machine/_defa
 1288              		.file 3 "/Applications/ArmGNUToolchain/12.3.rel1/arm-none-eabi/arm-none-eabi/include/sys/_stdint.h
 1289              		.file 4 "Drivers/CMSIS/Device/ST/STM32G0xx/Include/stm32g030xx.h"
 1290              		.file 5 "Drivers/STM32G0xx_HAL_Driver/Inc/stm32g0xx_hal_def.h"
 1291              		.file 6 "Drivers/STM32G0xx_HAL_Driver/Inc/stm32g0xx_hal_exti.h"
ARM GAS  /var/folders/cw/6cmm0b_n7yj10n1wx8hfx52r0000gn/T//ccDi1eKm.s 			page 37

