ARM GAS  /var/folders/cw/6cmm0b_n7yj10n1wx8hfx52r0000gn/T//ccoyqBc2.s 			page 1


   1              		.cpu cortex-m0plus
   2              		.arch armv6s-m
   3              		.fpu softvfp
   4              		.eabi_attribute 20, 1
   5              		.eabi_attribute 21, 1
   6              		.eabi_attribute 23, 3
   7              		.eabi_attribute 24, 1
   8              		.eabi_attribute 25, 1
   9              		.eabi_attribute 26, 1
  10              		.eabi_attribute 30, 1
  11              		.eabi_attribute 34, 0
  12              		.eabi_attribute 18, 4
  13              		.file	"stm32g0xx_hal_dma.c"
  14              		.text
  15              	.Ltext0:
  16              		.cfi_sections	.debug_frame
  17              		.file 1 "Drivers/STM32G0xx_HAL_Driver/Src/stm32g0xx_hal_dma.c"
  18              		.section	.text.DMA_SetConfig,"ax",%progbits
  19              		.align	1
  20              		.syntax unified
  21              		.code	16
  22              		.thumb_func
  24              	DMA_SetConfig:
  25              	.LVL0:
  26              	.LFB170:
   1:Drivers/STM32G0xx_HAL_Driver/Src/stm32g0xx_hal_dma.c **** /**
   2:Drivers/STM32G0xx_HAL_Driver/Src/stm32g0xx_hal_dma.c ****   ******************************************************************************
   3:Drivers/STM32G0xx_HAL_Driver/Src/stm32g0xx_hal_dma.c ****   * @file    stm32g0xx_hal_dma.c
   4:Drivers/STM32G0xx_HAL_Driver/Src/stm32g0xx_hal_dma.c ****   * @author  MCD Application Team
   5:Drivers/STM32G0xx_HAL_Driver/Src/stm32g0xx_hal_dma.c ****   * @brief   DMA HAL module driver.
   6:Drivers/STM32G0xx_HAL_Driver/Src/stm32g0xx_hal_dma.c ****   *         This file provides firmware functions to manage the following
   7:Drivers/STM32G0xx_HAL_Driver/Src/stm32g0xx_hal_dma.c ****   *         functionalities of the Direct Memory Access (DMA) peripheral:
   8:Drivers/STM32G0xx_HAL_Driver/Src/stm32g0xx_hal_dma.c ****   *           + Initialization and de-initialization functions
   9:Drivers/STM32G0xx_HAL_Driver/Src/stm32g0xx_hal_dma.c ****   *           + IO operation functions
  10:Drivers/STM32G0xx_HAL_Driver/Src/stm32g0xx_hal_dma.c ****   *           + Peripheral State and errors functions
  11:Drivers/STM32G0xx_HAL_Driver/Src/stm32g0xx_hal_dma.c ****   @verbatim
  12:Drivers/STM32G0xx_HAL_Driver/Src/stm32g0xx_hal_dma.c ****   ==============================================================================
  13:Drivers/STM32G0xx_HAL_Driver/Src/stm32g0xx_hal_dma.c ****                         ##### How to use this driver #####
  14:Drivers/STM32G0xx_HAL_Driver/Src/stm32g0xx_hal_dma.c ****   ==============================================================================
  15:Drivers/STM32G0xx_HAL_Driver/Src/stm32g0xx_hal_dma.c ****   [..]
  16:Drivers/STM32G0xx_HAL_Driver/Src/stm32g0xx_hal_dma.c ****    (#) Enable and configure the peripheral to be connected to the DMA Channel
  17:Drivers/STM32G0xx_HAL_Driver/Src/stm32g0xx_hal_dma.c ****        (except for internal SRAM / FLASH memories: no initialization is
  18:Drivers/STM32G0xx_HAL_Driver/Src/stm32g0xx_hal_dma.c ****        necessary). Please refer to the Reference manual for connection between peripherals
  19:Drivers/STM32G0xx_HAL_Driver/Src/stm32g0xx_hal_dma.c ****        and DMA requests.
  20:Drivers/STM32G0xx_HAL_Driver/Src/stm32g0xx_hal_dma.c **** 
  21:Drivers/STM32G0xx_HAL_Driver/Src/stm32g0xx_hal_dma.c ****    (#) For a given Channel, program the required configuration through the following parameters:
  22:Drivers/STM32G0xx_HAL_Driver/Src/stm32g0xx_hal_dma.c ****        Channel request, Transfer Direction, Source and Destination data formats,
  23:Drivers/STM32G0xx_HAL_Driver/Src/stm32g0xx_hal_dma.c ****        Circular or Normal mode, Channel Priority level, Source and Destination Increment mode
  24:Drivers/STM32G0xx_HAL_Driver/Src/stm32g0xx_hal_dma.c ****        using HAL_DMA_Init() function.
  25:Drivers/STM32G0xx_HAL_Driver/Src/stm32g0xx_hal_dma.c **** 
  26:Drivers/STM32G0xx_HAL_Driver/Src/stm32g0xx_hal_dma.c ****        Prior to HAL_DMA_Init the CLK shall be enabled for both DMA & DMAMUX
  27:Drivers/STM32G0xx_HAL_Driver/Src/stm32g0xx_hal_dma.c ****        thanks to:
  28:Drivers/STM32G0xx_HAL_Driver/Src/stm32g0xx_hal_dma.c ****        DMA1   :       __HAL_RCC_DMA1_CLK_ENABLE();
  29:Drivers/STM32G0xx_HAL_Driver/Src/stm32g0xx_hal_dma.c **** 
  30:Drivers/STM32G0xx_HAL_Driver/Src/stm32g0xx_hal_dma.c ****    (#) Use HAL_DMA_GetState() function to return the DMA state and HAL_DMA_GetError() in case of er
  31:Drivers/STM32G0xx_HAL_Driver/Src/stm32g0xx_hal_dma.c ****        detection.
  32:Drivers/STM32G0xx_HAL_Driver/Src/stm32g0xx_hal_dma.c **** 
ARM GAS  /var/folders/cw/6cmm0b_n7yj10n1wx8hfx52r0000gn/T//ccoyqBc2.s 			page 2


  33:Drivers/STM32G0xx_HAL_Driver/Src/stm32g0xx_hal_dma.c ****    (#) Use HAL_DMA_Abort() function to abort the current transfer
  34:Drivers/STM32G0xx_HAL_Driver/Src/stm32g0xx_hal_dma.c **** 
  35:Drivers/STM32G0xx_HAL_Driver/Src/stm32g0xx_hal_dma.c ****      -@-   In Memory-to-Memory transfer mode, Circular mode is not allowed.
  36:Drivers/STM32G0xx_HAL_Driver/Src/stm32g0xx_hal_dma.c ****      *** Polling mode IO operation ***
  37:Drivers/STM32G0xx_HAL_Driver/Src/stm32g0xx_hal_dma.c ****      =================================
  38:Drivers/STM32G0xx_HAL_Driver/Src/stm32g0xx_hal_dma.c ****     [..]
  39:Drivers/STM32G0xx_HAL_Driver/Src/stm32g0xx_hal_dma.c ****           (+) Use HAL_DMA_Start() to start DMA transfer after the configuration of Source
  40:Drivers/STM32G0xx_HAL_Driver/Src/stm32g0xx_hal_dma.c ****               address and destination address and the Length of data to be transferred
  41:Drivers/STM32G0xx_HAL_Driver/Src/stm32g0xx_hal_dma.c ****           (+) Use HAL_DMA_PollForTransfer() to poll for the end of current transfer, in this
  42:Drivers/STM32G0xx_HAL_Driver/Src/stm32g0xx_hal_dma.c ****               case a fixed Timeout can be configured by User depending from his application.
  43:Drivers/STM32G0xx_HAL_Driver/Src/stm32g0xx_hal_dma.c **** 
  44:Drivers/STM32G0xx_HAL_Driver/Src/stm32g0xx_hal_dma.c ****      *** Interrupt mode IO operation ***
  45:Drivers/STM32G0xx_HAL_Driver/Src/stm32g0xx_hal_dma.c ****      ===================================
  46:Drivers/STM32G0xx_HAL_Driver/Src/stm32g0xx_hal_dma.c ****     [..]
  47:Drivers/STM32G0xx_HAL_Driver/Src/stm32g0xx_hal_dma.c ****           (+) Configure the DMA interrupt priority using HAL_NVIC_SetPriority()
  48:Drivers/STM32G0xx_HAL_Driver/Src/stm32g0xx_hal_dma.c ****           (+) Enable the DMA IRQ handler using HAL_NVIC_EnableIRQ()
  49:Drivers/STM32G0xx_HAL_Driver/Src/stm32g0xx_hal_dma.c ****           (+) Use HAL_DMA_Start_IT() to start DMA transfer after the configuration of
  50:Drivers/STM32G0xx_HAL_Driver/Src/stm32g0xx_hal_dma.c ****               Source address and destination address and the Length of data to be transferred.
  51:Drivers/STM32G0xx_HAL_Driver/Src/stm32g0xx_hal_dma.c ****               In this case the DMA interrupt is configured
  52:Drivers/STM32G0xx_HAL_Driver/Src/stm32g0xx_hal_dma.c ****           (+) Use HAL_DMA_IRQHandler() called under DMA_IRQHandler() Interrupt subroutine
  53:Drivers/STM32G0xx_HAL_Driver/Src/stm32g0xx_hal_dma.c ****           (+) At the end of data transfer HAL_DMA_IRQHandler() function is executed and user can
  54:Drivers/STM32G0xx_HAL_Driver/Src/stm32g0xx_hal_dma.c ****               add his own function by customization of function pointer XferCpltCallback and
  55:Drivers/STM32G0xx_HAL_Driver/Src/stm32g0xx_hal_dma.c ****               XferErrorCallback (i.e. a member of DMA handle structure).
  56:Drivers/STM32G0xx_HAL_Driver/Src/stm32g0xx_hal_dma.c **** 
  57:Drivers/STM32G0xx_HAL_Driver/Src/stm32g0xx_hal_dma.c ****      *** DMA HAL driver macros list ***
  58:Drivers/STM32G0xx_HAL_Driver/Src/stm32g0xx_hal_dma.c ****      =============================================
  59:Drivers/STM32G0xx_HAL_Driver/Src/stm32g0xx_hal_dma.c ****       [..]
  60:Drivers/STM32G0xx_HAL_Driver/Src/stm32g0xx_hal_dma.c ****        Below the list of most used macros in DMA HAL driver.
  61:Drivers/STM32G0xx_HAL_Driver/Src/stm32g0xx_hal_dma.c **** 
  62:Drivers/STM32G0xx_HAL_Driver/Src/stm32g0xx_hal_dma.c ****        (+) __HAL_DMA_ENABLE: Enable the specified DMA Channel.
  63:Drivers/STM32G0xx_HAL_Driver/Src/stm32g0xx_hal_dma.c ****        (+) __HAL_DMA_DISABLE: Disable the specified DMA Channel.
  64:Drivers/STM32G0xx_HAL_Driver/Src/stm32g0xx_hal_dma.c ****        (+) __HAL_DMA_GET_FLAG: Get the DMA Channel pending flags.
  65:Drivers/STM32G0xx_HAL_Driver/Src/stm32g0xx_hal_dma.c ****        (+) __HAL_DMA_CLEAR_FLAG: Clear the DMA Channel pending flags.
  66:Drivers/STM32G0xx_HAL_Driver/Src/stm32g0xx_hal_dma.c ****        (+) __HAL_DMA_ENABLE_IT: Enable the specified DMA Channel interrupts.
  67:Drivers/STM32G0xx_HAL_Driver/Src/stm32g0xx_hal_dma.c ****        (+) __HAL_DMA_DISABLE_IT: Disable the specified DMA Channel interrupts.
  68:Drivers/STM32G0xx_HAL_Driver/Src/stm32g0xx_hal_dma.c ****        (+) __HAL_DMA_GET_IT_SOURCE: Check whether the specified DMA Channel interrupt has occurred 
  69:Drivers/STM32G0xx_HAL_Driver/Src/stm32g0xx_hal_dma.c **** 
  70:Drivers/STM32G0xx_HAL_Driver/Src/stm32g0xx_hal_dma.c ****      [..]
  71:Drivers/STM32G0xx_HAL_Driver/Src/stm32g0xx_hal_dma.c ****       (@) You can refer to the DMA HAL driver header file for more useful macros
  72:Drivers/STM32G0xx_HAL_Driver/Src/stm32g0xx_hal_dma.c **** 
  73:Drivers/STM32G0xx_HAL_Driver/Src/stm32g0xx_hal_dma.c ****   @endverbatim
  74:Drivers/STM32G0xx_HAL_Driver/Src/stm32g0xx_hal_dma.c ****   ******************************************************************************
  75:Drivers/STM32G0xx_HAL_Driver/Src/stm32g0xx_hal_dma.c ****   * @attention
  76:Drivers/STM32G0xx_HAL_Driver/Src/stm32g0xx_hal_dma.c ****   *
  77:Drivers/STM32G0xx_HAL_Driver/Src/stm32g0xx_hal_dma.c ****   * <h2><center>&copy; Copyright (c) 2018 STMicroelectronics. 
  78:Drivers/STM32G0xx_HAL_Driver/Src/stm32g0xx_hal_dma.c ****   * All rights reserved.</center></h2>
  79:Drivers/STM32G0xx_HAL_Driver/Src/stm32g0xx_hal_dma.c ****   *
  80:Drivers/STM32G0xx_HAL_Driver/Src/stm32g0xx_hal_dma.c ****   * This software component is licensed by ST under BSD 3-Clause license,
  81:Drivers/STM32G0xx_HAL_Driver/Src/stm32g0xx_hal_dma.c ****   * the "License"; You may not use this file except in compliance with the 
  82:Drivers/STM32G0xx_HAL_Driver/Src/stm32g0xx_hal_dma.c ****   * License. You may obtain a copy of the License at:
  83:Drivers/STM32G0xx_HAL_Driver/Src/stm32g0xx_hal_dma.c ****   *                        opensource.org/licenses/BSD-3-Clause
  84:Drivers/STM32G0xx_HAL_Driver/Src/stm32g0xx_hal_dma.c ****   *
  85:Drivers/STM32G0xx_HAL_Driver/Src/stm32g0xx_hal_dma.c ****   ******************************************************************************
  86:Drivers/STM32G0xx_HAL_Driver/Src/stm32g0xx_hal_dma.c ****   */
  87:Drivers/STM32G0xx_HAL_Driver/Src/stm32g0xx_hal_dma.c **** 
  88:Drivers/STM32G0xx_HAL_Driver/Src/stm32g0xx_hal_dma.c **** /* Includes ------------------------------------------------------------------*/
  89:Drivers/STM32G0xx_HAL_Driver/Src/stm32g0xx_hal_dma.c **** #include "stm32g0xx_hal.h"
ARM GAS  /var/folders/cw/6cmm0b_n7yj10n1wx8hfx52r0000gn/T//ccoyqBc2.s 			page 3


  90:Drivers/STM32G0xx_HAL_Driver/Src/stm32g0xx_hal_dma.c **** 
  91:Drivers/STM32G0xx_HAL_Driver/Src/stm32g0xx_hal_dma.c **** /** @addtogroup STM32G0xx_HAL_Driver
  92:Drivers/STM32G0xx_HAL_Driver/Src/stm32g0xx_hal_dma.c ****   * @{
  93:Drivers/STM32G0xx_HAL_Driver/Src/stm32g0xx_hal_dma.c ****   */
  94:Drivers/STM32G0xx_HAL_Driver/Src/stm32g0xx_hal_dma.c **** 
  95:Drivers/STM32G0xx_HAL_Driver/Src/stm32g0xx_hal_dma.c **** /** @defgroup DMA DMA
  96:Drivers/STM32G0xx_HAL_Driver/Src/stm32g0xx_hal_dma.c ****   * @brief DMA HAL module driver
  97:Drivers/STM32G0xx_HAL_Driver/Src/stm32g0xx_hal_dma.c ****   * @{
  98:Drivers/STM32G0xx_HAL_Driver/Src/stm32g0xx_hal_dma.c ****   */
  99:Drivers/STM32G0xx_HAL_Driver/Src/stm32g0xx_hal_dma.c **** 
 100:Drivers/STM32G0xx_HAL_Driver/Src/stm32g0xx_hal_dma.c **** #ifdef HAL_DMA_MODULE_ENABLED
 101:Drivers/STM32G0xx_HAL_Driver/Src/stm32g0xx_hal_dma.c **** 
 102:Drivers/STM32G0xx_HAL_Driver/Src/stm32g0xx_hal_dma.c **** /* Private typedef -----------------------------------------------------------*/
 103:Drivers/STM32G0xx_HAL_Driver/Src/stm32g0xx_hal_dma.c **** /* Private define ------------------------------------------------------------*/
 104:Drivers/STM32G0xx_HAL_Driver/Src/stm32g0xx_hal_dma.c **** /* Private macro -------------------------------------------------------------*/
 105:Drivers/STM32G0xx_HAL_Driver/Src/stm32g0xx_hal_dma.c **** /* Private variables ---------------------------------------------------------*/
 106:Drivers/STM32G0xx_HAL_Driver/Src/stm32g0xx_hal_dma.c **** /* Private function prototypes -----------------------------------------------*/
 107:Drivers/STM32G0xx_HAL_Driver/Src/stm32g0xx_hal_dma.c **** 
 108:Drivers/STM32G0xx_HAL_Driver/Src/stm32g0xx_hal_dma.c **** /** @defgroup DMA_Private_Functions DMA Private Functions
 109:Drivers/STM32G0xx_HAL_Driver/Src/stm32g0xx_hal_dma.c ****   * @{
 110:Drivers/STM32G0xx_HAL_Driver/Src/stm32g0xx_hal_dma.c ****   */
 111:Drivers/STM32G0xx_HAL_Driver/Src/stm32g0xx_hal_dma.c **** static void DMA_SetConfig(DMA_HandleTypeDef *hdma, uint32_t SrcAddress, uint32_t DstAddress, uint32
 112:Drivers/STM32G0xx_HAL_Driver/Src/stm32g0xx_hal_dma.c **** static void DMA_CalcDMAMUXChannelBaseAndMask(DMA_HandleTypeDef *hdma);
 113:Drivers/STM32G0xx_HAL_Driver/Src/stm32g0xx_hal_dma.c **** static void DMA_CalcDMAMUXRequestGenBaseAndMask(DMA_HandleTypeDef *hdma);
 114:Drivers/STM32G0xx_HAL_Driver/Src/stm32g0xx_hal_dma.c **** 
 115:Drivers/STM32G0xx_HAL_Driver/Src/stm32g0xx_hal_dma.c **** /**
 116:Drivers/STM32G0xx_HAL_Driver/Src/stm32g0xx_hal_dma.c ****   * @}
 117:Drivers/STM32G0xx_HAL_Driver/Src/stm32g0xx_hal_dma.c ****   */
 118:Drivers/STM32G0xx_HAL_Driver/Src/stm32g0xx_hal_dma.c **** 
 119:Drivers/STM32G0xx_HAL_Driver/Src/stm32g0xx_hal_dma.c **** /* Exported functions ---------------------------------------------------------*/
 120:Drivers/STM32G0xx_HAL_Driver/Src/stm32g0xx_hal_dma.c **** 
 121:Drivers/STM32G0xx_HAL_Driver/Src/stm32g0xx_hal_dma.c **** /** @defgroup DMA_Exported_Functions DMA Exported Functions
 122:Drivers/STM32G0xx_HAL_Driver/Src/stm32g0xx_hal_dma.c ****   * @{
 123:Drivers/STM32G0xx_HAL_Driver/Src/stm32g0xx_hal_dma.c ****   */
 124:Drivers/STM32G0xx_HAL_Driver/Src/stm32g0xx_hal_dma.c **** 
 125:Drivers/STM32G0xx_HAL_Driver/Src/stm32g0xx_hal_dma.c **** /** @defgroup DMA_Exported_Functions_Group1 Initialization and de-initialization functions
 126:Drivers/STM32G0xx_HAL_Driver/Src/stm32g0xx_hal_dma.c ****  *  @brief   Initialization and de-initialization functions
 127:Drivers/STM32G0xx_HAL_Driver/Src/stm32g0xx_hal_dma.c ****  *
 128:Drivers/STM32G0xx_HAL_Driver/Src/stm32g0xx_hal_dma.c **** @verbatim
 129:Drivers/STM32G0xx_HAL_Driver/Src/stm32g0xx_hal_dma.c ****  ===============================================================================
 130:Drivers/STM32G0xx_HAL_Driver/Src/stm32g0xx_hal_dma.c ****              ##### Initialization and de-initialization functions  #####
 131:Drivers/STM32G0xx_HAL_Driver/Src/stm32g0xx_hal_dma.c ****  ===============================================================================
 132:Drivers/STM32G0xx_HAL_Driver/Src/stm32g0xx_hal_dma.c ****     [..]
 133:Drivers/STM32G0xx_HAL_Driver/Src/stm32g0xx_hal_dma.c ****     This section provides functions allowing to initialize the DMA Channel source
 134:Drivers/STM32G0xx_HAL_Driver/Src/stm32g0xx_hal_dma.c ****     and destination addresses, incrementation and data sizes, transfer direction,
 135:Drivers/STM32G0xx_HAL_Driver/Src/stm32g0xx_hal_dma.c ****     circular/normal mode selection, memory-to-memory mode selection and Channel priority value.
 136:Drivers/STM32G0xx_HAL_Driver/Src/stm32g0xx_hal_dma.c ****     [..]
 137:Drivers/STM32G0xx_HAL_Driver/Src/stm32g0xx_hal_dma.c ****     The HAL_DMA_Init() function follows the DMA configuration procedures as described in
 138:Drivers/STM32G0xx_HAL_Driver/Src/stm32g0xx_hal_dma.c ****     reference manual.
 139:Drivers/STM32G0xx_HAL_Driver/Src/stm32g0xx_hal_dma.c **** 
 140:Drivers/STM32G0xx_HAL_Driver/Src/stm32g0xx_hal_dma.c **** @endverbatim
 141:Drivers/STM32G0xx_HAL_Driver/Src/stm32g0xx_hal_dma.c ****   * @{
 142:Drivers/STM32G0xx_HAL_Driver/Src/stm32g0xx_hal_dma.c ****   */
 143:Drivers/STM32G0xx_HAL_Driver/Src/stm32g0xx_hal_dma.c **** 
 144:Drivers/STM32G0xx_HAL_Driver/Src/stm32g0xx_hal_dma.c **** /**
 145:Drivers/STM32G0xx_HAL_Driver/Src/stm32g0xx_hal_dma.c ****   * @brief  Initialize the DMA according to the specified
 146:Drivers/STM32G0xx_HAL_Driver/Src/stm32g0xx_hal_dma.c ****   *         parameters in the DMA_InitTypeDef and initialize the associated handle.
ARM GAS  /var/folders/cw/6cmm0b_n7yj10n1wx8hfx52r0000gn/T//ccoyqBc2.s 			page 4


 147:Drivers/STM32G0xx_HAL_Driver/Src/stm32g0xx_hal_dma.c ****   * @param  hdma  Pointer to a DMA_HandleTypeDef structure that contains
 148:Drivers/STM32G0xx_HAL_Driver/Src/stm32g0xx_hal_dma.c ****   *               the configuration information for the specified DMA Channel.
 149:Drivers/STM32G0xx_HAL_Driver/Src/stm32g0xx_hal_dma.c ****   * @retval HAL status
 150:Drivers/STM32G0xx_HAL_Driver/Src/stm32g0xx_hal_dma.c ****   */
 151:Drivers/STM32G0xx_HAL_Driver/Src/stm32g0xx_hal_dma.c **** HAL_StatusTypeDef HAL_DMA_Init(DMA_HandleTypeDef *hdma)
 152:Drivers/STM32G0xx_HAL_Driver/Src/stm32g0xx_hal_dma.c **** {
 153:Drivers/STM32G0xx_HAL_Driver/Src/stm32g0xx_hal_dma.c ****   /* Check the DMA handle allocation */
 154:Drivers/STM32G0xx_HAL_Driver/Src/stm32g0xx_hal_dma.c ****   if (hdma == NULL)
 155:Drivers/STM32G0xx_HAL_Driver/Src/stm32g0xx_hal_dma.c ****   {
 156:Drivers/STM32G0xx_HAL_Driver/Src/stm32g0xx_hal_dma.c ****     return HAL_ERROR;
 157:Drivers/STM32G0xx_HAL_Driver/Src/stm32g0xx_hal_dma.c ****   }
 158:Drivers/STM32G0xx_HAL_Driver/Src/stm32g0xx_hal_dma.c **** 
 159:Drivers/STM32G0xx_HAL_Driver/Src/stm32g0xx_hal_dma.c ****   /* Check the parameters */
 160:Drivers/STM32G0xx_HAL_Driver/Src/stm32g0xx_hal_dma.c ****   assert_param(IS_DMA_ALL_INSTANCE(hdma->Instance));
 161:Drivers/STM32G0xx_HAL_Driver/Src/stm32g0xx_hal_dma.c ****   assert_param(IS_DMA_DIRECTION(hdma->Init.Direction));
 162:Drivers/STM32G0xx_HAL_Driver/Src/stm32g0xx_hal_dma.c ****   assert_param(IS_DMA_PERIPHERAL_INC_STATE(hdma->Init.PeriphInc));
 163:Drivers/STM32G0xx_HAL_Driver/Src/stm32g0xx_hal_dma.c ****   assert_param(IS_DMA_MEMORY_INC_STATE(hdma->Init.MemInc));
 164:Drivers/STM32G0xx_HAL_Driver/Src/stm32g0xx_hal_dma.c ****   assert_param(IS_DMA_PERIPHERAL_DATA_SIZE(hdma->Init.PeriphDataAlignment));
 165:Drivers/STM32G0xx_HAL_Driver/Src/stm32g0xx_hal_dma.c ****   assert_param(IS_DMA_MEMORY_DATA_SIZE(hdma->Init.MemDataAlignment));
 166:Drivers/STM32G0xx_HAL_Driver/Src/stm32g0xx_hal_dma.c ****   assert_param(IS_DMA_MODE(hdma->Init.Mode));
 167:Drivers/STM32G0xx_HAL_Driver/Src/stm32g0xx_hal_dma.c ****   assert_param(IS_DMA_PRIORITY(hdma->Init.Priority));
 168:Drivers/STM32G0xx_HAL_Driver/Src/stm32g0xx_hal_dma.c **** 
 169:Drivers/STM32G0xx_HAL_Driver/Src/stm32g0xx_hal_dma.c ****   /* calculation of the channel index */
 170:Drivers/STM32G0xx_HAL_Driver/Src/stm32g0xx_hal_dma.c ****   hdma->ChannelIndex = (((uint32_t)hdma->Instance - (uint32_t)DMA1_Channel1) / ((uint32_t)DMA1_Chan
 171:Drivers/STM32G0xx_HAL_Driver/Src/stm32g0xx_hal_dma.c **** 
 172:Drivers/STM32G0xx_HAL_Driver/Src/stm32g0xx_hal_dma.c ****   /* Change DMA peripheral state */
 173:Drivers/STM32G0xx_HAL_Driver/Src/stm32g0xx_hal_dma.c ****   hdma->State = HAL_DMA_STATE_BUSY;
 174:Drivers/STM32G0xx_HAL_Driver/Src/stm32g0xx_hal_dma.c **** 
 175:Drivers/STM32G0xx_HAL_Driver/Src/stm32g0xx_hal_dma.c ****   /* Clear PL, MSIZE, PSIZE, MINC, PINC, CIRC, DIR and MEM2MEM bits */
 176:Drivers/STM32G0xx_HAL_Driver/Src/stm32g0xx_hal_dma.c ****   CLEAR_BIT(hdma->Instance->CCR, (DMA_CCR_PL    | DMA_CCR_MSIZE  | DMA_CCR_PSIZE  | \
 177:Drivers/STM32G0xx_HAL_Driver/Src/stm32g0xx_hal_dma.c ****                                   DMA_CCR_MINC  | DMA_CCR_PINC   | DMA_CCR_CIRC   | \
 178:Drivers/STM32G0xx_HAL_Driver/Src/stm32g0xx_hal_dma.c ****                                   DMA_CCR_DIR   | DMA_CCR_MEM2MEM));
 179:Drivers/STM32G0xx_HAL_Driver/Src/stm32g0xx_hal_dma.c **** 
 180:Drivers/STM32G0xx_HAL_Driver/Src/stm32g0xx_hal_dma.c ****   /* Set the DMA Channel configuration */
 181:Drivers/STM32G0xx_HAL_Driver/Src/stm32g0xx_hal_dma.c ****   SET_BIT(hdma->Instance->CCR, (hdma->Init.Direction           |                               \
 182:Drivers/STM32G0xx_HAL_Driver/Src/stm32g0xx_hal_dma.c ****                                 hdma->Init.PeriphInc           | hdma->Init.MemInc           | \
 183:Drivers/STM32G0xx_HAL_Driver/Src/stm32g0xx_hal_dma.c ****                                 hdma->Init.PeriphDataAlignment | hdma->Init.MemDataAlignment | \
 184:Drivers/STM32G0xx_HAL_Driver/Src/stm32g0xx_hal_dma.c ****                                 hdma->Init.Mode                | hdma->Init.Priority));
 185:Drivers/STM32G0xx_HAL_Driver/Src/stm32g0xx_hal_dma.c **** 
 186:Drivers/STM32G0xx_HAL_Driver/Src/stm32g0xx_hal_dma.c ****   /* Initialize parameters for DMAMUX channel :
 187:Drivers/STM32G0xx_HAL_Driver/Src/stm32g0xx_hal_dma.c ****      DMAmuxChannel, DMAmuxChannelStatus and DMAmuxChannelStatusMask
 188:Drivers/STM32G0xx_HAL_Driver/Src/stm32g0xx_hal_dma.c ****   */
 189:Drivers/STM32G0xx_HAL_Driver/Src/stm32g0xx_hal_dma.c ****   DMA_CalcDMAMUXChannelBaseAndMask(hdma);
 190:Drivers/STM32G0xx_HAL_Driver/Src/stm32g0xx_hal_dma.c **** 
 191:Drivers/STM32G0xx_HAL_Driver/Src/stm32g0xx_hal_dma.c ****   if (hdma->Init.Direction == DMA_MEMORY_TO_MEMORY)
 192:Drivers/STM32G0xx_HAL_Driver/Src/stm32g0xx_hal_dma.c ****   {
 193:Drivers/STM32G0xx_HAL_Driver/Src/stm32g0xx_hal_dma.c ****     /* if memory to memory force the request to 0*/
 194:Drivers/STM32G0xx_HAL_Driver/Src/stm32g0xx_hal_dma.c ****     hdma->Init.Request = DMA_REQUEST_MEM2MEM;
 195:Drivers/STM32G0xx_HAL_Driver/Src/stm32g0xx_hal_dma.c ****   }
 196:Drivers/STM32G0xx_HAL_Driver/Src/stm32g0xx_hal_dma.c **** 
 197:Drivers/STM32G0xx_HAL_Driver/Src/stm32g0xx_hal_dma.c ****   /* Set peripheral request  to DMAMUX channel */
 198:Drivers/STM32G0xx_HAL_Driver/Src/stm32g0xx_hal_dma.c ****   hdma->DMAmuxChannel->CCR = (hdma->Init.Request & DMAMUX_CxCR_DMAREQ_ID);
 199:Drivers/STM32G0xx_HAL_Driver/Src/stm32g0xx_hal_dma.c **** 
 200:Drivers/STM32G0xx_HAL_Driver/Src/stm32g0xx_hal_dma.c ****   /* Clear the DMAMUX synchro overrun flag */
 201:Drivers/STM32G0xx_HAL_Driver/Src/stm32g0xx_hal_dma.c ****   hdma->DMAmuxChannelStatus->CFR = hdma->DMAmuxChannelStatusMask;
 202:Drivers/STM32G0xx_HAL_Driver/Src/stm32g0xx_hal_dma.c **** 
 203:Drivers/STM32G0xx_HAL_Driver/Src/stm32g0xx_hal_dma.c ****   if (((hdma->Init.Request >  0UL) && (hdma->Init.Request <= DMA_REQUEST_GENERATOR3)))
ARM GAS  /var/folders/cw/6cmm0b_n7yj10n1wx8hfx52r0000gn/T//ccoyqBc2.s 			page 5


 204:Drivers/STM32G0xx_HAL_Driver/Src/stm32g0xx_hal_dma.c ****   {
 205:Drivers/STM32G0xx_HAL_Driver/Src/stm32g0xx_hal_dma.c ****     /* Initialize parameters for DMAMUX request generator :
 206:Drivers/STM32G0xx_HAL_Driver/Src/stm32g0xx_hal_dma.c ****        DMAmuxRequestGen, DMAmuxRequestGenStatus and DMAmuxRequestGenStatusMask
 207:Drivers/STM32G0xx_HAL_Driver/Src/stm32g0xx_hal_dma.c ****     */
 208:Drivers/STM32G0xx_HAL_Driver/Src/stm32g0xx_hal_dma.c ****     DMA_CalcDMAMUXRequestGenBaseAndMask(hdma);
 209:Drivers/STM32G0xx_HAL_Driver/Src/stm32g0xx_hal_dma.c **** 
 210:Drivers/STM32G0xx_HAL_Driver/Src/stm32g0xx_hal_dma.c ****     /* Reset the DMAMUX request generator register*/
 211:Drivers/STM32G0xx_HAL_Driver/Src/stm32g0xx_hal_dma.c ****     hdma->DMAmuxRequestGen->RGCR = 0U;
 212:Drivers/STM32G0xx_HAL_Driver/Src/stm32g0xx_hal_dma.c **** 
 213:Drivers/STM32G0xx_HAL_Driver/Src/stm32g0xx_hal_dma.c ****     /* Clear the DMAMUX request generator overrun flag */
 214:Drivers/STM32G0xx_HAL_Driver/Src/stm32g0xx_hal_dma.c ****     hdma->DMAmuxRequestGenStatus->RGCFR = hdma->DMAmuxRequestGenStatusMask;
 215:Drivers/STM32G0xx_HAL_Driver/Src/stm32g0xx_hal_dma.c ****   }
 216:Drivers/STM32G0xx_HAL_Driver/Src/stm32g0xx_hal_dma.c ****   else
 217:Drivers/STM32G0xx_HAL_Driver/Src/stm32g0xx_hal_dma.c ****   {
 218:Drivers/STM32G0xx_HAL_Driver/Src/stm32g0xx_hal_dma.c ****     hdma->DMAmuxRequestGen = 0U;
 219:Drivers/STM32G0xx_HAL_Driver/Src/stm32g0xx_hal_dma.c ****     hdma->DMAmuxRequestGenStatus = 0U;
 220:Drivers/STM32G0xx_HAL_Driver/Src/stm32g0xx_hal_dma.c ****     hdma->DMAmuxRequestGenStatusMask = 0U;
 221:Drivers/STM32G0xx_HAL_Driver/Src/stm32g0xx_hal_dma.c ****   }
 222:Drivers/STM32G0xx_HAL_Driver/Src/stm32g0xx_hal_dma.c **** 
 223:Drivers/STM32G0xx_HAL_Driver/Src/stm32g0xx_hal_dma.c ****   /* Initialize the error code */
 224:Drivers/STM32G0xx_HAL_Driver/Src/stm32g0xx_hal_dma.c ****   hdma->ErrorCode = HAL_DMA_ERROR_NONE;
 225:Drivers/STM32G0xx_HAL_Driver/Src/stm32g0xx_hal_dma.c **** 
 226:Drivers/STM32G0xx_HAL_Driver/Src/stm32g0xx_hal_dma.c ****   /* Initialize the DMA state*/
 227:Drivers/STM32G0xx_HAL_Driver/Src/stm32g0xx_hal_dma.c ****   hdma->State  = HAL_DMA_STATE_READY;
 228:Drivers/STM32G0xx_HAL_Driver/Src/stm32g0xx_hal_dma.c **** 
 229:Drivers/STM32G0xx_HAL_Driver/Src/stm32g0xx_hal_dma.c ****   /* Release Lock */
 230:Drivers/STM32G0xx_HAL_Driver/Src/stm32g0xx_hal_dma.c ****   __HAL_UNLOCK(hdma);
 231:Drivers/STM32G0xx_HAL_Driver/Src/stm32g0xx_hal_dma.c **** 
 232:Drivers/STM32G0xx_HAL_Driver/Src/stm32g0xx_hal_dma.c ****   return HAL_OK;
 233:Drivers/STM32G0xx_HAL_Driver/Src/stm32g0xx_hal_dma.c **** }
 234:Drivers/STM32G0xx_HAL_Driver/Src/stm32g0xx_hal_dma.c **** 
 235:Drivers/STM32G0xx_HAL_Driver/Src/stm32g0xx_hal_dma.c **** /**
 236:Drivers/STM32G0xx_HAL_Driver/Src/stm32g0xx_hal_dma.c ****   * @brief  DeInitialize the DMA peripheral.
 237:Drivers/STM32G0xx_HAL_Driver/Src/stm32g0xx_hal_dma.c ****   * @param  hdma  pointer to a DMA_HandleTypeDef structure that contains
 238:Drivers/STM32G0xx_HAL_Driver/Src/stm32g0xx_hal_dma.c ****   *               the configuration information for the specified DMA Channel.
 239:Drivers/STM32G0xx_HAL_Driver/Src/stm32g0xx_hal_dma.c ****   * @retval HAL status
 240:Drivers/STM32G0xx_HAL_Driver/Src/stm32g0xx_hal_dma.c ****   */
 241:Drivers/STM32G0xx_HAL_Driver/Src/stm32g0xx_hal_dma.c **** HAL_StatusTypeDef HAL_DMA_DeInit(DMA_HandleTypeDef *hdma)
 242:Drivers/STM32G0xx_HAL_Driver/Src/stm32g0xx_hal_dma.c **** {
 243:Drivers/STM32G0xx_HAL_Driver/Src/stm32g0xx_hal_dma.c ****   /* Check the DMA handle allocation */
 244:Drivers/STM32G0xx_HAL_Driver/Src/stm32g0xx_hal_dma.c ****   if (NULL == hdma)
 245:Drivers/STM32G0xx_HAL_Driver/Src/stm32g0xx_hal_dma.c ****   {
 246:Drivers/STM32G0xx_HAL_Driver/Src/stm32g0xx_hal_dma.c ****     return HAL_ERROR;
 247:Drivers/STM32G0xx_HAL_Driver/Src/stm32g0xx_hal_dma.c ****   }
 248:Drivers/STM32G0xx_HAL_Driver/Src/stm32g0xx_hal_dma.c **** 
 249:Drivers/STM32G0xx_HAL_Driver/Src/stm32g0xx_hal_dma.c ****   /* Check the parameters */
 250:Drivers/STM32G0xx_HAL_Driver/Src/stm32g0xx_hal_dma.c ****   assert_param(IS_DMA_ALL_INSTANCE(hdma->Instance));
 251:Drivers/STM32G0xx_HAL_Driver/Src/stm32g0xx_hal_dma.c **** 
 252:Drivers/STM32G0xx_HAL_Driver/Src/stm32g0xx_hal_dma.c ****   /* Disable the selected DMA Channelx */
 253:Drivers/STM32G0xx_HAL_Driver/Src/stm32g0xx_hal_dma.c ****   __HAL_DMA_DISABLE(hdma);
 254:Drivers/STM32G0xx_HAL_Driver/Src/stm32g0xx_hal_dma.c **** 
 255:Drivers/STM32G0xx_HAL_Driver/Src/stm32g0xx_hal_dma.c ****   /* calculation of the channel index */
 256:Drivers/STM32G0xx_HAL_Driver/Src/stm32g0xx_hal_dma.c ****   hdma->ChannelIndex = (((uint32_t)hdma->Instance - (uint32_t)DMA1_Channel1) / ((uint32_t)DMA1_Chan
 257:Drivers/STM32G0xx_HAL_Driver/Src/stm32g0xx_hal_dma.c **** 
 258:Drivers/STM32G0xx_HAL_Driver/Src/stm32g0xx_hal_dma.c ****   /* Reset DMA Channel control register */
 259:Drivers/STM32G0xx_HAL_Driver/Src/stm32g0xx_hal_dma.c ****   hdma->Instance->CCR  = 0U;
 260:Drivers/STM32G0xx_HAL_Driver/Src/stm32g0xx_hal_dma.c **** 
ARM GAS  /var/folders/cw/6cmm0b_n7yj10n1wx8hfx52r0000gn/T//ccoyqBc2.s 			page 6


 261:Drivers/STM32G0xx_HAL_Driver/Src/stm32g0xx_hal_dma.c ****   /* Clear all flags */
 262:Drivers/STM32G0xx_HAL_Driver/Src/stm32g0xx_hal_dma.c ****   __HAL_DMA_CLEAR_FLAG(hdma, (DMA_FLAG_GI1 << (hdma->ChannelIndex & 0x1cU)));
 263:Drivers/STM32G0xx_HAL_Driver/Src/stm32g0xx_hal_dma.c **** 
 264:Drivers/STM32G0xx_HAL_Driver/Src/stm32g0xx_hal_dma.c ****   /* Initialize parameters for DMAMUX channel :
 265:Drivers/STM32G0xx_HAL_Driver/Src/stm32g0xx_hal_dma.c ****      DMAmuxChannel, DMAmuxChannelStatus and DMAmuxChannelStatusMask */
 266:Drivers/STM32G0xx_HAL_Driver/Src/stm32g0xx_hal_dma.c **** 
 267:Drivers/STM32G0xx_HAL_Driver/Src/stm32g0xx_hal_dma.c ****   DMA_CalcDMAMUXChannelBaseAndMask(hdma);
 268:Drivers/STM32G0xx_HAL_Driver/Src/stm32g0xx_hal_dma.c **** 
 269:Drivers/STM32G0xx_HAL_Driver/Src/stm32g0xx_hal_dma.c ****   /* Reset the DMAMUX channel that corresponds to the DMA channel */
 270:Drivers/STM32G0xx_HAL_Driver/Src/stm32g0xx_hal_dma.c ****   hdma->DMAmuxChannel->CCR = 0U;
 271:Drivers/STM32G0xx_HAL_Driver/Src/stm32g0xx_hal_dma.c **** 
 272:Drivers/STM32G0xx_HAL_Driver/Src/stm32g0xx_hal_dma.c ****   /* Clear the DMAMUX synchro overrun flag */
 273:Drivers/STM32G0xx_HAL_Driver/Src/stm32g0xx_hal_dma.c ****   hdma->DMAmuxChannelStatus->CFR = hdma->DMAmuxChannelStatusMask;
 274:Drivers/STM32G0xx_HAL_Driver/Src/stm32g0xx_hal_dma.c **** 
 275:Drivers/STM32G0xx_HAL_Driver/Src/stm32g0xx_hal_dma.c ****   /* Reset Request generator parameters if any */
 276:Drivers/STM32G0xx_HAL_Driver/Src/stm32g0xx_hal_dma.c ****   if (((hdma->Init.Request >  0UL) && (hdma->Init.Request <= DMA_REQUEST_GENERATOR3)))
 277:Drivers/STM32G0xx_HAL_Driver/Src/stm32g0xx_hal_dma.c ****   {
 278:Drivers/STM32G0xx_HAL_Driver/Src/stm32g0xx_hal_dma.c ****     /* Initialize parameters for DMAMUX request generator :
 279:Drivers/STM32G0xx_HAL_Driver/Src/stm32g0xx_hal_dma.c ****        DMAmuxRequestGen, DMAmuxRequestGenStatus and DMAmuxRequestGenStatusMask
 280:Drivers/STM32G0xx_HAL_Driver/Src/stm32g0xx_hal_dma.c ****     */
 281:Drivers/STM32G0xx_HAL_Driver/Src/stm32g0xx_hal_dma.c ****     DMA_CalcDMAMUXRequestGenBaseAndMask(hdma);
 282:Drivers/STM32G0xx_HAL_Driver/Src/stm32g0xx_hal_dma.c **** 
 283:Drivers/STM32G0xx_HAL_Driver/Src/stm32g0xx_hal_dma.c ****     /* Reset the DMAMUX request generator register*/
 284:Drivers/STM32G0xx_HAL_Driver/Src/stm32g0xx_hal_dma.c ****     hdma->DMAmuxRequestGen->RGCR = 0U;
 285:Drivers/STM32G0xx_HAL_Driver/Src/stm32g0xx_hal_dma.c **** 
 286:Drivers/STM32G0xx_HAL_Driver/Src/stm32g0xx_hal_dma.c ****     /* Clear the DMAMUX request generator overrun flag */
 287:Drivers/STM32G0xx_HAL_Driver/Src/stm32g0xx_hal_dma.c ****     hdma->DMAmuxRequestGenStatus->RGCFR = hdma->DMAmuxRequestGenStatusMask;
 288:Drivers/STM32G0xx_HAL_Driver/Src/stm32g0xx_hal_dma.c ****   }
 289:Drivers/STM32G0xx_HAL_Driver/Src/stm32g0xx_hal_dma.c **** 
 290:Drivers/STM32G0xx_HAL_Driver/Src/stm32g0xx_hal_dma.c ****   /* Clean callbacks */
 291:Drivers/STM32G0xx_HAL_Driver/Src/stm32g0xx_hal_dma.c ****   hdma->XferCpltCallback = NULL;
 292:Drivers/STM32G0xx_HAL_Driver/Src/stm32g0xx_hal_dma.c ****   hdma->XferHalfCpltCallback = NULL;
 293:Drivers/STM32G0xx_HAL_Driver/Src/stm32g0xx_hal_dma.c ****   hdma->XferErrorCallback = NULL;
 294:Drivers/STM32G0xx_HAL_Driver/Src/stm32g0xx_hal_dma.c ****   hdma->XferAbortCallback = NULL;
 295:Drivers/STM32G0xx_HAL_Driver/Src/stm32g0xx_hal_dma.c **** 
 296:Drivers/STM32G0xx_HAL_Driver/Src/stm32g0xx_hal_dma.c ****   hdma->DMAmuxRequestGen = 0U;
 297:Drivers/STM32G0xx_HAL_Driver/Src/stm32g0xx_hal_dma.c ****   hdma->DMAmuxRequestGenStatus = 0U;
 298:Drivers/STM32G0xx_HAL_Driver/Src/stm32g0xx_hal_dma.c ****   hdma->DMAmuxRequestGenStatusMask = 0U;
 299:Drivers/STM32G0xx_HAL_Driver/Src/stm32g0xx_hal_dma.c **** 
 300:Drivers/STM32G0xx_HAL_Driver/Src/stm32g0xx_hal_dma.c ****   /* Initialize the error code */
 301:Drivers/STM32G0xx_HAL_Driver/Src/stm32g0xx_hal_dma.c ****   hdma->ErrorCode = HAL_DMA_ERROR_NONE;
 302:Drivers/STM32G0xx_HAL_Driver/Src/stm32g0xx_hal_dma.c **** 
 303:Drivers/STM32G0xx_HAL_Driver/Src/stm32g0xx_hal_dma.c ****   /* Initialize the DMA state */
 304:Drivers/STM32G0xx_HAL_Driver/Src/stm32g0xx_hal_dma.c ****   hdma->State = HAL_DMA_STATE_RESET;
 305:Drivers/STM32G0xx_HAL_Driver/Src/stm32g0xx_hal_dma.c **** 
 306:Drivers/STM32G0xx_HAL_Driver/Src/stm32g0xx_hal_dma.c ****   /* Release Lock */
 307:Drivers/STM32G0xx_HAL_Driver/Src/stm32g0xx_hal_dma.c ****   __HAL_UNLOCK(hdma);
 308:Drivers/STM32G0xx_HAL_Driver/Src/stm32g0xx_hal_dma.c **** 
 309:Drivers/STM32G0xx_HAL_Driver/Src/stm32g0xx_hal_dma.c ****   return HAL_OK;
 310:Drivers/STM32G0xx_HAL_Driver/Src/stm32g0xx_hal_dma.c **** }
 311:Drivers/STM32G0xx_HAL_Driver/Src/stm32g0xx_hal_dma.c **** 
 312:Drivers/STM32G0xx_HAL_Driver/Src/stm32g0xx_hal_dma.c **** /**
 313:Drivers/STM32G0xx_HAL_Driver/Src/stm32g0xx_hal_dma.c ****   * @}
 314:Drivers/STM32G0xx_HAL_Driver/Src/stm32g0xx_hal_dma.c ****   */
 315:Drivers/STM32G0xx_HAL_Driver/Src/stm32g0xx_hal_dma.c **** 
 316:Drivers/STM32G0xx_HAL_Driver/Src/stm32g0xx_hal_dma.c **** /** @defgroup DMA_Exported_Functions_Group2 Input and Output operation functions
 317:Drivers/STM32G0xx_HAL_Driver/Src/stm32g0xx_hal_dma.c ****  *  @brief   Input and Output operation functions
ARM GAS  /var/folders/cw/6cmm0b_n7yj10n1wx8hfx52r0000gn/T//ccoyqBc2.s 			page 7


 318:Drivers/STM32G0xx_HAL_Driver/Src/stm32g0xx_hal_dma.c ****  *
 319:Drivers/STM32G0xx_HAL_Driver/Src/stm32g0xx_hal_dma.c **** @verbatim
 320:Drivers/STM32G0xx_HAL_Driver/Src/stm32g0xx_hal_dma.c ****  ===============================================================================
 321:Drivers/STM32G0xx_HAL_Driver/Src/stm32g0xx_hal_dma.c ****                       #####  IO operation functions  #####
 322:Drivers/STM32G0xx_HAL_Driver/Src/stm32g0xx_hal_dma.c ****  ===============================================================================
 323:Drivers/STM32G0xx_HAL_Driver/Src/stm32g0xx_hal_dma.c ****     [..]  This section provides functions allowing to:
 324:Drivers/STM32G0xx_HAL_Driver/Src/stm32g0xx_hal_dma.c ****       (+) Configure the source, destination address and data length and Start DMA transfer
 325:Drivers/STM32G0xx_HAL_Driver/Src/stm32g0xx_hal_dma.c ****       (+) Configure the source, destination address and data length and
 326:Drivers/STM32G0xx_HAL_Driver/Src/stm32g0xx_hal_dma.c ****           Start DMA transfer with interrupt
 327:Drivers/STM32G0xx_HAL_Driver/Src/stm32g0xx_hal_dma.c ****       (+) Abort DMA transfer
 328:Drivers/STM32G0xx_HAL_Driver/Src/stm32g0xx_hal_dma.c ****       (+) Poll for transfer complete
 329:Drivers/STM32G0xx_HAL_Driver/Src/stm32g0xx_hal_dma.c ****       (+) Handle DMA interrupt request
 330:Drivers/STM32G0xx_HAL_Driver/Src/stm32g0xx_hal_dma.c **** 
 331:Drivers/STM32G0xx_HAL_Driver/Src/stm32g0xx_hal_dma.c **** @endverbatim
 332:Drivers/STM32G0xx_HAL_Driver/Src/stm32g0xx_hal_dma.c ****   * @{
 333:Drivers/STM32G0xx_HAL_Driver/Src/stm32g0xx_hal_dma.c ****   */
 334:Drivers/STM32G0xx_HAL_Driver/Src/stm32g0xx_hal_dma.c **** 
 335:Drivers/STM32G0xx_HAL_Driver/Src/stm32g0xx_hal_dma.c **** /**
 336:Drivers/STM32G0xx_HAL_Driver/Src/stm32g0xx_hal_dma.c ****   * @brief  Start the DMA Transfer.
 337:Drivers/STM32G0xx_HAL_Driver/Src/stm32g0xx_hal_dma.c ****   * @param hdma Pointer to a DMA_HandleTypeDef structure that contains
 338:Drivers/STM32G0xx_HAL_Driver/Src/stm32g0xx_hal_dma.c ****   *               the configuration information for the specified DMA Channel.
 339:Drivers/STM32G0xx_HAL_Driver/Src/stm32g0xx_hal_dma.c ****   * @param SrcAddress The source memory Buffer address
 340:Drivers/STM32G0xx_HAL_Driver/Src/stm32g0xx_hal_dma.c ****   * @param DstAddress The destination memory Buffer address
 341:Drivers/STM32G0xx_HAL_Driver/Src/stm32g0xx_hal_dma.c ****   * @param DataLength The length of data to be transferred from source to destination
 342:Drivers/STM32G0xx_HAL_Driver/Src/stm32g0xx_hal_dma.c ****   * @retval HAL status
 343:Drivers/STM32G0xx_HAL_Driver/Src/stm32g0xx_hal_dma.c ****   */
 344:Drivers/STM32G0xx_HAL_Driver/Src/stm32g0xx_hal_dma.c **** HAL_StatusTypeDef HAL_DMA_Start(DMA_HandleTypeDef *hdma, uint32_t SrcAddress, uint32_t DstAddress, 
 345:Drivers/STM32G0xx_HAL_Driver/Src/stm32g0xx_hal_dma.c **** {
 346:Drivers/STM32G0xx_HAL_Driver/Src/stm32g0xx_hal_dma.c ****   HAL_StatusTypeDef status = HAL_OK;
 347:Drivers/STM32G0xx_HAL_Driver/Src/stm32g0xx_hal_dma.c **** 
 348:Drivers/STM32G0xx_HAL_Driver/Src/stm32g0xx_hal_dma.c ****   /* Check the parameters */
 349:Drivers/STM32G0xx_HAL_Driver/Src/stm32g0xx_hal_dma.c ****   assert_param(IS_DMA_BUFFER_SIZE(DataLength));
 350:Drivers/STM32G0xx_HAL_Driver/Src/stm32g0xx_hal_dma.c **** 
 351:Drivers/STM32G0xx_HAL_Driver/Src/stm32g0xx_hal_dma.c ****   /* Process locked */
 352:Drivers/STM32G0xx_HAL_Driver/Src/stm32g0xx_hal_dma.c ****   __HAL_LOCK(hdma);
 353:Drivers/STM32G0xx_HAL_Driver/Src/stm32g0xx_hal_dma.c **** 
 354:Drivers/STM32G0xx_HAL_Driver/Src/stm32g0xx_hal_dma.c ****   if (HAL_DMA_STATE_READY == hdma->State)
 355:Drivers/STM32G0xx_HAL_Driver/Src/stm32g0xx_hal_dma.c ****   {
 356:Drivers/STM32G0xx_HAL_Driver/Src/stm32g0xx_hal_dma.c ****     /* Change DMA peripheral state */
 357:Drivers/STM32G0xx_HAL_Driver/Src/stm32g0xx_hal_dma.c ****     hdma->State = HAL_DMA_STATE_BUSY;
 358:Drivers/STM32G0xx_HAL_Driver/Src/stm32g0xx_hal_dma.c ****     hdma->ErrorCode = HAL_DMA_ERROR_NONE;
 359:Drivers/STM32G0xx_HAL_Driver/Src/stm32g0xx_hal_dma.c **** 
 360:Drivers/STM32G0xx_HAL_Driver/Src/stm32g0xx_hal_dma.c ****     /* Disable the peripheral */
 361:Drivers/STM32G0xx_HAL_Driver/Src/stm32g0xx_hal_dma.c ****     __HAL_DMA_DISABLE(hdma);
 362:Drivers/STM32G0xx_HAL_Driver/Src/stm32g0xx_hal_dma.c **** 
 363:Drivers/STM32G0xx_HAL_Driver/Src/stm32g0xx_hal_dma.c ****     /* Configure the source, destination address and the data length & clear flags*/
 364:Drivers/STM32G0xx_HAL_Driver/Src/stm32g0xx_hal_dma.c ****     DMA_SetConfig(hdma, SrcAddress, DstAddress, DataLength);
 365:Drivers/STM32G0xx_HAL_Driver/Src/stm32g0xx_hal_dma.c **** 
 366:Drivers/STM32G0xx_HAL_Driver/Src/stm32g0xx_hal_dma.c ****     /* Enable the Peripheral */
 367:Drivers/STM32G0xx_HAL_Driver/Src/stm32g0xx_hal_dma.c ****     __HAL_DMA_ENABLE(hdma);
 368:Drivers/STM32G0xx_HAL_Driver/Src/stm32g0xx_hal_dma.c ****   }
 369:Drivers/STM32G0xx_HAL_Driver/Src/stm32g0xx_hal_dma.c ****   else
 370:Drivers/STM32G0xx_HAL_Driver/Src/stm32g0xx_hal_dma.c ****   {
 371:Drivers/STM32G0xx_HAL_Driver/Src/stm32g0xx_hal_dma.c ****     /* Process Unlocked */
 372:Drivers/STM32G0xx_HAL_Driver/Src/stm32g0xx_hal_dma.c ****     __HAL_UNLOCK(hdma);
 373:Drivers/STM32G0xx_HAL_Driver/Src/stm32g0xx_hal_dma.c ****     status = HAL_BUSY;
 374:Drivers/STM32G0xx_HAL_Driver/Src/stm32g0xx_hal_dma.c ****   }
ARM GAS  /var/folders/cw/6cmm0b_n7yj10n1wx8hfx52r0000gn/T//ccoyqBc2.s 			page 8


 375:Drivers/STM32G0xx_HAL_Driver/Src/stm32g0xx_hal_dma.c **** 
 376:Drivers/STM32G0xx_HAL_Driver/Src/stm32g0xx_hal_dma.c ****   /* Process locked */
 377:Drivers/STM32G0xx_HAL_Driver/Src/stm32g0xx_hal_dma.c ****   __HAL_UNLOCK(hdma);
 378:Drivers/STM32G0xx_HAL_Driver/Src/stm32g0xx_hal_dma.c **** 
 379:Drivers/STM32G0xx_HAL_Driver/Src/stm32g0xx_hal_dma.c ****   return status;
 380:Drivers/STM32G0xx_HAL_Driver/Src/stm32g0xx_hal_dma.c **** }
 381:Drivers/STM32G0xx_HAL_Driver/Src/stm32g0xx_hal_dma.c **** 
 382:Drivers/STM32G0xx_HAL_Driver/Src/stm32g0xx_hal_dma.c **** /**
 383:Drivers/STM32G0xx_HAL_Driver/Src/stm32g0xx_hal_dma.c ****   * @brief  Start the DMA Transfer with interrupt enabled.
 384:Drivers/STM32G0xx_HAL_Driver/Src/stm32g0xx_hal_dma.c ****   * @param hdma Pointer to a DMA_HandleTypeDef structure that contains
 385:Drivers/STM32G0xx_HAL_Driver/Src/stm32g0xx_hal_dma.c ****   *               the configuration information for the specified DMA Channel.
 386:Drivers/STM32G0xx_HAL_Driver/Src/stm32g0xx_hal_dma.c ****   * @param SrcAddress The source memory Buffer address
 387:Drivers/STM32G0xx_HAL_Driver/Src/stm32g0xx_hal_dma.c ****   * @param DstAddress The destination memory Buffer address
 388:Drivers/STM32G0xx_HAL_Driver/Src/stm32g0xx_hal_dma.c ****   * @param DataLength The length of data to be transferred from source to destination
 389:Drivers/STM32G0xx_HAL_Driver/Src/stm32g0xx_hal_dma.c ****   * @retval HAL status
 390:Drivers/STM32G0xx_HAL_Driver/Src/stm32g0xx_hal_dma.c ****   */
 391:Drivers/STM32G0xx_HAL_Driver/Src/stm32g0xx_hal_dma.c **** HAL_StatusTypeDef HAL_DMA_Start_IT(DMA_HandleTypeDef *hdma, uint32_t SrcAddress, uint32_t DstAddres
 392:Drivers/STM32G0xx_HAL_Driver/Src/stm32g0xx_hal_dma.c **** {
 393:Drivers/STM32G0xx_HAL_Driver/Src/stm32g0xx_hal_dma.c ****   HAL_StatusTypeDef status = HAL_OK;
 394:Drivers/STM32G0xx_HAL_Driver/Src/stm32g0xx_hal_dma.c **** 
 395:Drivers/STM32G0xx_HAL_Driver/Src/stm32g0xx_hal_dma.c ****   /* Check the parameters */
 396:Drivers/STM32G0xx_HAL_Driver/Src/stm32g0xx_hal_dma.c ****   assert_param(IS_DMA_BUFFER_SIZE(DataLength));
 397:Drivers/STM32G0xx_HAL_Driver/Src/stm32g0xx_hal_dma.c **** 
 398:Drivers/STM32G0xx_HAL_Driver/Src/stm32g0xx_hal_dma.c ****   /* Process locked */
 399:Drivers/STM32G0xx_HAL_Driver/Src/stm32g0xx_hal_dma.c ****   __HAL_LOCK(hdma);
 400:Drivers/STM32G0xx_HAL_Driver/Src/stm32g0xx_hal_dma.c **** 
 401:Drivers/STM32G0xx_HAL_Driver/Src/stm32g0xx_hal_dma.c ****   if (HAL_DMA_STATE_READY == hdma->State)
 402:Drivers/STM32G0xx_HAL_Driver/Src/stm32g0xx_hal_dma.c ****   {
 403:Drivers/STM32G0xx_HAL_Driver/Src/stm32g0xx_hal_dma.c ****     /* Change DMA peripheral state */
 404:Drivers/STM32G0xx_HAL_Driver/Src/stm32g0xx_hal_dma.c ****     hdma->State = HAL_DMA_STATE_BUSY;
 405:Drivers/STM32G0xx_HAL_Driver/Src/stm32g0xx_hal_dma.c ****     hdma->ErrorCode = HAL_DMA_ERROR_NONE;
 406:Drivers/STM32G0xx_HAL_Driver/Src/stm32g0xx_hal_dma.c **** 
 407:Drivers/STM32G0xx_HAL_Driver/Src/stm32g0xx_hal_dma.c ****     /* Disable the peripheral */
 408:Drivers/STM32G0xx_HAL_Driver/Src/stm32g0xx_hal_dma.c ****     __HAL_DMA_DISABLE(hdma);
 409:Drivers/STM32G0xx_HAL_Driver/Src/stm32g0xx_hal_dma.c **** 
 410:Drivers/STM32G0xx_HAL_Driver/Src/stm32g0xx_hal_dma.c ****     /* Configure the source, destination address and the data length & clear flags*/
 411:Drivers/STM32G0xx_HAL_Driver/Src/stm32g0xx_hal_dma.c ****     DMA_SetConfig(hdma, SrcAddress, DstAddress, DataLength);
 412:Drivers/STM32G0xx_HAL_Driver/Src/stm32g0xx_hal_dma.c **** 
 413:Drivers/STM32G0xx_HAL_Driver/Src/stm32g0xx_hal_dma.c ****     /* Enable the transfer complete interrupt */
 414:Drivers/STM32G0xx_HAL_Driver/Src/stm32g0xx_hal_dma.c ****     /* Enable the transfer Error interrupt */
 415:Drivers/STM32G0xx_HAL_Driver/Src/stm32g0xx_hal_dma.c ****     if (NULL != hdma->XferHalfCpltCallback)
 416:Drivers/STM32G0xx_HAL_Driver/Src/stm32g0xx_hal_dma.c ****     {
 417:Drivers/STM32G0xx_HAL_Driver/Src/stm32g0xx_hal_dma.c ****       /* Enable the Half transfer complete interrupt as well */
 418:Drivers/STM32G0xx_HAL_Driver/Src/stm32g0xx_hal_dma.c ****       __HAL_DMA_ENABLE_IT(hdma, (DMA_IT_TC | DMA_IT_HT | DMA_IT_TE));
 419:Drivers/STM32G0xx_HAL_Driver/Src/stm32g0xx_hal_dma.c ****     }
 420:Drivers/STM32G0xx_HAL_Driver/Src/stm32g0xx_hal_dma.c ****     else
 421:Drivers/STM32G0xx_HAL_Driver/Src/stm32g0xx_hal_dma.c ****     {
 422:Drivers/STM32G0xx_HAL_Driver/Src/stm32g0xx_hal_dma.c ****       __HAL_DMA_DISABLE_IT(hdma, DMA_IT_HT);
 423:Drivers/STM32G0xx_HAL_Driver/Src/stm32g0xx_hal_dma.c ****       __HAL_DMA_ENABLE_IT(hdma, (DMA_IT_TC | DMA_IT_TE));
 424:Drivers/STM32G0xx_HAL_Driver/Src/stm32g0xx_hal_dma.c ****     }
 425:Drivers/STM32G0xx_HAL_Driver/Src/stm32g0xx_hal_dma.c **** 
 426:Drivers/STM32G0xx_HAL_Driver/Src/stm32g0xx_hal_dma.c ****     /* Check if DMAMUX Synchronization is enabled*/
 427:Drivers/STM32G0xx_HAL_Driver/Src/stm32g0xx_hal_dma.c ****     if ((hdma->DMAmuxChannel->CCR & DMAMUX_CxCR_SE) != 0U)
 428:Drivers/STM32G0xx_HAL_Driver/Src/stm32g0xx_hal_dma.c ****     {
 429:Drivers/STM32G0xx_HAL_Driver/Src/stm32g0xx_hal_dma.c ****       /* Enable DMAMUX sync overrun IT*/
 430:Drivers/STM32G0xx_HAL_Driver/Src/stm32g0xx_hal_dma.c ****       hdma->DMAmuxChannel->CCR |= DMAMUX_CxCR_SOIE;
 431:Drivers/STM32G0xx_HAL_Driver/Src/stm32g0xx_hal_dma.c ****     }
ARM GAS  /var/folders/cw/6cmm0b_n7yj10n1wx8hfx52r0000gn/T//ccoyqBc2.s 			page 9


 432:Drivers/STM32G0xx_HAL_Driver/Src/stm32g0xx_hal_dma.c **** 
 433:Drivers/STM32G0xx_HAL_Driver/Src/stm32g0xx_hal_dma.c ****     if (hdma->DMAmuxRequestGen != 0U)
 434:Drivers/STM32G0xx_HAL_Driver/Src/stm32g0xx_hal_dma.c ****     {
 435:Drivers/STM32G0xx_HAL_Driver/Src/stm32g0xx_hal_dma.c ****       /* if using DMAMUX request generator, enable the DMAMUX request generator overrun IT*/
 436:Drivers/STM32G0xx_HAL_Driver/Src/stm32g0xx_hal_dma.c ****       /* enable the request gen overrun IT*/
 437:Drivers/STM32G0xx_HAL_Driver/Src/stm32g0xx_hal_dma.c ****       hdma->DMAmuxRequestGen->RGCR |= DMAMUX_RGxCR_OIE;
 438:Drivers/STM32G0xx_HAL_Driver/Src/stm32g0xx_hal_dma.c ****     }
 439:Drivers/STM32G0xx_HAL_Driver/Src/stm32g0xx_hal_dma.c **** 
 440:Drivers/STM32G0xx_HAL_Driver/Src/stm32g0xx_hal_dma.c ****     /* Enable the Peripheral */
 441:Drivers/STM32G0xx_HAL_Driver/Src/stm32g0xx_hal_dma.c ****     __HAL_DMA_ENABLE(hdma);
 442:Drivers/STM32G0xx_HAL_Driver/Src/stm32g0xx_hal_dma.c ****   }
 443:Drivers/STM32G0xx_HAL_Driver/Src/stm32g0xx_hal_dma.c ****   else
 444:Drivers/STM32G0xx_HAL_Driver/Src/stm32g0xx_hal_dma.c ****   {
 445:Drivers/STM32G0xx_HAL_Driver/Src/stm32g0xx_hal_dma.c ****     /* Process Unlocked */
 446:Drivers/STM32G0xx_HAL_Driver/Src/stm32g0xx_hal_dma.c ****     __HAL_UNLOCK(hdma);
 447:Drivers/STM32G0xx_HAL_Driver/Src/stm32g0xx_hal_dma.c **** 
 448:Drivers/STM32G0xx_HAL_Driver/Src/stm32g0xx_hal_dma.c ****     /* Remain BUSY */
 449:Drivers/STM32G0xx_HAL_Driver/Src/stm32g0xx_hal_dma.c ****     status = HAL_BUSY;
 450:Drivers/STM32G0xx_HAL_Driver/Src/stm32g0xx_hal_dma.c ****   }
 451:Drivers/STM32G0xx_HAL_Driver/Src/stm32g0xx_hal_dma.c **** 
 452:Drivers/STM32G0xx_HAL_Driver/Src/stm32g0xx_hal_dma.c ****   /* Process unlocked */
 453:Drivers/STM32G0xx_HAL_Driver/Src/stm32g0xx_hal_dma.c ****   __HAL_UNLOCK(hdma);
 454:Drivers/STM32G0xx_HAL_Driver/Src/stm32g0xx_hal_dma.c **** 
 455:Drivers/STM32G0xx_HAL_Driver/Src/stm32g0xx_hal_dma.c ****   return status;
 456:Drivers/STM32G0xx_HAL_Driver/Src/stm32g0xx_hal_dma.c **** }
 457:Drivers/STM32G0xx_HAL_Driver/Src/stm32g0xx_hal_dma.c **** 
 458:Drivers/STM32G0xx_HAL_Driver/Src/stm32g0xx_hal_dma.c **** /**
 459:Drivers/STM32G0xx_HAL_Driver/Src/stm32g0xx_hal_dma.c ****   * @brief  Abort the DMA Transfer.
 460:Drivers/STM32G0xx_HAL_Driver/Src/stm32g0xx_hal_dma.c ****   * @param hdma Pointer to a DMA_HandleTypeDef structure that contains
 461:Drivers/STM32G0xx_HAL_Driver/Src/stm32g0xx_hal_dma.c ****   *               the configuration information for the specified DMA Channel.
 462:Drivers/STM32G0xx_HAL_Driver/Src/stm32g0xx_hal_dma.c ****     * @retval HAL status
 463:Drivers/STM32G0xx_HAL_Driver/Src/stm32g0xx_hal_dma.c ****   */
 464:Drivers/STM32G0xx_HAL_Driver/Src/stm32g0xx_hal_dma.c **** HAL_StatusTypeDef HAL_DMA_Abort(DMA_HandleTypeDef *hdma)
 465:Drivers/STM32G0xx_HAL_Driver/Src/stm32g0xx_hal_dma.c **** {
 466:Drivers/STM32G0xx_HAL_Driver/Src/stm32g0xx_hal_dma.c ****   /* Check the DMA peripheral handle */
 467:Drivers/STM32G0xx_HAL_Driver/Src/stm32g0xx_hal_dma.c ****   if (NULL == hdma)
 468:Drivers/STM32G0xx_HAL_Driver/Src/stm32g0xx_hal_dma.c ****   {
 469:Drivers/STM32G0xx_HAL_Driver/Src/stm32g0xx_hal_dma.c ****     return HAL_ERROR;
 470:Drivers/STM32G0xx_HAL_Driver/Src/stm32g0xx_hal_dma.c ****   }
 471:Drivers/STM32G0xx_HAL_Driver/Src/stm32g0xx_hal_dma.c **** 
 472:Drivers/STM32G0xx_HAL_Driver/Src/stm32g0xx_hal_dma.c ****   /* Check the DMA peripheral state */
 473:Drivers/STM32G0xx_HAL_Driver/Src/stm32g0xx_hal_dma.c ****   if(hdma->State != HAL_DMA_STATE_BUSY)
 474:Drivers/STM32G0xx_HAL_Driver/Src/stm32g0xx_hal_dma.c ****   {
 475:Drivers/STM32G0xx_HAL_Driver/Src/stm32g0xx_hal_dma.c ****     hdma->ErrorCode = HAL_DMA_ERROR_NO_XFER;
 476:Drivers/STM32G0xx_HAL_Driver/Src/stm32g0xx_hal_dma.c **** 
 477:Drivers/STM32G0xx_HAL_Driver/Src/stm32g0xx_hal_dma.c ****     /* Process Unlocked */
 478:Drivers/STM32G0xx_HAL_Driver/Src/stm32g0xx_hal_dma.c ****     __HAL_UNLOCK(hdma);
 479:Drivers/STM32G0xx_HAL_Driver/Src/stm32g0xx_hal_dma.c **** 
 480:Drivers/STM32G0xx_HAL_Driver/Src/stm32g0xx_hal_dma.c ****     return HAL_ERROR;
 481:Drivers/STM32G0xx_HAL_Driver/Src/stm32g0xx_hal_dma.c ****   }
 482:Drivers/STM32G0xx_HAL_Driver/Src/stm32g0xx_hal_dma.c ****   else
 483:Drivers/STM32G0xx_HAL_Driver/Src/stm32g0xx_hal_dma.c ****   {
 484:Drivers/STM32G0xx_HAL_Driver/Src/stm32g0xx_hal_dma.c ****     /* Disable DMA IT */
 485:Drivers/STM32G0xx_HAL_Driver/Src/stm32g0xx_hal_dma.c ****     __HAL_DMA_DISABLE_IT(hdma, (DMA_IT_TC | DMA_IT_HT | DMA_IT_TE));
 486:Drivers/STM32G0xx_HAL_Driver/Src/stm32g0xx_hal_dma.c **** 
 487:Drivers/STM32G0xx_HAL_Driver/Src/stm32g0xx_hal_dma.c ****     /* disable the DMAMUX sync overrun IT*/
 488:Drivers/STM32G0xx_HAL_Driver/Src/stm32g0xx_hal_dma.c ****     hdma->DMAmuxChannel->CCR &= ~DMAMUX_CxCR_SOIE;
ARM GAS  /var/folders/cw/6cmm0b_n7yj10n1wx8hfx52r0000gn/T//ccoyqBc2.s 			page 10


 489:Drivers/STM32G0xx_HAL_Driver/Src/stm32g0xx_hal_dma.c **** 
 490:Drivers/STM32G0xx_HAL_Driver/Src/stm32g0xx_hal_dma.c ****     /* Disable the channel */
 491:Drivers/STM32G0xx_HAL_Driver/Src/stm32g0xx_hal_dma.c ****     __HAL_DMA_DISABLE(hdma);
 492:Drivers/STM32G0xx_HAL_Driver/Src/stm32g0xx_hal_dma.c **** 
 493:Drivers/STM32G0xx_HAL_Driver/Src/stm32g0xx_hal_dma.c ****     /* Clear all flags */
 494:Drivers/STM32G0xx_HAL_Driver/Src/stm32g0xx_hal_dma.c ****     __HAL_DMA_CLEAR_FLAG(hdma, ((DMA_FLAG_GI1) << (hdma->ChannelIndex  & 0x1cU)));
 495:Drivers/STM32G0xx_HAL_Driver/Src/stm32g0xx_hal_dma.c **** 
 496:Drivers/STM32G0xx_HAL_Driver/Src/stm32g0xx_hal_dma.c ****     /* Clear the DMAMUX synchro overrun flag */
 497:Drivers/STM32G0xx_HAL_Driver/Src/stm32g0xx_hal_dma.c ****     hdma->DMAmuxChannelStatus->CFR = hdma->DMAmuxChannelStatusMask;
 498:Drivers/STM32G0xx_HAL_Driver/Src/stm32g0xx_hal_dma.c **** 
 499:Drivers/STM32G0xx_HAL_Driver/Src/stm32g0xx_hal_dma.c ****     if (hdma->DMAmuxRequestGen != 0U)
 500:Drivers/STM32G0xx_HAL_Driver/Src/stm32g0xx_hal_dma.c ****     {
 501:Drivers/STM32G0xx_HAL_Driver/Src/stm32g0xx_hal_dma.c ****       /* if using DMAMUX request generator, disable the DMAMUX request generator overrun IT*/
 502:Drivers/STM32G0xx_HAL_Driver/Src/stm32g0xx_hal_dma.c ****       /* disable the request gen overrun IT*/
 503:Drivers/STM32G0xx_HAL_Driver/Src/stm32g0xx_hal_dma.c ****       hdma->DMAmuxRequestGen->RGCR &= ~DMAMUX_RGxCR_OIE;
 504:Drivers/STM32G0xx_HAL_Driver/Src/stm32g0xx_hal_dma.c **** 
 505:Drivers/STM32G0xx_HAL_Driver/Src/stm32g0xx_hal_dma.c ****       /* Clear the DMAMUX request generator overrun flag */
 506:Drivers/STM32G0xx_HAL_Driver/Src/stm32g0xx_hal_dma.c ****       hdma->DMAmuxRequestGenStatus->RGCFR = hdma->DMAmuxRequestGenStatusMask;
 507:Drivers/STM32G0xx_HAL_Driver/Src/stm32g0xx_hal_dma.c ****     }
 508:Drivers/STM32G0xx_HAL_Driver/Src/stm32g0xx_hal_dma.c **** 
 509:Drivers/STM32G0xx_HAL_Driver/Src/stm32g0xx_hal_dma.c ****     /* Change the DMA state */
 510:Drivers/STM32G0xx_HAL_Driver/Src/stm32g0xx_hal_dma.c ****     hdma->State = HAL_DMA_STATE_READY;
 511:Drivers/STM32G0xx_HAL_Driver/Src/stm32g0xx_hal_dma.c **** 
 512:Drivers/STM32G0xx_HAL_Driver/Src/stm32g0xx_hal_dma.c ****     /* Process Unlocked */
 513:Drivers/STM32G0xx_HAL_Driver/Src/stm32g0xx_hal_dma.c ****     __HAL_UNLOCK(hdma);
 514:Drivers/STM32G0xx_HAL_Driver/Src/stm32g0xx_hal_dma.c ****   }
 515:Drivers/STM32G0xx_HAL_Driver/Src/stm32g0xx_hal_dma.c **** 
 516:Drivers/STM32G0xx_HAL_Driver/Src/stm32g0xx_hal_dma.c ****   return HAL_OK;
 517:Drivers/STM32G0xx_HAL_Driver/Src/stm32g0xx_hal_dma.c **** }
 518:Drivers/STM32G0xx_HAL_Driver/Src/stm32g0xx_hal_dma.c **** 
 519:Drivers/STM32G0xx_HAL_Driver/Src/stm32g0xx_hal_dma.c **** /**
 520:Drivers/STM32G0xx_HAL_Driver/Src/stm32g0xx_hal_dma.c ****   * @brief  Aborts the DMA Transfer in Interrupt mode.
 521:Drivers/STM32G0xx_HAL_Driver/Src/stm32g0xx_hal_dma.c ****   * @param  hdma    pointer to a DMA_HandleTypeDef structure that contains
 522:Drivers/STM32G0xx_HAL_Driver/Src/stm32g0xx_hal_dma.c ****   *                 the configuration information for the specified DMA Stream.
 523:Drivers/STM32G0xx_HAL_Driver/Src/stm32g0xx_hal_dma.c ****   * @retval HAL status
 524:Drivers/STM32G0xx_HAL_Driver/Src/stm32g0xx_hal_dma.c ****   */
 525:Drivers/STM32G0xx_HAL_Driver/Src/stm32g0xx_hal_dma.c **** HAL_StatusTypeDef HAL_DMA_Abort_IT(DMA_HandleTypeDef *hdma)
 526:Drivers/STM32G0xx_HAL_Driver/Src/stm32g0xx_hal_dma.c **** {
 527:Drivers/STM32G0xx_HAL_Driver/Src/stm32g0xx_hal_dma.c ****   HAL_StatusTypeDef status = HAL_OK;
 528:Drivers/STM32G0xx_HAL_Driver/Src/stm32g0xx_hal_dma.c **** 
 529:Drivers/STM32G0xx_HAL_Driver/Src/stm32g0xx_hal_dma.c ****   /* Process Unlocked/locked */
 530:Drivers/STM32G0xx_HAL_Driver/Src/stm32g0xx_hal_dma.c ****   __HAL_UNLOCK(hdma);
 531:Drivers/STM32G0xx_HAL_Driver/Src/stm32g0xx_hal_dma.c ****   __HAL_LOCK(hdma);
 532:Drivers/STM32G0xx_HAL_Driver/Src/stm32g0xx_hal_dma.c **** 
 533:Drivers/STM32G0xx_HAL_Driver/Src/stm32g0xx_hal_dma.c ****   if (HAL_DMA_STATE_BUSY != hdma->State)
 534:Drivers/STM32G0xx_HAL_Driver/Src/stm32g0xx_hal_dma.c ****   {
 535:Drivers/STM32G0xx_HAL_Driver/Src/stm32g0xx_hal_dma.c ****     /* no transfer ongoing */
 536:Drivers/STM32G0xx_HAL_Driver/Src/stm32g0xx_hal_dma.c ****     hdma->ErrorCode = HAL_DMA_ERROR_NO_XFER;
 537:Drivers/STM32G0xx_HAL_Driver/Src/stm32g0xx_hal_dma.c **** 
 538:Drivers/STM32G0xx_HAL_Driver/Src/stm32g0xx_hal_dma.c ****     status = HAL_ERROR;
 539:Drivers/STM32G0xx_HAL_Driver/Src/stm32g0xx_hal_dma.c ****   }
 540:Drivers/STM32G0xx_HAL_Driver/Src/stm32g0xx_hal_dma.c ****   else
 541:Drivers/STM32G0xx_HAL_Driver/Src/stm32g0xx_hal_dma.c ****   {
 542:Drivers/STM32G0xx_HAL_Driver/Src/stm32g0xx_hal_dma.c ****     /* Disable DMA IT */
 543:Drivers/STM32G0xx_HAL_Driver/Src/stm32g0xx_hal_dma.c ****     __HAL_DMA_DISABLE_IT(hdma, (DMA_IT_TC | DMA_IT_HT | DMA_IT_TE));
 544:Drivers/STM32G0xx_HAL_Driver/Src/stm32g0xx_hal_dma.c **** 
 545:Drivers/STM32G0xx_HAL_Driver/Src/stm32g0xx_hal_dma.c ****     /* Disable the channel */
ARM GAS  /var/folders/cw/6cmm0b_n7yj10n1wx8hfx52r0000gn/T//ccoyqBc2.s 			page 11


 546:Drivers/STM32G0xx_HAL_Driver/Src/stm32g0xx_hal_dma.c ****     __HAL_DMA_DISABLE(hdma);
 547:Drivers/STM32G0xx_HAL_Driver/Src/stm32g0xx_hal_dma.c **** 
 548:Drivers/STM32G0xx_HAL_Driver/Src/stm32g0xx_hal_dma.c ****     /* disable the DMAMUX sync overrun IT*/
 549:Drivers/STM32G0xx_HAL_Driver/Src/stm32g0xx_hal_dma.c ****     hdma->DMAmuxChannel->CCR &= ~DMAMUX_CxCR_SOIE;
 550:Drivers/STM32G0xx_HAL_Driver/Src/stm32g0xx_hal_dma.c **** 
 551:Drivers/STM32G0xx_HAL_Driver/Src/stm32g0xx_hal_dma.c ****     /* Clear all flags */
 552:Drivers/STM32G0xx_HAL_Driver/Src/stm32g0xx_hal_dma.c ****     __HAL_DMA_CLEAR_FLAG(hdma, ((DMA_FLAG_GI1) << (hdma->ChannelIndex & 0x1cU)));
 553:Drivers/STM32G0xx_HAL_Driver/Src/stm32g0xx_hal_dma.c **** 
 554:Drivers/STM32G0xx_HAL_Driver/Src/stm32g0xx_hal_dma.c ****     /* Clear the DMAMUX synchro overrun flag */
 555:Drivers/STM32G0xx_HAL_Driver/Src/stm32g0xx_hal_dma.c ****     hdma->DMAmuxChannelStatus->CFR = hdma->DMAmuxChannelStatusMask;
 556:Drivers/STM32G0xx_HAL_Driver/Src/stm32g0xx_hal_dma.c **** 
 557:Drivers/STM32G0xx_HAL_Driver/Src/stm32g0xx_hal_dma.c ****     if (hdma->DMAmuxRequestGen != 0U)
 558:Drivers/STM32G0xx_HAL_Driver/Src/stm32g0xx_hal_dma.c ****     {
 559:Drivers/STM32G0xx_HAL_Driver/Src/stm32g0xx_hal_dma.c ****       /* if using DMAMUX request generator, disable the DMAMUX request generator overrun IT*/
 560:Drivers/STM32G0xx_HAL_Driver/Src/stm32g0xx_hal_dma.c ****       /* disable the request gen overrun IT*/
 561:Drivers/STM32G0xx_HAL_Driver/Src/stm32g0xx_hal_dma.c ****       hdma->DMAmuxRequestGen->RGCR &= ~DMAMUX_RGxCR_OIE;
 562:Drivers/STM32G0xx_HAL_Driver/Src/stm32g0xx_hal_dma.c **** 
 563:Drivers/STM32G0xx_HAL_Driver/Src/stm32g0xx_hal_dma.c ****       /* Clear the DMAMUX request generator overrun flag */
 564:Drivers/STM32G0xx_HAL_Driver/Src/stm32g0xx_hal_dma.c ****       hdma->DMAmuxRequestGenStatus->RGCFR = hdma->DMAmuxRequestGenStatusMask;
 565:Drivers/STM32G0xx_HAL_Driver/Src/stm32g0xx_hal_dma.c ****     }
 566:Drivers/STM32G0xx_HAL_Driver/Src/stm32g0xx_hal_dma.c **** 
 567:Drivers/STM32G0xx_HAL_Driver/Src/stm32g0xx_hal_dma.c ****     /* Change the DMA state */
 568:Drivers/STM32G0xx_HAL_Driver/Src/stm32g0xx_hal_dma.c ****     hdma->State = HAL_DMA_STATE_READY;
 569:Drivers/STM32G0xx_HAL_Driver/Src/stm32g0xx_hal_dma.c **** 
 570:Drivers/STM32G0xx_HAL_Driver/Src/stm32g0xx_hal_dma.c ****     /* Process Unlocked */
 571:Drivers/STM32G0xx_HAL_Driver/Src/stm32g0xx_hal_dma.c ****     __HAL_UNLOCK(hdma);
 572:Drivers/STM32G0xx_HAL_Driver/Src/stm32g0xx_hal_dma.c **** 
 573:Drivers/STM32G0xx_HAL_Driver/Src/stm32g0xx_hal_dma.c ****     /* Call User Abort callback */
 574:Drivers/STM32G0xx_HAL_Driver/Src/stm32g0xx_hal_dma.c ****     if (hdma->XferAbortCallback != NULL)
 575:Drivers/STM32G0xx_HAL_Driver/Src/stm32g0xx_hal_dma.c ****     {
 576:Drivers/STM32G0xx_HAL_Driver/Src/stm32g0xx_hal_dma.c ****       hdma->XferAbortCallback(hdma);
 577:Drivers/STM32G0xx_HAL_Driver/Src/stm32g0xx_hal_dma.c ****     }
 578:Drivers/STM32G0xx_HAL_Driver/Src/stm32g0xx_hal_dma.c ****   }
 579:Drivers/STM32G0xx_HAL_Driver/Src/stm32g0xx_hal_dma.c ****   return status;
 580:Drivers/STM32G0xx_HAL_Driver/Src/stm32g0xx_hal_dma.c **** }
 581:Drivers/STM32G0xx_HAL_Driver/Src/stm32g0xx_hal_dma.c **** 
 582:Drivers/STM32G0xx_HAL_Driver/Src/stm32g0xx_hal_dma.c **** /**
 583:Drivers/STM32G0xx_HAL_Driver/Src/stm32g0xx_hal_dma.c ****   * @brief  Polling for transfer complete.
 584:Drivers/STM32G0xx_HAL_Driver/Src/stm32g0xx_hal_dma.c ****   * @param hdma Pointer to a DMA_HandleTypeDef structure that contains
 585:Drivers/STM32G0xx_HAL_Driver/Src/stm32g0xx_hal_dma.c ****   *                  the configuration information for the specified DMA Channel.
 586:Drivers/STM32G0xx_HAL_Driver/Src/stm32g0xx_hal_dma.c ****   * @param CompleteLevel Specifies the DMA level complete.
 587:Drivers/STM32G0xx_HAL_Driver/Src/stm32g0xx_hal_dma.c ****   * @param Timeout Timeout duration.
 588:Drivers/STM32G0xx_HAL_Driver/Src/stm32g0xx_hal_dma.c ****   * @retval HAL status
 589:Drivers/STM32G0xx_HAL_Driver/Src/stm32g0xx_hal_dma.c ****   */
 590:Drivers/STM32G0xx_HAL_Driver/Src/stm32g0xx_hal_dma.c **** HAL_StatusTypeDef HAL_DMA_PollForTransfer(DMA_HandleTypeDef *hdma, HAL_DMA_LevelCompleteTypeDef Com
 591:Drivers/STM32G0xx_HAL_Driver/Src/stm32g0xx_hal_dma.c **** {
 592:Drivers/STM32G0xx_HAL_Driver/Src/stm32g0xx_hal_dma.c ****   uint32_t temp;
 593:Drivers/STM32G0xx_HAL_Driver/Src/stm32g0xx_hal_dma.c ****   uint32_t tickstart;
 594:Drivers/STM32G0xx_HAL_Driver/Src/stm32g0xx_hal_dma.c **** 
 595:Drivers/STM32G0xx_HAL_Driver/Src/stm32g0xx_hal_dma.c ****   /* Process unlocked */
 596:Drivers/STM32G0xx_HAL_Driver/Src/stm32g0xx_hal_dma.c ****   __HAL_UNLOCK(hdma);
 597:Drivers/STM32G0xx_HAL_Driver/Src/stm32g0xx_hal_dma.c **** 
 598:Drivers/STM32G0xx_HAL_Driver/Src/stm32g0xx_hal_dma.c ****   if (HAL_DMA_STATE_BUSY != hdma->State)
 599:Drivers/STM32G0xx_HAL_Driver/Src/stm32g0xx_hal_dma.c ****   {
 600:Drivers/STM32G0xx_HAL_Driver/Src/stm32g0xx_hal_dma.c ****     /* no transfer ongoing */
 601:Drivers/STM32G0xx_HAL_Driver/Src/stm32g0xx_hal_dma.c ****     hdma->ErrorCode = HAL_DMA_ERROR_NO_XFER;
 602:Drivers/STM32G0xx_HAL_Driver/Src/stm32g0xx_hal_dma.c ****     __HAL_UNLOCK(hdma);
ARM GAS  /var/folders/cw/6cmm0b_n7yj10n1wx8hfx52r0000gn/T//ccoyqBc2.s 			page 12


 603:Drivers/STM32G0xx_HAL_Driver/Src/stm32g0xx_hal_dma.c ****     return HAL_ERROR;
 604:Drivers/STM32G0xx_HAL_Driver/Src/stm32g0xx_hal_dma.c ****   }
 605:Drivers/STM32G0xx_HAL_Driver/Src/stm32g0xx_hal_dma.c **** 
 606:Drivers/STM32G0xx_HAL_Driver/Src/stm32g0xx_hal_dma.c ****   /* Polling mode not supported in circular mode */
 607:Drivers/STM32G0xx_HAL_Driver/Src/stm32g0xx_hal_dma.c ****   if ((hdma->Instance->CCR & DMA_CCR_CIRC) != 0U)
 608:Drivers/STM32G0xx_HAL_Driver/Src/stm32g0xx_hal_dma.c ****   {
 609:Drivers/STM32G0xx_HAL_Driver/Src/stm32g0xx_hal_dma.c ****     hdma->ErrorCode = HAL_DMA_ERROR_NOT_SUPPORTED;
 610:Drivers/STM32G0xx_HAL_Driver/Src/stm32g0xx_hal_dma.c ****     return HAL_ERROR;
 611:Drivers/STM32G0xx_HAL_Driver/Src/stm32g0xx_hal_dma.c ****   }
 612:Drivers/STM32G0xx_HAL_Driver/Src/stm32g0xx_hal_dma.c **** 
 613:Drivers/STM32G0xx_HAL_Driver/Src/stm32g0xx_hal_dma.c ****   /* Get the level transfer complete flag */
 614:Drivers/STM32G0xx_HAL_Driver/Src/stm32g0xx_hal_dma.c ****   if (HAL_DMA_FULL_TRANSFER == CompleteLevel)
 615:Drivers/STM32G0xx_HAL_Driver/Src/stm32g0xx_hal_dma.c ****   {
 616:Drivers/STM32G0xx_HAL_Driver/Src/stm32g0xx_hal_dma.c ****     /* Transfer Complete flag */
 617:Drivers/STM32G0xx_HAL_Driver/Src/stm32g0xx_hal_dma.c ****     temp = DMA_FLAG_TC1 << (hdma->ChannelIndex & 0x1cU);
 618:Drivers/STM32G0xx_HAL_Driver/Src/stm32g0xx_hal_dma.c ****   }
 619:Drivers/STM32G0xx_HAL_Driver/Src/stm32g0xx_hal_dma.c ****   else
 620:Drivers/STM32G0xx_HAL_Driver/Src/stm32g0xx_hal_dma.c ****   {
 621:Drivers/STM32G0xx_HAL_Driver/Src/stm32g0xx_hal_dma.c ****     /* Half Transfer Complete flag */
 622:Drivers/STM32G0xx_HAL_Driver/Src/stm32g0xx_hal_dma.c ****     temp = DMA_FLAG_HT1 << (hdma->ChannelIndex  & 0x1cU);
 623:Drivers/STM32G0xx_HAL_Driver/Src/stm32g0xx_hal_dma.c ****   }
 624:Drivers/STM32G0xx_HAL_Driver/Src/stm32g0xx_hal_dma.c **** 
 625:Drivers/STM32G0xx_HAL_Driver/Src/stm32g0xx_hal_dma.c ****   /* Get tick */
 626:Drivers/STM32G0xx_HAL_Driver/Src/stm32g0xx_hal_dma.c ****   tickstart = HAL_GetTick();
 627:Drivers/STM32G0xx_HAL_Driver/Src/stm32g0xx_hal_dma.c **** 
 628:Drivers/STM32G0xx_HAL_Driver/Src/stm32g0xx_hal_dma.c ****   while (0U == __HAL_DMA_GET_FLAG(hdma, temp))
 629:Drivers/STM32G0xx_HAL_Driver/Src/stm32g0xx_hal_dma.c ****   {
 630:Drivers/STM32G0xx_HAL_Driver/Src/stm32g0xx_hal_dma.c ****     if (0U != __HAL_DMA_GET_FLAG(hdma, (DMA_FLAG_TE1 << (hdma->ChannelIndex & 0x1cU))))
 631:Drivers/STM32G0xx_HAL_Driver/Src/stm32g0xx_hal_dma.c ****     {
 632:Drivers/STM32G0xx_HAL_Driver/Src/stm32g0xx_hal_dma.c ****       /* When a DMA transfer error occurs */
 633:Drivers/STM32G0xx_HAL_Driver/Src/stm32g0xx_hal_dma.c ****       /* A hardware clear of its EN bits is performed */
 634:Drivers/STM32G0xx_HAL_Driver/Src/stm32g0xx_hal_dma.c ****       /* Clear all flags */
 635:Drivers/STM32G0xx_HAL_Driver/Src/stm32g0xx_hal_dma.c ****       __HAL_DMA_CLEAR_FLAG(hdma, ((DMA_FLAG_GI1) << (hdma->ChannelIndex & 0x1cU)));
 636:Drivers/STM32G0xx_HAL_Driver/Src/stm32g0xx_hal_dma.c **** 
 637:Drivers/STM32G0xx_HAL_Driver/Src/stm32g0xx_hal_dma.c ****       /* Update error code */
 638:Drivers/STM32G0xx_HAL_Driver/Src/stm32g0xx_hal_dma.c ****       hdma->ErrorCode = HAL_DMA_ERROR_TE;
 639:Drivers/STM32G0xx_HAL_Driver/Src/stm32g0xx_hal_dma.c **** 
 640:Drivers/STM32G0xx_HAL_Driver/Src/stm32g0xx_hal_dma.c ****       /* Change the DMA state */
 641:Drivers/STM32G0xx_HAL_Driver/Src/stm32g0xx_hal_dma.c ****       hdma->State = HAL_DMA_STATE_READY;
 642:Drivers/STM32G0xx_HAL_Driver/Src/stm32g0xx_hal_dma.c **** 
 643:Drivers/STM32G0xx_HAL_Driver/Src/stm32g0xx_hal_dma.c ****       /* Process Unlocked */
 644:Drivers/STM32G0xx_HAL_Driver/Src/stm32g0xx_hal_dma.c ****       __HAL_UNLOCK(hdma);
 645:Drivers/STM32G0xx_HAL_Driver/Src/stm32g0xx_hal_dma.c **** 
 646:Drivers/STM32G0xx_HAL_Driver/Src/stm32g0xx_hal_dma.c ****       return HAL_ERROR;
 647:Drivers/STM32G0xx_HAL_Driver/Src/stm32g0xx_hal_dma.c ****     }
 648:Drivers/STM32G0xx_HAL_Driver/Src/stm32g0xx_hal_dma.c ****     /* Check for the Timeout */
 649:Drivers/STM32G0xx_HAL_Driver/Src/stm32g0xx_hal_dma.c ****     if (Timeout != HAL_MAX_DELAY)
 650:Drivers/STM32G0xx_HAL_Driver/Src/stm32g0xx_hal_dma.c ****     {
 651:Drivers/STM32G0xx_HAL_Driver/Src/stm32g0xx_hal_dma.c ****       if(((HAL_GetTick() - tickstart ) > Timeout)||(Timeout == 0U))
 652:Drivers/STM32G0xx_HAL_Driver/Src/stm32g0xx_hal_dma.c ****       {
 653:Drivers/STM32G0xx_HAL_Driver/Src/stm32g0xx_hal_dma.c ****         /* Update error code */
 654:Drivers/STM32G0xx_HAL_Driver/Src/stm32g0xx_hal_dma.c ****         hdma->ErrorCode = HAL_DMA_ERROR_TIMEOUT;
 655:Drivers/STM32G0xx_HAL_Driver/Src/stm32g0xx_hal_dma.c **** 
 656:Drivers/STM32G0xx_HAL_Driver/Src/stm32g0xx_hal_dma.c ****         /* Change the DMA state */
 657:Drivers/STM32G0xx_HAL_Driver/Src/stm32g0xx_hal_dma.c ****         hdma->State = HAL_DMA_STATE_READY;
 658:Drivers/STM32G0xx_HAL_Driver/Src/stm32g0xx_hal_dma.c **** 
 659:Drivers/STM32G0xx_HAL_Driver/Src/stm32g0xx_hal_dma.c ****         /* Process Unlocked */
ARM GAS  /var/folders/cw/6cmm0b_n7yj10n1wx8hfx52r0000gn/T//ccoyqBc2.s 			page 13


 660:Drivers/STM32G0xx_HAL_Driver/Src/stm32g0xx_hal_dma.c ****         __HAL_UNLOCK(hdma);
 661:Drivers/STM32G0xx_HAL_Driver/Src/stm32g0xx_hal_dma.c **** 
 662:Drivers/STM32G0xx_HAL_Driver/Src/stm32g0xx_hal_dma.c ****         return HAL_ERROR;
 663:Drivers/STM32G0xx_HAL_Driver/Src/stm32g0xx_hal_dma.c ****       }
 664:Drivers/STM32G0xx_HAL_Driver/Src/stm32g0xx_hal_dma.c ****     }
 665:Drivers/STM32G0xx_HAL_Driver/Src/stm32g0xx_hal_dma.c ****   }
 666:Drivers/STM32G0xx_HAL_Driver/Src/stm32g0xx_hal_dma.c **** 
 667:Drivers/STM32G0xx_HAL_Driver/Src/stm32g0xx_hal_dma.c ****   /*Check for DMAMUX Request generator (if used) overrun status */
 668:Drivers/STM32G0xx_HAL_Driver/Src/stm32g0xx_hal_dma.c ****   if (hdma->DMAmuxRequestGen != 0U)
 669:Drivers/STM32G0xx_HAL_Driver/Src/stm32g0xx_hal_dma.c ****   {
 670:Drivers/STM32G0xx_HAL_Driver/Src/stm32g0xx_hal_dma.c ****     /* if using DMAMUX request generator Check for DMAMUX request generator overrun */
 671:Drivers/STM32G0xx_HAL_Driver/Src/stm32g0xx_hal_dma.c ****     if ((hdma->DMAmuxRequestGenStatus->RGSR & hdma->DMAmuxRequestGenStatusMask) != 0U)
 672:Drivers/STM32G0xx_HAL_Driver/Src/stm32g0xx_hal_dma.c ****     {
 673:Drivers/STM32G0xx_HAL_Driver/Src/stm32g0xx_hal_dma.c ****       /* Disable the request gen overrun interrupt */
 674:Drivers/STM32G0xx_HAL_Driver/Src/stm32g0xx_hal_dma.c ****       hdma->DMAmuxRequestGen->RGCR |= DMAMUX_RGxCR_OIE;
 675:Drivers/STM32G0xx_HAL_Driver/Src/stm32g0xx_hal_dma.c **** 
 676:Drivers/STM32G0xx_HAL_Driver/Src/stm32g0xx_hal_dma.c ****       /* Clear the DMAMUX request generator overrun flag */
 677:Drivers/STM32G0xx_HAL_Driver/Src/stm32g0xx_hal_dma.c ****       hdma->DMAmuxRequestGenStatus->RGCFR = hdma->DMAmuxRequestGenStatusMask;
 678:Drivers/STM32G0xx_HAL_Driver/Src/stm32g0xx_hal_dma.c **** 
 679:Drivers/STM32G0xx_HAL_Driver/Src/stm32g0xx_hal_dma.c ****       /* Update error code */
 680:Drivers/STM32G0xx_HAL_Driver/Src/stm32g0xx_hal_dma.c ****       hdma->ErrorCode |= HAL_DMA_ERROR_REQGEN;
 681:Drivers/STM32G0xx_HAL_Driver/Src/stm32g0xx_hal_dma.c ****     }
 682:Drivers/STM32G0xx_HAL_Driver/Src/stm32g0xx_hal_dma.c ****   }
 683:Drivers/STM32G0xx_HAL_Driver/Src/stm32g0xx_hal_dma.c **** 
 684:Drivers/STM32G0xx_HAL_Driver/Src/stm32g0xx_hal_dma.c ****   /* Check for DMAMUX Synchronization overrun */
 685:Drivers/STM32G0xx_HAL_Driver/Src/stm32g0xx_hal_dma.c ****   if ((hdma->DMAmuxChannelStatus->CSR & hdma->DMAmuxChannelStatusMask) != 0U)
 686:Drivers/STM32G0xx_HAL_Driver/Src/stm32g0xx_hal_dma.c ****   {
 687:Drivers/STM32G0xx_HAL_Driver/Src/stm32g0xx_hal_dma.c ****     /* Clear the DMAMUX synchro overrun flag */
 688:Drivers/STM32G0xx_HAL_Driver/Src/stm32g0xx_hal_dma.c ****     hdma->DMAmuxChannelStatus->CFR = hdma->DMAmuxChannelStatusMask;
 689:Drivers/STM32G0xx_HAL_Driver/Src/stm32g0xx_hal_dma.c **** 
 690:Drivers/STM32G0xx_HAL_Driver/Src/stm32g0xx_hal_dma.c ****     /* Update error code */
 691:Drivers/STM32G0xx_HAL_Driver/Src/stm32g0xx_hal_dma.c ****     hdma->ErrorCode |= HAL_DMA_ERROR_SYNC;
 692:Drivers/STM32G0xx_HAL_Driver/Src/stm32g0xx_hal_dma.c ****   }
 693:Drivers/STM32G0xx_HAL_Driver/Src/stm32g0xx_hal_dma.c **** 
 694:Drivers/STM32G0xx_HAL_Driver/Src/stm32g0xx_hal_dma.c ****   if (HAL_DMA_FULL_TRANSFER == CompleteLevel)
 695:Drivers/STM32G0xx_HAL_Driver/Src/stm32g0xx_hal_dma.c ****   {
 696:Drivers/STM32G0xx_HAL_Driver/Src/stm32g0xx_hal_dma.c ****     /* Clear the transfer complete flag */
 697:Drivers/STM32G0xx_HAL_Driver/Src/stm32g0xx_hal_dma.c ****     __HAL_DMA_CLEAR_FLAG(hdma, (DMA_FLAG_TC1 << (hdma->ChannelIndex & 0x1cU)));
 698:Drivers/STM32G0xx_HAL_Driver/Src/stm32g0xx_hal_dma.c **** 
 699:Drivers/STM32G0xx_HAL_Driver/Src/stm32g0xx_hal_dma.c ****     /* The selected Channelx EN bit is cleared (DMA is disabled and
 700:Drivers/STM32G0xx_HAL_Driver/Src/stm32g0xx_hal_dma.c ****     all transfers are complete) */
 701:Drivers/STM32G0xx_HAL_Driver/Src/stm32g0xx_hal_dma.c ****     hdma->State = HAL_DMA_STATE_READY;
 702:Drivers/STM32G0xx_HAL_Driver/Src/stm32g0xx_hal_dma.c ****   }
 703:Drivers/STM32G0xx_HAL_Driver/Src/stm32g0xx_hal_dma.c ****   else
 704:Drivers/STM32G0xx_HAL_Driver/Src/stm32g0xx_hal_dma.c ****   {
 705:Drivers/STM32G0xx_HAL_Driver/Src/stm32g0xx_hal_dma.c ****     /* Clear the half transfer complete flag */
 706:Drivers/STM32G0xx_HAL_Driver/Src/stm32g0xx_hal_dma.c ****     __HAL_DMA_CLEAR_FLAG(hdma, (DMA_FLAG_HT1 << (hdma->ChannelIndex & 0x1cU)));
 707:Drivers/STM32G0xx_HAL_Driver/Src/stm32g0xx_hal_dma.c ****   }
 708:Drivers/STM32G0xx_HAL_Driver/Src/stm32g0xx_hal_dma.c **** 
 709:Drivers/STM32G0xx_HAL_Driver/Src/stm32g0xx_hal_dma.c ****   /* Process unlocked */
 710:Drivers/STM32G0xx_HAL_Driver/Src/stm32g0xx_hal_dma.c ****   __HAL_UNLOCK(hdma);
 711:Drivers/STM32G0xx_HAL_Driver/Src/stm32g0xx_hal_dma.c **** 
 712:Drivers/STM32G0xx_HAL_Driver/Src/stm32g0xx_hal_dma.c ****   return HAL_OK;
 713:Drivers/STM32G0xx_HAL_Driver/Src/stm32g0xx_hal_dma.c **** }
 714:Drivers/STM32G0xx_HAL_Driver/Src/stm32g0xx_hal_dma.c **** 
 715:Drivers/STM32G0xx_HAL_Driver/Src/stm32g0xx_hal_dma.c **** /**
 716:Drivers/STM32G0xx_HAL_Driver/Src/stm32g0xx_hal_dma.c ****   * @brief  Handle DMA interrupt request.
ARM GAS  /var/folders/cw/6cmm0b_n7yj10n1wx8hfx52r0000gn/T//ccoyqBc2.s 			page 14


 717:Drivers/STM32G0xx_HAL_Driver/Src/stm32g0xx_hal_dma.c ****   * @param  hdma: pointer to a DMA_HandleTypeDef structure that contains
 718:Drivers/STM32G0xx_HAL_Driver/Src/stm32g0xx_hal_dma.c ****   *               the configuration information for the specified DMA Channel.
 719:Drivers/STM32G0xx_HAL_Driver/Src/stm32g0xx_hal_dma.c ****   * @retval None
 720:Drivers/STM32G0xx_HAL_Driver/Src/stm32g0xx_hal_dma.c ****   */
 721:Drivers/STM32G0xx_HAL_Driver/Src/stm32g0xx_hal_dma.c **** void HAL_DMA_IRQHandler(DMA_HandleTypeDef *hdma)
 722:Drivers/STM32G0xx_HAL_Driver/Src/stm32g0xx_hal_dma.c **** {
 723:Drivers/STM32G0xx_HAL_Driver/Src/stm32g0xx_hal_dma.c ****   uint32_t flag_it = DMA1->ISR;
 724:Drivers/STM32G0xx_HAL_Driver/Src/stm32g0xx_hal_dma.c ****   uint32_t source_it = hdma->Instance->CCR;
 725:Drivers/STM32G0xx_HAL_Driver/Src/stm32g0xx_hal_dma.c **** 
 726:Drivers/STM32G0xx_HAL_Driver/Src/stm32g0xx_hal_dma.c ****   /* Half Transfer Complete Interrupt management ******************************/
 727:Drivers/STM32G0xx_HAL_Driver/Src/stm32g0xx_hal_dma.c ****   if (((flag_it & (DMA_FLAG_HT1 << (hdma->ChannelIndex & 0x1cU))) != 0U) && ((source_it & DMA_IT_HT
 728:Drivers/STM32G0xx_HAL_Driver/Src/stm32g0xx_hal_dma.c ****   {
 729:Drivers/STM32G0xx_HAL_Driver/Src/stm32g0xx_hal_dma.c ****     /* Disable the half transfer interrupt if the DMA mode is not CIRCULAR */
 730:Drivers/STM32G0xx_HAL_Driver/Src/stm32g0xx_hal_dma.c ****     if ((hdma->Instance->CCR & DMA_CCR_CIRC) == 0U)
 731:Drivers/STM32G0xx_HAL_Driver/Src/stm32g0xx_hal_dma.c ****     {
 732:Drivers/STM32G0xx_HAL_Driver/Src/stm32g0xx_hal_dma.c ****       /* Disable the half transfer interrupt */
 733:Drivers/STM32G0xx_HAL_Driver/Src/stm32g0xx_hal_dma.c ****       __HAL_DMA_DISABLE_IT(hdma, DMA_IT_HT);
 734:Drivers/STM32G0xx_HAL_Driver/Src/stm32g0xx_hal_dma.c ****     }
 735:Drivers/STM32G0xx_HAL_Driver/Src/stm32g0xx_hal_dma.c ****     /* Clear the half transfer complete flag */
 736:Drivers/STM32G0xx_HAL_Driver/Src/stm32g0xx_hal_dma.c ****     __HAL_DMA_CLEAR_FLAG(hdma, (DMA_FLAG_HT1 << (hdma->ChannelIndex & 0x1cU)));
 737:Drivers/STM32G0xx_HAL_Driver/Src/stm32g0xx_hal_dma.c **** 
 738:Drivers/STM32G0xx_HAL_Driver/Src/stm32g0xx_hal_dma.c ****     /* DMA peripheral state is not updated in Half Transfer */
 739:Drivers/STM32G0xx_HAL_Driver/Src/stm32g0xx_hal_dma.c ****     /* but in Transfer Complete case */
 740:Drivers/STM32G0xx_HAL_Driver/Src/stm32g0xx_hal_dma.c **** 
 741:Drivers/STM32G0xx_HAL_Driver/Src/stm32g0xx_hal_dma.c ****     if (hdma->XferHalfCpltCallback != NULL)
 742:Drivers/STM32G0xx_HAL_Driver/Src/stm32g0xx_hal_dma.c ****     {
 743:Drivers/STM32G0xx_HAL_Driver/Src/stm32g0xx_hal_dma.c ****       /* Half transfer callback */
 744:Drivers/STM32G0xx_HAL_Driver/Src/stm32g0xx_hal_dma.c ****       hdma->XferHalfCpltCallback(hdma);
 745:Drivers/STM32G0xx_HAL_Driver/Src/stm32g0xx_hal_dma.c ****     }
 746:Drivers/STM32G0xx_HAL_Driver/Src/stm32g0xx_hal_dma.c ****   }
 747:Drivers/STM32G0xx_HAL_Driver/Src/stm32g0xx_hal_dma.c **** 
 748:Drivers/STM32G0xx_HAL_Driver/Src/stm32g0xx_hal_dma.c ****   /* Transfer Complete Interrupt management ***********************************/
 749:Drivers/STM32G0xx_HAL_Driver/Src/stm32g0xx_hal_dma.c ****   else if ((0U != (flag_it & (DMA_FLAG_TC1 << (hdma->ChannelIndex & 0x1cU)))) && (0U != (source_it 
 750:Drivers/STM32G0xx_HAL_Driver/Src/stm32g0xx_hal_dma.c ****   {
 751:Drivers/STM32G0xx_HAL_Driver/Src/stm32g0xx_hal_dma.c ****     if ((hdma->Instance->CCR & DMA_CCR_CIRC) == 0U)
 752:Drivers/STM32G0xx_HAL_Driver/Src/stm32g0xx_hal_dma.c ****     {
 753:Drivers/STM32G0xx_HAL_Driver/Src/stm32g0xx_hal_dma.c ****       /* Disable the transfer complete and error interrupt */
 754:Drivers/STM32G0xx_HAL_Driver/Src/stm32g0xx_hal_dma.c ****       __HAL_DMA_DISABLE_IT(hdma, DMA_IT_TE | DMA_IT_TC);
 755:Drivers/STM32G0xx_HAL_Driver/Src/stm32g0xx_hal_dma.c **** 
 756:Drivers/STM32G0xx_HAL_Driver/Src/stm32g0xx_hal_dma.c ****       /* Change the DMA state */
 757:Drivers/STM32G0xx_HAL_Driver/Src/stm32g0xx_hal_dma.c ****       hdma->State = HAL_DMA_STATE_READY;
 758:Drivers/STM32G0xx_HAL_Driver/Src/stm32g0xx_hal_dma.c ****     }
 759:Drivers/STM32G0xx_HAL_Driver/Src/stm32g0xx_hal_dma.c ****     /* Clear the transfer complete flag */
 760:Drivers/STM32G0xx_HAL_Driver/Src/stm32g0xx_hal_dma.c ****     __HAL_DMA_CLEAR_FLAG(hdma, (DMA_FLAG_TC1 << (hdma->ChannelIndex & 0x1cU)));
 761:Drivers/STM32G0xx_HAL_Driver/Src/stm32g0xx_hal_dma.c **** 
 762:Drivers/STM32G0xx_HAL_Driver/Src/stm32g0xx_hal_dma.c ****     /* Process Unlocked */
 763:Drivers/STM32G0xx_HAL_Driver/Src/stm32g0xx_hal_dma.c ****     __HAL_UNLOCK(hdma);
 764:Drivers/STM32G0xx_HAL_Driver/Src/stm32g0xx_hal_dma.c **** 
 765:Drivers/STM32G0xx_HAL_Driver/Src/stm32g0xx_hal_dma.c ****     if (hdma->XferCpltCallback != NULL)
 766:Drivers/STM32G0xx_HAL_Driver/Src/stm32g0xx_hal_dma.c ****     {
 767:Drivers/STM32G0xx_HAL_Driver/Src/stm32g0xx_hal_dma.c ****       /* Transfer complete callback */
 768:Drivers/STM32G0xx_HAL_Driver/Src/stm32g0xx_hal_dma.c ****       hdma->XferCpltCallback(hdma);
 769:Drivers/STM32G0xx_HAL_Driver/Src/stm32g0xx_hal_dma.c ****     }
 770:Drivers/STM32G0xx_HAL_Driver/Src/stm32g0xx_hal_dma.c ****   }
 771:Drivers/STM32G0xx_HAL_Driver/Src/stm32g0xx_hal_dma.c **** 
 772:Drivers/STM32G0xx_HAL_Driver/Src/stm32g0xx_hal_dma.c ****   /* Transfer Error Interrupt management **************************************/
 773:Drivers/STM32G0xx_HAL_Driver/Src/stm32g0xx_hal_dma.c ****   else if (((flag_it & (DMA_FLAG_TE1 << (hdma->ChannelIndex & 0x1cU)))!= 0U) && ((source_it & DMA_I
ARM GAS  /var/folders/cw/6cmm0b_n7yj10n1wx8hfx52r0000gn/T//ccoyqBc2.s 			page 15


 774:Drivers/STM32G0xx_HAL_Driver/Src/stm32g0xx_hal_dma.c ****   {
 775:Drivers/STM32G0xx_HAL_Driver/Src/stm32g0xx_hal_dma.c ****     /* When a DMA transfer error occurs */
 776:Drivers/STM32G0xx_HAL_Driver/Src/stm32g0xx_hal_dma.c ****     /* A hardware clear of its EN bits is performed */
 777:Drivers/STM32G0xx_HAL_Driver/Src/stm32g0xx_hal_dma.c ****     /* Disable ALL DMA IT */
 778:Drivers/STM32G0xx_HAL_Driver/Src/stm32g0xx_hal_dma.c ****     __HAL_DMA_DISABLE_IT(hdma, (DMA_IT_TC | DMA_IT_HT | DMA_IT_TE));
 779:Drivers/STM32G0xx_HAL_Driver/Src/stm32g0xx_hal_dma.c **** 
 780:Drivers/STM32G0xx_HAL_Driver/Src/stm32g0xx_hal_dma.c ****     /* Clear all flags */
 781:Drivers/STM32G0xx_HAL_Driver/Src/stm32g0xx_hal_dma.c ****     __HAL_DMA_CLEAR_FLAG(hdma, (DMA_FLAG_GI1 << (hdma->ChannelIndex& 0x1cU)));
 782:Drivers/STM32G0xx_HAL_Driver/Src/stm32g0xx_hal_dma.c **** 
 783:Drivers/STM32G0xx_HAL_Driver/Src/stm32g0xx_hal_dma.c ****     /* Update error code */
 784:Drivers/STM32G0xx_HAL_Driver/Src/stm32g0xx_hal_dma.c ****     hdma->ErrorCode = HAL_DMA_ERROR_TE;
 785:Drivers/STM32G0xx_HAL_Driver/Src/stm32g0xx_hal_dma.c **** 
 786:Drivers/STM32G0xx_HAL_Driver/Src/stm32g0xx_hal_dma.c ****     /* Change the DMA state */
 787:Drivers/STM32G0xx_HAL_Driver/Src/stm32g0xx_hal_dma.c ****     hdma->State = HAL_DMA_STATE_READY;
 788:Drivers/STM32G0xx_HAL_Driver/Src/stm32g0xx_hal_dma.c **** 
 789:Drivers/STM32G0xx_HAL_Driver/Src/stm32g0xx_hal_dma.c ****     /* Process Unlocked */
 790:Drivers/STM32G0xx_HAL_Driver/Src/stm32g0xx_hal_dma.c ****     __HAL_UNLOCK(hdma);
 791:Drivers/STM32G0xx_HAL_Driver/Src/stm32g0xx_hal_dma.c **** 
 792:Drivers/STM32G0xx_HAL_Driver/Src/stm32g0xx_hal_dma.c ****     if (hdma->XferErrorCallback != NULL)
 793:Drivers/STM32G0xx_HAL_Driver/Src/stm32g0xx_hal_dma.c ****     {
 794:Drivers/STM32G0xx_HAL_Driver/Src/stm32g0xx_hal_dma.c ****       /* Transfer error callback */
 795:Drivers/STM32G0xx_HAL_Driver/Src/stm32g0xx_hal_dma.c ****       hdma->XferErrorCallback(hdma);
 796:Drivers/STM32G0xx_HAL_Driver/Src/stm32g0xx_hal_dma.c ****     }
 797:Drivers/STM32G0xx_HAL_Driver/Src/stm32g0xx_hal_dma.c ****   }
 798:Drivers/STM32G0xx_HAL_Driver/Src/stm32g0xx_hal_dma.c ****   else
 799:Drivers/STM32G0xx_HAL_Driver/Src/stm32g0xx_hal_dma.c ****   {
 800:Drivers/STM32G0xx_HAL_Driver/Src/stm32g0xx_hal_dma.c ****     /* Nothing To Do */
 801:Drivers/STM32G0xx_HAL_Driver/Src/stm32g0xx_hal_dma.c ****   }
 802:Drivers/STM32G0xx_HAL_Driver/Src/stm32g0xx_hal_dma.c ****   return;
 803:Drivers/STM32G0xx_HAL_Driver/Src/stm32g0xx_hal_dma.c **** }
 804:Drivers/STM32G0xx_HAL_Driver/Src/stm32g0xx_hal_dma.c **** 
 805:Drivers/STM32G0xx_HAL_Driver/Src/stm32g0xx_hal_dma.c **** /**
 806:Drivers/STM32G0xx_HAL_Driver/Src/stm32g0xx_hal_dma.c ****   * @brief  Register callbacks
 807:Drivers/STM32G0xx_HAL_Driver/Src/stm32g0xx_hal_dma.c ****   * @param  hdma                  pointer to a DMA_HandleTypeDef structure that contains
 808:Drivers/STM32G0xx_HAL_Driver/Src/stm32g0xx_hal_dma.c ****   *                               the configuration information for the specified DMA Stream.
 809:Drivers/STM32G0xx_HAL_Driver/Src/stm32g0xx_hal_dma.c ****   * @param  CallbackID            User Callback identifer
 810:Drivers/STM32G0xx_HAL_Driver/Src/stm32g0xx_hal_dma.c ****   *                               a HAL_DMA_CallbackIDTypeDef ENUM as parameter.
 811:Drivers/STM32G0xx_HAL_Driver/Src/stm32g0xx_hal_dma.c ****   * @param  pCallback             pointer to private callbacsk function which has pointer to
 812:Drivers/STM32G0xx_HAL_Driver/Src/stm32g0xx_hal_dma.c ****   *                               a DMA_HandleTypeDef structure as parameter.
 813:Drivers/STM32G0xx_HAL_Driver/Src/stm32g0xx_hal_dma.c ****   * @retval HAL status
 814:Drivers/STM32G0xx_HAL_Driver/Src/stm32g0xx_hal_dma.c ****   */
 815:Drivers/STM32G0xx_HAL_Driver/Src/stm32g0xx_hal_dma.c **** HAL_StatusTypeDef HAL_DMA_RegisterCallback(DMA_HandleTypeDef *hdma, HAL_DMA_CallbackIDTypeDef Callb
 816:Drivers/STM32G0xx_HAL_Driver/Src/stm32g0xx_hal_dma.c **** {
 817:Drivers/STM32G0xx_HAL_Driver/Src/stm32g0xx_hal_dma.c ****   HAL_StatusTypeDef status = HAL_OK;
 818:Drivers/STM32G0xx_HAL_Driver/Src/stm32g0xx_hal_dma.c **** 
 819:Drivers/STM32G0xx_HAL_Driver/Src/stm32g0xx_hal_dma.c ****   /* Process locked */
 820:Drivers/STM32G0xx_HAL_Driver/Src/stm32g0xx_hal_dma.c ****   __HAL_LOCK(hdma);
 821:Drivers/STM32G0xx_HAL_Driver/Src/stm32g0xx_hal_dma.c **** 
 822:Drivers/STM32G0xx_HAL_Driver/Src/stm32g0xx_hal_dma.c ****   if (HAL_DMA_STATE_READY == hdma->State)
 823:Drivers/STM32G0xx_HAL_Driver/Src/stm32g0xx_hal_dma.c ****   {
 824:Drivers/STM32G0xx_HAL_Driver/Src/stm32g0xx_hal_dma.c ****     switch (CallbackID)
 825:Drivers/STM32G0xx_HAL_Driver/Src/stm32g0xx_hal_dma.c ****     {
 826:Drivers/STM32G0xx_HAL_Driver/Src/stm32g0xx_hal_dma.c ****       case  HAL_DMA_XFER_CPLT_CB_ID:
 827:Drivers/STM32G0xx_HAL_Driver/Src/stm32g0xx_hal_dma.c ****         hdma->XferCpltCallback = pCallback;
 828:Drivers/STM32G0xx_HAL_Driver/Src/stm32g0xx_hal_dma.c ****         break;
 829:Drivers/STM32G0xx_HAL_Driver/Src/stm32g0xx_hal_dma.c **** 
 830:Drivers/STM32G0xx_HAL_Driver/Src/stm32g0xx_hal_dma.c ****       case  HAL_DMA_XFER_HALFCPLT_CB_ID:
ARM GAS  /var/folders/cw/6cmm0b_n7yj10n1wx8hfx52r0000gn/T//ccoyqBc2.s 			page 16


 831:Drivers/STM32G0xx_HAL_Driver/Src/stm32g0xx_hal_dma.c ****         hdma->XferHalfCpltCallback = pCallback;
 832:Drivers/STM32G0xx_HAL_Driver/Src/stm32g0xx_hal_dma.c ****         break;
 833:Drivers/STM32G0xx_HAL_Driver/Src/stm32g0xx_hal_dma.c **** 
 834:Drivers/STM32G0xx_HAL_Driver/Src/stm32g0xx_hal_dma.c ****       case  HAL_DMA_XFER_ERROR_CB_ID:
 835:Drivers/STM32G0xx_HAL_Driver/Src/stm32g0xx_hal_dma.c ****         hdma->XferErrorCallback = pCallback;
 836:Drivers/STM32G0xx_HAL_Driver/Src/stm32g0xx_hal_dma.c ****         break;
 837:Drivers/STM32G0xx_HAL_Driver/Src/stm32g0xx_hal_dma.c **** 
 838:Drivers/STM32G0xx_HAL_Driver/Src/stm32g0xx_hal_dma.c ****       case  HAL_DMA_XFER_ABORT_CB_ID:
 839:Drivers/STM32G0xx_HAL_Driver/Src/stm32g0xx_hal_dma.c ****         hdma->XferAbortCallback = pCallback;
 840:Drivers/STM32G0xx_HAL_Driver/Src/stm32g0xx_hal_dma.c ****         break;
 841:Drivers/STM32G0xx_HAL_Driver/Src/stm32g0xx_hal_dma.c **** 
 842:Drivers/STM32G0xx_HAL_Driver/Src/stm32g0xx_hal_dma.c ****       default:
 843:Drivers/STM32G0xx_HAL_Driver/Src/stm32g0xx_hal_dma.c ****         status = HAL_ERROR;
 844:Drivers/STM32G0xx_HAL_Driver/Src/stm32g0xx_hal_dma.c ****         break;
 845:Drivers/STM32G0xx_HAL_Driver/Src/stm32g0xx_hal_dma.c ****     }
 846:Drivers/STM32G0xx_HAL_Driver/Src/stm32g0xx_hal_dma.c ****   }
 847:Drivers/STM32G0xx_HAL_Driver/Src/stm32g0xx_hal_dma.c ****   else
 848:Drivers/STM32G0xx_HAL_Driver/Src/stm32g0xx_hal_dma.c ****   {
 849:Drivers/STM32G0xx_HAL_Driver/Src/stm32g0xx_hal_dma.c ****     status = HAL_ERROR;
 850:Drivers/STM32G0xx_HAL_Driver/Src/stm32g0xx_hal_dma.c ****   }
 851:Drivers/STM32G0xx_HAL_Driver/Src/stm32g0xx_hal_dma.c **** 
 852:Drivers/STM32G0xx_HAL_Driver/Src/stm32g0xx_hal_dma.c ****   /* Release Lock */
 853:Drivers/STM32G0xx_HAL_Driver/Src/stm32g0xx_hal_dma.c ****   __HAL_UNLOCK(hdma);
 854:Drivers/STM32G0xx_HAL_Driver/Src/stm32g0xx_hal_dma.c **** 
 855:Drivers/STM32G0xx_HAL_Driver/Src/stm32g0xx_hal_dma.c ****   return status;
 856:Drivers/STM32G0xx_HAL_Driver/Src/stm32g0xx_hal_dma.c **** }
 857:Drivers/STM32G0xx_HAL_Driver/Src/stm32g0xx_hal_dma.c **** 
 858:Drivers/STM32G0xx_HAL_Driver/Src/stm32g0xx_hal_dma.c **** /**
 859:Drivers/STM32G0xx_HAL_Driver/Src/stm32g0xx_hal_dma.c ****   * @brief  UnRegister callbacks
 860:Drivers/STM32G0xx_HAL_Driver/Src/stm32g0xx_hal_dma.c ****   * @param  hdma                  pointer to a DMA_HandleTypeDef structure that contains
 861:Drivers/STM32G0xx_HAL_Driver/Src/stm32g0xx_hal_dma.c ****   *                               the configuration information for the specified DMA Stream.
 862:Drivers/STM32G0xx_HAL_Driver/Src/stm32g0xx_hal_dma.c ****   * @param  CallbackID            User Callback identifer
 863:Drivers/STM32G0xx_HAL_Driver/Src/stm32g0xx_hal_dma.c ****   *                               a HAL_DMA_CallbackIDTypeDef ENUM as parameter.
 864:Drivers/STM32G0xx_HAL_Driver/Src/stm32g0xx_hal_dma.c ****   * @retval HAL status
 865:Drivers/STM32G0xx_HAL_Driver/Src/stm32g0xx_hal_dma.c ****   */
 866:Drivers/STM32G0xx_HAL_Driver/Src/stm32g0xx_hal_dma.c **** HAL_StatusTypeDef HAL_DMA_UnRegisterCallback(DMA_HandleTypeDef *hdma, HAL_DMA_CallbackIDTypeDef Cal
 867:Drivers/STM32G0xx_HAL_Driver/Src/stm32g0xx_hal_dma.c **** {
 868:Drivers/STM32G0xx_HAL_Driver/Src/stm32g0xx_hal_dma.c ****   HAL_StatusTypeDef status = HAL_OK;
 869:Drivers/STM32G0xx_HAL_Driver/Src/stm32g0xx_hal_dma.c **** 
 870:Drivers/STM32G0xx_HAL_Driver/Src/stm32g0xx_hal_dma.c ****   /* Process locked */
 871:Drivers/STM32G0xx_HAL_Driver/Src/stm32g0xx_hal_dma.c ****   __HAL_LOCK(hdma);
 872:Drivers/STM32G0xx_HAL_Driver/Src/stm32g0xx_hal_dma.c **** 
 873:Drivers/STM32G0xx_HAL_Driver/Src/stm32g0xx_hal_dma.c ****   if (HAL_DMA_STATE_READY == hdma->State)
 874:Drivers/STM32G0xx_HAL_Driver/Src/stm32g0xx_hal_dma.c ****   {
 875:Drivers/STM32G0xx_HAL_Driver/Src/stm32g0xx_hal_dma.c ****     switch (CallbackID)
 876:Drivers/STM32G0xx_HAL_Driver/Src/stm32g0xx_hal_dma.c ****     {
 877:Drivers/STM32G0xx_HAL_Driver/Src/stm32g0xx_hal_dma.c ****       case  HAL_DMA_XFER_CPLT_CB_ID:
 878:Drivers/STM32G0xx_HAL_Driver/Src/stm32g0xx_hal_dma.c ****         hdma->XferCpltCallback = NULL;
 879:Drivers/STM32G0xx_HAL_Driver/Src/stm32g0xx_hal_dma.c ****         break;
 880:Drivers/STM32G0xx_HAL_Driver/Src/stm32g0xx_hal_dma.c **** 
 881:Drivers/STM32G0xx_HAL_Driver/Src/stm32g0xx_hal_dma.c ****       case  HAL_DMA_XFER_HALFCPLT_CB_ID:
 882:Drivers/STM32G0xx_HAL_Driver/Src/stm32g0xx_hal_dma.c ****         hdma->XferHalfCpltCallback = NULL;
 883:Drivers/STM32G0xx_HAL_Driver/Src/stm32g0xx_hal_dma.c ****         break;
 884:Drivers/STM32G0xx_HAL_Driver/Src/stm32g0xx_hal_dma.c **** 
 885:Drivers/STM32G0xx_HAL_Driver/Src/stm32g0xx_hal_dma.c ****       case  HAL_DMA_XFER_ERROR_CB_ID:
 886:Drivers/STM32G0xx_HAL_Driver/Src/stm32g0xx_hal_dma.c ****         hdma->XferErrorCallback = NULL;
 887:Drivers/STM32G0xx_HAL_Driver/Src/stm32g0xx_hal_dma.c ****         break;
ARM GAS  /var/folders/cw/6cmm0b_n7yj10n1wx8hfx52r0000gn/T//ccoyqBc2.s 			page 17


 888:Drivers/STM32G0xx_HAL_Driver/Src/stm32g0xx_hal_dma.c **** 
 889:Drivers/STM32G0xx_HAL_Driver/Src/stm32g0xx_hal_dma.c ****       case  HAL_DMA_XFER_ABORT_CB_ID:
 890:Drivers/STM32G0xx_HAL_Driver/Src/stm32g0xx_hal_dma.c ****         hdma->XferAbortCallback = NULL;
 891:Drivers/STM32G0xx_HAL_Driver/Src/stm32g0xx_hal_dma.c ****         break;
 892:Drivers/STM32G0xx_HAL_Driver/Src/stm32g0xx_hal_dma.c **** 
 893:Drivers/STM32G0xx_HAL_Driver/Src/stm32g0xx_hal_dma.c ****       case   HAL_DMA_XFER_ALL_CB_ID:
 894:Drivers/STM32G0xx_HAL_Driver/Src/stm32g0xx_hal_dma.c ****         hdma->XferCpltCallback = NULL;
 895:Drivers/STM32G0xx_HAL_Driver/Src/stm32g0xx_hal_dma.c ****         hdma->XferHalfCpltCallback = NULL;
 896:Drivers/STM32G0xx_HAL_Driver/Src/stm32g0xx_hal_dma.c ****         hdma->XferErrorCallback = NULL;
 897:Drivers/STM32G0xx_HAL_Driver/Src/stm32g0xx_hal_dma.c ****         hdma->XferAbortCallback = NULL;
 898:Drivers/STM32G0xx_HAL_Driver/Src/stm32g0xx_hal_dma.c ****         break;
 899:Drivers/STM32G0xx_HAL_Driver/Src/stm32g0xx_hal_dma.c **** 
 900:Drivers/STM32G0xx_HAL_Driver/Src/stm32g0xx_hal_dma.c ****       default:
 901:Drivers/STM32G0xx_HAL_Driver/Src/stm32g0xx_hal_dma.c ****         status = HAL_ERROR;
 902:Drivers/STM32G0xx_HAL_Driver/Src/stm32g0xx_hal_dma.c ****         break;
 903:Drivers/STM32G0xx_HAL_Driver/Src/stm32g0xx_hal_dma.c ****     }
 904:Drivers/STM32G0xx_HAL_Driver/Src/stm32g0xx_hal_dma.c ****   }
 905:Drivers/STM32G0xx_HAL_Driver/Src/stm32g0xx_hal_dma.c ****   else
 906:Drivers/STM32G0xx_HAL_Driver/Src/stm32g0xx_hal_dma.c ****   {
 907:Drivers/STM32G0xx_HAL_Driver/Src/stm32g0xx_hal_dma.c ****     status = HAL_ERROR;
 908:Drivers/STM32G0xx_HAL_Driver/Src/stm32g0xx_hal_dma.c ****   }
 909:Drivers/STM32G0xx_HAL_Driver/Src/stm32g0xx_hal_dma.c **** 
 910:Drivers/STM32G0xx_HAL_Driver/Src/stm32g0xx_hal_dma.c ****   /* Release Lock */
 911:Drivers/STM32G0xx_HAL_Driver/Src/stm32g0xx_hal_dma.c ****   __HAL_UNLOCK(hdma);
 912:Drivers/STM32G0xx_HAL_Driver/Src/stm32g0xx_hal_dma.c **** 
 913:Drivers/STM32G0xx_HAL_Driver/Src/stm32g0xx_hal_dma.c ****   return status;
 914:Drivers/STM32G0xx_HAL_Driver/Src/stm32g0xx_hal_dma.c **** }
 915:Drivers/STM32G0xx_HAL_Driver/Src/stm32g0xx_hal_dma.c **** 
 916:Drivers/STM32G0xx_HAL_Driver/Src/stm32g0xx_hal_dma.c **** /**
 917:Drivers/STM32G0xx_HAL_Driver/Src/stm32g0xx_hal_dma.c ****   * @}
 918:Drivers/STM32G0xx_HAL_Driver/Src/stm32g0xx_hal_dma.c ****   */
 919:Drivers/STM32G0xx_HAL_Driver/Src/stm32g0xx_hal_dma.c **** 
 920:Drivers/STM32G0xx_HAL_Driver/Src/stm32g0xx_hal_dma.c **** 
 921:Drivers/STM32G0xx_HAL_Driver/Src/stm32g0xx_hal_dma.c **** 
 922:Drivers/STM32G0xx_HAL_Driver/Src/stm32g0xx_hal_dma.c **** /** @defgroup DMA_Exported_Functions_Group3 Peripheral State and Errors functions
 923:Drivers/STM32G0xx_HAL_Driver/Src/stm32g0xx_hal_dma.c ****  *  @brief    Peripheral State and Errors functions
 924:Drivers/STM32G0xx_HAL_Driver/Src/stm32g0xx_hal_dma.c ****  *
 925:Drivers/STM32G0xx_HAL_Driver/Src/stm32g0xx_hal_dma.c **** @verbatim
 926:Drivers/STM32G0xx_HAL_Driver/Src/stm32g0xx_hal_dma.c ****  ===============================================================================
 927:Drivers/STM32G0xx_HAL_Driver/Src/stm32g0xx_hal_dma.c ****             ##### Peripheral State and Errors functions #####
 928:Drivers/STM32G0xx_HAL_Driver/Src/stm32g0xx_hal_dma.c ****  ===============================================================================
 929:Drivers/STM32G0xx_HAL_Driver/Src/stm32g0xx_hal_dma.c ****     [..]
 930:Drivers/STM32G0xx_HAL_Driver/Src/stm32g0xx_hal_dma.c ****     This subsection provides functions allowing to
 931:Drivers/STM32G0xx_HAL_Driver/Src/stm32g0xx_hal_dma.c ****       (+) Check the DMA state
 932:Drivers/STM32G0xx_HAL_Driver/Src/stm32g0xx_hal_dma.c ****       (+) Get error code
 933:Drivers/STM32G0xx_HAL_Driver/Src/stm32g0xx_hal_dma.c **** 
 934:Drivers/STM32G0xx_HAL_Driver/Src/stm32g0xx_hal_dma.c **** @endverbatim
 935:Drivers/STM32G0xx_HAL_Driver/Src/stm32g0xx_hal_dma.c ****   * @{
 936:Drivers/STM32G0xx_HAL_Driver/Src/stm32g0xx_hal_dma.c ****   */
 937:Drivers/STM32G0xx_HAL_Driver/Src/stm32g0xx_hal_dma.c **** 
 938:Drivers/STM32G0xx_HAL_Driver/Src/stm32g0xx_hal_dma.c **** /**
 939:Drivers/STM32G0xx_HAL_Driver/Src/stm32g0xx_hal_dma.c ****   * @brief  Return the DMA hande state.
 940:Drivers/STM32G0xx_HAL_Driver/Src/stm32g0xx_hal_dma.c ****   * @param hdma Pointer to a DMA_HandleTypeDef structure that contains
 941:Drivers/STM32G0xx_HAL_Driver/Src/stm32g0xx_hal_dma.c ****   *               the configuration information for the specified DMA Channel.
 942:Drivers/STM32G0xx_HAL_Driver/Src/stm32g0xx_hal_dma.c ****   * @retval HAL state
 943:Drivers/STM32G0xx_HAL_Driver/Src/stm32g0xx_hal_dma.c ****   */
 944:Drivers/STM32G0xx_HAL_Driver/Src/stm32g0xx_hal_dma.c **** HAL_DMA_StateTypeDef HAL_DMA_GetState(DMA_HandleTypeDef *hdma)
ARM GAS  /var/folders/cw/6cmm0b_n7yj10n1wx8hfx52r0000gn/T//ccoyqBc2.s 			page 18


 945:Drivers/STM32G0xx_HAL_Driver/Src/stm32g0xx_hal_dma.c **** {
 946:Drivers/STM32G0xx_HAL_Driver/Src/stm32g0xx_hal_dma.c ****   /* Return DMA handle state */
 947:Drivers/STM32G0xx_HAL_Driver/Src/stm32g0xx_hal_dma.c ****   return hdma->State;
 948:Drivers/STM32G0xx_HAL_Driver/Src/stm32g0xx_hal_dma.c **** }
 949:Drivers/STM32G0xx_HAL_Driver/Src/stm32g0xx_hal_dma.c **** 
 950:Drivers/STM32G0xx_HAL_Driver/Src/stm32g0xx_hal_dma.c **** /**
 951:Drivers/STM32G0xx_HAL_Driver/Src/stm32g0xx_hal_dma.c ****   * @brief  Return the DMA error code.
 952:Drivers/STM32G0xx_HAL_Driver/Src/stm32g0xx_hal_dma.c ****   * @param  hdma Pointer to a DMA_HandleTypeDef structure that contains
 953:Drivers/STM32G0xx_HAL_Driver/Src/stm32g0xx_hal_dma.c ****   *              the configuration information for the specified DMA Channel.
 954:Drivers/STM32G0xx_HAL_Driver/Src/stm32g0xx_hal_dma.c ****   * @retval DMA Error Code
 955:Drivers/STM32G0xx_HAL_Driver/Src/stm32g0xx_hal_dma.c ****   */
 956:Drivers/STM32G0xx_HAL_Driver/Src/stm32g0xx_hal_dma.c **** uint32_t HAL_DMA_GetError(DMA_HandleTypeDef *hdma)
 957:Drivers/STM32G0xx_HAL_Driver/Src/stm32g0xx_hal_dma.c **** {
 958:Drivers/STM32G0xx_HAL_Driver/Src/stm32g0xx_hal_dma.c ****   return hdma->ErrorCode;
 959:Drivers/STM32G0xx_HAL_Driver/Src/stm32g0xx_hal_dma.c **** }
 960:Drivers/STM32G0xx_HAL_Driver/Src/stm32g0xx_hal_dma.c **** 
 961:Drivers/STM32G0xx_HAL_Driver/Src/stm32g0xx_hal_dma.c **** /**
 962:Drivers/STM32G0xx_HAL_Driver/Src/stm32g0xx_hal_dma.c ****   * @}
 963:Drivers/STM32G0xx_HAL_Driver/Src/stm32g0xx_hal_dma.c ****   */
 964:Drivers/STM32G0xx_HAL_Driver/Src/stm32g0xx_hal_dma.c **** 
 965:Drivers/STM32G0xx_HAL_Driver/Src/stm32g0xx_hal_dma.c **** /**
 966:Drivers/STM32G0xx_HAL_Driver/Src/stm32g0xx_hal_dma.c ****   * @}
 967:Drivers/STM32G0xx_HAL_Driver/Src/stm32g0xx_hal_dma.c ****   */
 968:Drivers/STM32G0xx_HAL_Driver/Src/stm32g0xx_hal_dma.c **** 
 969:Drivers/STM32G0xx_HAL_Driver/Src/stm32g0xx_hal_dma.c **** /** @addtogroup DMA_Private_Functions
 970:Drivers/STM32G0xx_HAL_Driver/Src/stm32g0xx_hal_dma.c ****   * @{
 971:Drivers/STM32G0xx_HAL_Driver/Src/stm32g0xx_hal_dma.c ****   */
 972:Drivers/STM32G0xx_HAL_Driver/Src/stm32g0xx_hal_dma.c **** 
 973:Drivers/STM32G0xx_HAL_Driver/Src/stm32g0xx_hal_dma.c **** /**
 974:Drivers/STM32G0xx_HAL_Driver/Src/stm32g0xx_hal_dma.c ****   * @brief  Sets the DMA Transfer parameter.
 975:Drivers/STM32G0xx_HAL_Driver/Src/stm32g0xx_hal_dma.c ****   * @param hdma Pointer to a DMA_HandleTypeDef structure that contains
 976:Drivers/STM32G0xx_HAL_Driver/Src/stm32g0xx_hal_dma.c ****   *                     the configuration information for the specified DMA Channel.
 977:Drivers/STM32G0xx_HAL_Driver/Src/stm32g0xx_hal_dma.c ****   * @param SrcAddress The source memory Buffer address
 978:Drivers/STM32G0xx_HAL_Driver/Src/stm32g0xx_hal_dma.c ****   * @param DstAddress The destination memory Buffer address
 979:Drivers/STM32G0xx_HAL_Driver/Src/stm32g0xx_hal_dma.c ****   * @param DataLength The length of data to be transferred from source to destination
 980:Drivers/STM32G0xx_HAL_Driver/Src/stm32g0xx_hal_dma.c ****   * @retval HAL status
 981:Drivers/STM32G0xx_HAL_Driver/Src/stm32g0xx_hal_dma.c ****   */
 982:Drivers/STM32G0xx_HAL_Driver/Src/stm32g0xx_hal_dma.c **** static void DMA_SetConfig(DMA_HandleTypeDef *hdma, uint32_t SrcAddress, uint32_t DstAddress, uint32
 983:Drivers/STM32G0xx_HAL_Driver/Src/stm32g0xx_hal_dma.c **** {
  27              		.loc 1 983 1 view -0
  28              		.cfi_startproc
  29              		@ args = 0, pretend = 0, frame = 0
  30              		@ frame_needed = 0, uses_anonymous_args = 0
  31              		.loc 1 983 1 is_stmt 0 view .LVU1
  32 0000 F0B5     		push	{r4, r5, r6, r7, lr}
  33              	.LCFI0:
  34              		.cfi_def_cfa_offset 20
  35              		.cfi_offset 4, -20
  36              		.cfi_offset 5, -16
  37              		.cfi_offset 6, -12
  38              		.cfi_offset 7, -8
  39              		.cfi_offset 14, -4
 984:Drivers/STM32G0xx_HAL_Driver/Src/stm32g0xx_hal_dma.c ****   /* Clear the DMAMUX synchro overrun flag */
 985:Drivers/STM32G0xx_HAL_Driver/Src/stm32g0xx_hal_dma.c ****   hdma->DMAmuxChannelStatus->CFR = hdma->DMAmuxChannelStatusMask;
  40              		.loc 1 985 3 is_stmt 1 view .LVU2
  41              		.loc 1 985 7 is_stmt 0 view .LVU3
  42 0002 846C     		ldr	r4, [r0, #72]
ARM GAS  /var/folders/cw/6cmm0b_n7yj10n1wx8hfx52r0000gn/T//ccoyqBc2.s 			page 19


  43              		.loc 1 985 40 view .LVU4
  44 0004 C56C     		ldr	r5, [r0, #76]
  45              		.loc 1 985 34 view .LVU5
  46 0006 6560     		str	r5, [r4, #4]
 986:Drivers/STM32G0xx_HAL_Driver/Src/stm32g0xx_hal_dma.c **** 
 987:Drivers/STM32G0xx_HAL_Driver/Src/stm32g0xx_hal_dma.c ****   if (hdma->DMAmuxRequestGen != 0U)
  47              		.loc 1 987 3 is_stmt 1 view .LVU6
  48              		.loc 1 987 11 is_stmt 0 view .LVU7
  49 0008 046D     		ldr	r4, [r0, #80]
  50              		.loc 1 987 6 view .LVU8
  51 000a 002C     		cmp	r4, #0
  52 000c 02D0     		beq	.L2
 988:Drivers/STM32G0xx_HAL_Driver/Src/stm32g0xx_hal_dma.c ****   {
 989:Drivers/STM32G0xx_HAL_Driver/Src/stm32g0xx_hal_dma.c ****     /* Clear the DMAMUX request generator overrun flag */
 990:Drivers/STM32G0xx_HAL_Driver/Src/stm32g0xx_hal_dma.c ****     hdma->DMAmuxRequestGenStatus->RGCFR = hdma->DMAmuxRequestGenStatusMask;
  53              		.loc 1 990 5 is_stmt 1 view .LVU9
  54              		.loc 1 990 9 is_stmt 0 view .LVU10
  55 000e 446D     		ldr	r4, [r0, #84]
  56              		.loc 1 990 47 view .LVU11
  57 0010 856D     		ldr	r5, [r0, #88]
  58              		.loc 1 990 41 view .LVU12
  59 0012 6560     		str	r5, [r4, #4]
  60              	.L2:
 991:Drivers/STM32G0xx_HAL_Driver/Src/stm32g0xx_hal_dma.c ****   }
 992:Drivers/STM32G0xx_HAL_Driver/Src/stm32g0xx_hal_dma.c **** 
 993:Drivers/STM32G0xx_HAL_Driver/Src/stm32g0xx_hal_dma.c ****   /* Clear all flags */
 994:Drivers/STM32G0xx_HAL_Driver/Src/stm32g0xx_hal_dma.c ****   __HAL_DMA_CLEAR_FLAG(hdma, (DMA_FLAG_GI1 << (hdma->ChannelIndex & 0x1cU)));
  61              		.loc 1 994 3 is_stmt 1 view .LVU13
  62 0014 0B4F     		ldr	r7, .L6
  63 0016 7C68     		ldr	r4, [r7, #4]
  64 0018 056C     		ldr	r5, [r0, #64]
  65 001a 1C26     		movs	r6, #28
  66 001c 2E40     		ands	r6, r5
  67 001e 0125     		movs	r5, #1
  68 0020 B540     		lsls	r5, r5, r6
  69 0022 2C43     		orrs	r4, r5
  70 0024 7C60     		str	r4, [r7, #4]
 995:Drivers/STM32G0xx_HAL_Driver/Src/stm32g0xx_hal_dma.c **** 
 996:Drivers/STM32G0xx_HAL_Driver/Src/stm32g0xx_hal_dma.c ****   /* Configure DMA Channel data length */
 997:Drivers/STM32G0xx_HAL_Driver/Src/stm32g0xx_hal_dma.c ****   hdma->Instance->CNDTR = DataLength;
  71              		.loc 1 997 3 view .LVU14
  72              		.loc 1 997 7 is_stmt 0 view .LVU15
  73 0026 0468     		ldr	r4, [r0]
  74              		.loc 1 997 25 view .LVU16
  75 0028 6360     		str	r3, [r4, #4]
 998:Drivers/STM32G0xx_HAL_Driver/Src/stm32g0xx_hal_dma.c **** 
 999:Drivers/STM32G0xx_HAL_Driver/Src/stm32g0xx_hal_dma.c ****   /* Peripheral to Memory */
1000:Drivers/STM32G0xx_HAL_Driver/Src/stm32g0xx_hal_dma.c ****   if ((hdma->Init.Direction) == DMA_MEMORY_TO_PERIPH)
  76              		.loc 1 1000 3 is_stmt 1 view .LVU17
  77              		.loc 1 1000 18 is_stmt 0 view .LVU18
  78 002a 8368     		ldr	r3, [r0, #8]
  79              	.LVL1:
  80              		.loc 1 1000 6 view .LVU19
  81 002c 102B     		cmp	r3, #16
  82 002e 04D0     		beq	.L5
1001:Drivers/STM32G0xx_HAL_Driver/Src/stm32g0xx_hal_dma.c ****   {
1002:Drivers/STM32G0xx_HAL_Driver/Src/stm32g0xx_hal_dma.c ****     /* Configure DMA Channel destination address */
ARM GAS  /var/folders/cw/6cmm0b_n7yj10n1wx8hfx52r0000gn/T//ccoyqBc2.s 			page 20


1003:Drivers/STM32G0xx_HAL_Driver/Src/stm32g0xx_hal_dma.c ****     hdma->Instance->CPAR = DstAddress;
1004:Drivers/STM32G0xx_HAL_Driver/Src/stm32g0xx_hal_dma.c **** 
1005:Drivers/STM32G0xx_HAL_Driver/Src/stm32g0xx_hal_dma.c ****     /* Configure DMA Channel source address */
1006:Drivers/STM32G0xx_HAL_Driver/Src/stm32g0xx_hal_dma.c ****     hdma->Instance->CMAR = SrcAddress;
1007:Drivers/STM32G0xx_HAL_Driver/Src/stm32g0xx_hal_dma.c ****   }
1008:Drivers/STM32G0xx_HAL_Driver/Src/stm32g0xx_hal_dma.c ****   /* Memory to Peripheral */
1009:Drivers/STM32G0xx_HAL_Driver/Src/stm32g0xx_hal_dma.c ****   else
1010:Drivers/STM32G0xx_HAL_Driver/Src/stm32g0xx_hal_dma.c ****   {
1011:Drivers/STM32G0xx_HAL_Driver/Src/stm32g0xx_hal_dma.c ****     /* Configure DMA Channel source address */
1012:Drivers/STM32G0xx_HAL_Driver/Src/stm32g0xx_hal_dma.c ****     hdma->Instance->CPAR = SrcAddress;
  83              		.loc 1 1012 5 is_stmt 1 view .LVU20
  84              		.loc 1 1012 9 is_stmt 0 view .LVU21
  85 0030 0368     		ldr	r3, [r0]
  86              		.loc 1 1012 26 view .LVU22
  87 0032 9960     		str	r1, [r3, #8]
  88              	.LVL2:
1013:Drivers/STM32G0xx_HAL_Driver/Src/stm32g0xx_hal_dma.c **** 
1014:Drivers/STM32G0xx_HAL_Driver/Src/stm32g0xx_hal_dma.c ****     /* Configure DMA Channel destination address */
1015:Drivers/STM32G0xx_HAL_Driver/Src/stm32g0xx_hal_dma.c ****     hdma->Instance->CMAR = DstAddress;
  89              		.loc 1 1015 5 is_stmt 1 view .LVU23
  90              		.loc 1 1015 9 is_stmt 0 view .LVU24
  91 0034 0368     		ldr	r3, [r0]
  92              		.loc 1 1015 26 view .LVU25
  93 0036 DA60     		str	r2, [r3, #12]
  94              	.L1:
1016:Drivers/STM32G0xx_HAL_Driver/Src/stm32g0xx_hal_dma.c ****   }
1017:Drivers/STM32G0xx_HAL_Driver/Src/stm32g0xx_hal_dma.c **** }
  95              		.loc 1 1017 1 view .LVU26
  96              		@ sp needed
  97 0038 F0BD     		pop	{r4, r5, r6, r7, pc}
  98              	.LVL3:
  99              	.L5:
1003:Drivers/STM32G0xx_HAL_Driver/Src/stm32g0xx_hal_dma.c **** 
 100              		.loc 1 1003 5 is_stmt 1 view .LVU27
1003:Drivers/STM32G0xx_HAL_Driver/Src/stm32g0xx_hal_dma.c **** 
 101              		.loc 1 1003 9 is_stmt 0 view .LVU28
 102 003a 0368     		ldr	r3, [r0]
1003:Drivers/STM32G0xx_HAL_Driver/Src/stm32g0xx_hal_dma.c **** 
 103              		.loc 1 1003 26 view .LVU29
 104 003c 9A60     		str	r2, [r3, #8]
 105              	.LVL4:
1006:Drivers/STM32G0xx_HAL_Driver/Src/stm32g0xx_hal_dma.c ****   }
 106              		.loc 1 1006 5 is_stmt 1 view .LVU30
1006:Drivers/STM32G0xx_HAL_Driver/Src/stm32g0xx_hal_dma.c ****   }
 107              		.loc 1 1006 9 is_stmt 0 view .LVU31
 108 003e 0368     		ldr	r3, [r0]
1006:Drivers/STM32G0xx_HAL_Driver/Src/stm32g0xx_hal_dma.c ****   }
 109              		.loc 1 1006 26 view .LVU32
 110 0040 D960     		str	r1, [r3, #12]
 111 0042 F9E7     		b	.L1
 112              	.L7:
 113              		.align	2
 114              	.L6:
 115 0044 00000240 		.word	1073872896
 116              		.cfi_endproc
 117              	.LFE170:
 119              		.global	__aeabi_uidiv
ARM GAS  /var/folders/cw/6cmm0b_n7yj10n1wx8hfx52r0000gn/T//ccoyqBc2.s 			page 21


 120              		.section	.text.DMA_CalcDMAMUXChannelBaseAndMask,"ax",%progbits
 121              		.align	1
 122              		.syntax unified
 123              		.code	16
 124              		.thumb_func
 126              	DMA_CalcDMAMUXChannelBaseAndMask:
 127              	.LVL5:
 128              	.LFB171:
1018:Drivers/STM32G0xx_HAL_Driver/Src/stm32g0xx_hal_dma.c **** 
1019:Drivers/STM32G0xx_HAL_Driver/Src/stm32g0xx_hal_dma.c **** /**
1020:Drivers/STM32G0xx_HAL_Driver/Src/stm32g0xx_hal_dma.c ****   * @brief  Updates the DMA handle with the DMAMUX  channel and status mask depending on stream num
1021:Drivers/STM32G0xx_HAL_Driver/Src/stm32g0xx_hal_dma.c ****   * @param  hdma Pointer to a DMA_HandleTypeDef structure that contains
1022:Drivers/STM32G0xx_HAL_Driver/Src/stm32g0xx_hal_dma.c ****   *                     the configuration information for the specified DMA Stream.
1023:Drivers/STM32G0xx_HAL_Driver/Src/stm32g0xx_hal_dma.c ****   * @retval None
1024:Drivers/STM32G0xx_HAL_Driver/Src/stm32g0xx_hal_dma.c ****   */
1025:Drivers/STM32G0xx_HAL_Driver/Src/stm32g0xx_hal_dma.c **** static void DMA_CalcDMAMUXChannelBaseAndMask(DMA_HandleTypeDef *hdma)
1026:Drivers/STM32G0xx_HAL_Driver/Src/stm32g0xx_hal_dma.c **** {
 129              		.loc 1 1026 1 is_stmt 1 view -0
 130              		.cfi_startproc
 131              		@ args = 0, pretend = 0, frame = 0
 132              		@ frame_needed = 0, uses_anonymous_args = 0
 133              		.loc 1 1026 1 is_stmt 0 view .LVU34
 134 0000 10B5     		push	{r4, lr}
 135              	.LCFI1:
 136              		.cfi_def_cfa_offset 8
 137              		.cfi_offset 4, -8
 138              		.cfi_offset 14, -4
 139 0002 0400     		movs	r4, r0
1027:Drivers/STM32G0xx_HAL_Driver/Src/stm32g0xx_hal_dma.c ****   uint32_t channel_number;
 140              		.loc 1 1027 3 is_stmt 1 view .LVU35
1028:Drivers/STM32G0xx_HAL_Driver/Src/stm32g0xx_hal_dma.c **** 
1029:Drivers/STM32G0xx_HAL_Driver/Src/stm32g0xx_hal_dma.c ****   channel_number = (((uint32_t)hdma->Instance & 0xFFU) - 8U) / 20U;
 141              		.loc 1 1029 3 view .LVU36
 142              		.loc 1 1029 36 is_stmt 0 view .LVU37
 143 0004 0368     		ldr	r3, [r0]
 144              		.loc 1 1029 47 view .LVU38
 145 0006 FF20     		movs	r0, #255
 146              	.LVL6:
 147              		.loc 1 1029 47 view .LVU39
 148 0008 1840     		ands	r0, r3
 149              		.loc 1 1029 56 view .LVU40
 150 000a 0838     		subs	r0, r0, #8
 151              		.loc 1 1029 18 view .LVU41
 152 000c 1421     		movs	r1, #20
 153 000e FFF7FEFF 		bl	__aeabi_uidiv
 154              	.LVL7:
1030:Drivers/STM32G0xx_HAL_Driver/Src/stm32g0xx_hal_dma.c ****   hdma->DMAmuxChannel = (DMAMUX_Channel_TypeDef *)(uint32_t)((uint32_t)DMAMUX1_Channel0 + ((hdma->C
 155              		.loc 1 1030 3 is_stmt 1 view .LVU42
 156              		.loc 1 1030 97 is_stmt 0 view .LVU43
 157 0012 236C     		ldr	r3, [r4, #64]
 158              		.loc 1 1030 112 view .LVU44
 159 0014 9B08     		lsrs	r3, r3, #2
 160              		.loc 1 1030 51 view .LVU45
 161 0016 064A     		ldr	r2, .L9
 162 0018 9446     		mov	ip, r2
 163 001a 6344     		add	r3, r3, ip
 164 001c 9B00     		lsls	r3, r3, #2
ARM GAS  /var/folders/cw/6cmm0b_n7yj10n1wx8hfx52r0000gn/T//ccoyqBc2.s 			page 22


 165              		.loc 1 1030 23 view .LVU46
 166 001e 6364     		str	r3, [r4, #68]
1031:Drivers/STM32G0xx_HAL_Driver/Src/stm32g0xx_hal_dma.c ****   hdma->DMAmuxChannelStatus = DMAMUX1_ChannelStatus;
 167              		.loc 1 1031 3 is_stmt 1 view .LVU47
 168              		.loc 1 1031 29 is_stmt 0 view .LVU48
 169 0020 044B     		ldr	r3, .L9+4
 170 0022 A364     		str	r3, [r4, #72]
1032:Drivers/STM32G0xx_HAL_Driver/Src/stm32g0xx_hal_dma.c ****   hdma->DMAmuxChannelStatusMask = 1UL << (channel_number & 0x1cU);
 171              		.loc 1 1032 3 is_stmt 1 view .LVU49
 172              		.loc 1 1032 58 is_stmt 0 view .LVU50
 173 0024 1C23     		movs	r3, #28
 174 0026 1840     		ands	r0, r3
 175              	.LVL8:
 176              		.loc 1 1032 39 view .LVU51
 177 0028 1B3B     		subs	r3, r3, #27
 178 002a 8340     		lsls	r3, r3, r0
 179              		.loc 1 1032 33 view .LVU52
 180 002c E364     		str	r3, [r4, #76]
1033:Drivers/STM32G0xx_HAL_Driver/Src/stm32g0xx_hal_dma.c **** }
 181              		.loc 1 1033 1 view .LVU53
 182              		@ sp needed
 183              	.LVL9:
 184              		.loc 1 1033 1 view .LVU54
 185 002e 10BD     		pop	{r4, pc}
 186              	.L10:
 187              		.align	2
 188              	.L9:
 189 0030 00820010 		.word	268468736
 190 0034 80080240 		.word	1073875072
 191              		.cfi_endproc
 192              	.LFE171:
 194              		.section	.text.DMA_CalcDMAMUXRequestGenBaseAndMask,"ax",%progbits
 195              		.align	1
 196              		.syntax unified
 197              		.code	16
 198              		.thumb_func
 200              	DMA_CalcDMAMUXRequestGenBaseAndMask:
 201              	.LVL10:
 202              	.LFB172:
1034:Drivers/STM32G0xx_HAL_Driver/Src/stm32g0xx_hal_dma.c **** 
1035:Drivers/STM32G0xx_HAL_Driver/Src/stm32g0xx_hal_dma.c **** /**
1036:Drivers/STM32G0xx_HAL_Driver/Src/stm32g0xx_hal_dma.c ****   * @brief  Updates the DMA handle with the DMAMUX  request generator params
1037:Drivers/STM32G0xx_HAL_Driver/Src/stm32g0xx_hal_dma.c ****   * @param  hdma Pointer to a DMA_HandleTypeDef structure that contains
1038:Drivers/STM32G0xx_HAL_Driver/Src/stm32g0xx_hal_dma.c ****   *                     the configuration information for the specified DMA Stream.
1039:Drivers/STM32G0xx_HAL_Driver/Src/stm32g0xx_hal_dma.c ****   * @retval None
1040:Drivers/STM32G0xx_HAL_Driver/Src/stm32g0xx_hal_dma.c ****   */
1041:Drivers/STM32G0xx_HAL_Driver/Src/stm32g0xx_hal_dma.c **** 
1042:Drivers/STM32G0xx_HAL_Driver/Src/stm32g0xx_hal_dma.c **** static void DMA_CalcDMAMUXRequestGenBaseAndMask(DMA_HandleTypeDef *hdma)
1043:Drivers/STM32G0xx_HAL_Driver/Src/stm32g0xx_hal_dma.c **** {
 203              		.loc 1 1043 1 is_stmt 1 view -0
 204              		.cfi_startproc
 205              		@ args = 0, pretend = 0, frame = 0
 206              		@ frame_needed = 0, uses_anonymous_args = 0
 207              		@ link register save eliminated.
1044:Drivers/STM32G0xx_HAL_Driver/Src/stm32g0xx_hal_dma.c ****   uint32_t request =  hdma->Init.Request & DMAMUX_CxCR_DMAREQ_ID;
 208              		.loc 1 1044 3 view .LVU56
 209              		.loc 1 1044 33 is_stmt 0 view .LVU57
ARM GAS  /var/folders/cw/6cmm0b_n7yj10n1wx8hfx52r0000gn/T//ccoyqBc2.s 			page 23


 210 0000 4268     		ldr	r2, [r0, #4]
 211              		.loc 1 1044 12 view .LVU58
 212 0002 FF23     		movs	r3, #255
 213 0004 1340     		ands	r3, r2
 214              	.LVL11:
1045:Drivers/STM32G0xx_HAL_Driver/Src/stm32g0xx_hal_dma.c **** 
1046:Drivers/STM32G0xx_HAL_Driver/Src/stm32g0xx_hal_dma.c ****   /* DMA Channels are connected to DMAMUX1 request generator blocks*/
1047:Drivers/STM32G0xx_HAL_Driver/Src/stm32g0xx_hal_dma.c ****   hdma->DMAmuxRequestGen = (DMAMUX_RequestGen_TypeDef *)((uint32_t)(((uint32_t)DMAMUX1_RequestGener
 215              		.loc 1 1047 3 is_stmt 1 view .LVU59
 216              		.loc 1 1047 58 is_stmt 0 view .LVU60
 217 0006 064A     		ldr	r2, .L12
 218 0008 9A18     		adds	r2, r3, r2
 219 000a 9200     		lsls	r2, r2, #2
 220              		.loc 1 1047 26 view .LVU61
 221 000c 0265     		str	r2, [r0, #80]
1048:Drivers/STM32G0xx_HAL_Driver/Src/stm32g0xx_hal_dma.c **** 
1049:Drivers/STM32G0xx_HAL_Driver/Src/stm32g0xx_hal_dma.c ****   hdma->DMAmuxRequestGenStatus = DMAMUX1_RequestGenStatus;
 222              		.loc 1 1049 3 is_stmt 1 view .LVU62
 223              		.loc 1 1049 32 is_stmt 0 view .LVU63
 224 000e 054A     		ldr	r2, .L12+4
 225 0010 4265     		str	r2, [r0, #84]
1050:Drivers/STM32G0xx_HAL_Driver/Src/stm32g0xx_hal_dma.c **** 
1051:Drivers/STM32G0xx_HAL_Driver/Src/stm32g0xx_hal_dma.c ****   /* here "Request" is either DMA_REQUEST_GENERATOR0 to 4, i.e. <= 4*/
1052:Drivers/STM32G0xx_HAL_Driver/Src/stm32g0xx_hal_dma.c ****   hdma->DMAmuxRequestGenStatusMask = 1UL << ((request - 1U) & 0x3U);
 226              		.loc 1 1052 3 is_stmt 1 view .LVU64
 227              		.loc 1 1052 55 is_stmt 0 view .LVU65
 228 0012 013B     		subs	r3, r3, #1
 229              	.LVL12:
 230              		.loc 1 1052 61 view .LVU66
 231 0014 0322     		movs	r2, #3
 232 0016 1A40     		ands	r2, r3
 233              		.loc 1 1052 42 view .LVU67
 234 0018 0123     		movs	r3, #1
 235              	.LVL13:
 236              		.loc 1 1052 42 view .LVU68
 237 001a 9340     		lsls	r3, r3, r2
 238              		.loc 1 1052 36 view .LVU69
 239 001c 8365     		str	r3, [r0, #88]
1053:Drivers/STM32G0xx_HAL_Driver/Src/stm32g0xx_hal_dma.c **** }
 240              		.loc 1 1053 1 view .LVU70
 241              		@ sp needed
 242 001e 7047     		bx	lr
 243              	.L13:
 244              		.align	2
 245              	.L12:
 246 0020 3F820010 		.word	268468799
 247 0024 40090240 		.word	1073875264
 248              		.cfi_endproc
 249              	.LFE172:
 251              		.section	.text.HAL_DMA_Init,"ax",%progbits
 252              		.align	1
 253              		.global	HAL_DMA_Init
 254              		.syntax unified
 255              		.code	16
 256              		.thumb_func
 258              	HAL_DMA_Init:
 259              	.LVL14:
ARM GAS  /var/folders/cw/6cmm0b_n7yj10n1wx8hfx52r0000gn/T//ccoyqBc2.s 			page 24


 260              	.LFB158:
 152:Drivers/STM32G0xx_HAL_Driver/Src/stm32g0xx_hal_dma.c ****   /* Check the DMA handle allocation */
 261              		.loc 1 152 1 is_stmt 1 view -0
 262              		.cfi_startproc
 263              		@ args = 0, pretend = 0, frame = 0
 264              		@ frame_needed = 0, uses_anonymous_args = 0
 152:Drivers/STM32G0xx_HAL_Driver/Src/stm32g0xx_hal_dma.c ****   /* Check the DMA handle allocation */
 265              		.loc 1 152 1 is_stmt 0 view .LVU72
 266 0000 70B5     		push	{r4, r5, r6, lr}
 267              	.LCFI2:
 268              		.cfi_def_cfa_offset 16
 269              		.cfi_offset 4, -16
 270              		.cfi_offset 5, -12
 271              		.cfi_offset 6, -8
 272              		.cfi_offset 14, -4
 273 0002 041E     		subs	r4, r0, #0
 154:Drivers/STM32G0xx_HAL_Driver/Src/stm32g0xx_hal_dma.c ****   {
 274              		.loc 1 154 3 is_stmt 1 view .LVU73
 154:Drivers/STM32G0xx_HAL_Driver/Src/stm32g0xx_hal_dma.c ****   {
 275              		.loc 1 154 6 is_stmt 0 view .LVU74
 276 0004 4DD0     		beq	.L19
 160:Drivers/STM32G0xx_HAL_Driver/Src/stm32g0xx_hal_dma.c ****   assert_param(IS_DMA_DIRECTION(hdma->Init.Direction));
 277              		.loc 1 160 3 is_stmt 1 view .LVU75
 161:Drivers/STM32G0xx_HAL_Driver/Src/stm32g0xx_hal_dma.c ****   assert_param(IS_DMA_PERIPHERAL_INC_STATE(hdma->Init.PeriphInc));
 278              		.loc 1 161 3 view .LVU76
 162:Drivers/STM32G0xx_HAL_Driver/Src/stm32g0xx_hal_dma.c ****   assert_param(IS_DMA_MEMORY_INC_STATE(hdma->Init.MemInc));
 279              		.loc 1 162 3 view .LVU77
 163:Drivers/STM32G0xx_HAL_Driver/Src/stm32g0xx_hal_dma.c ****   assert_param(IS_DMA_PERIPHERAL_DATA_SIZE(hdma->Init.PeriphDataAlignment));
 280              		.loc 1 163 3 view .LVU78
 164:Drivers/STM32G0xx_HAL_Driver/Src/stm32g0xx_hal_dma.c ****   assert_param(IS_DMA_MEMORY_DATA_SIZE(hdma->Init.MemDataAlignment));
 281              		.loc 1 164 3 view .LVU79
 165:Drivers/STM32G0xx_HAL_Driver/Src/stm32g0xx_hal_dma.c ****   assert_param(IS_DMA_MODE(hdma->Init.Mode));
 282              		.loc 1 165 3 view .LVU80
 166:Drivers/STM32G0xx_HAL_Driver/Src/stm32g0xx_hal_dma.c ****   assert_param(IS_DMA_PRIORITY(hdma->Init.Priority));
 283              		.loc 1 166 3 view .LVU81
 167:Drivers/STM32G0xx_HAL_Driver/Src/stm32g0xx_hal_dma.c **** 
 284              		.loc 1 167 3 view .LVU82
 170:Drivers/STM32G0xx_HAL_Driver/Src/stm32g0xx_hal_dma.c **** 
 285              		.loc 1 170 3 view .LVU83
 170:Drivers/STM32G0xx_HAL_Driver/Src/stm32g0xx_hal_dma.c **** 
 286              		.loc 1 170 40 is_stmt 0 view .LVU84
 287 0006 0568     		ldr	r5, [r0]
 170:Drivers/STM32G0xx_HAL_Driver/Src/stm32g0xx_hal_dma.c **** 
 288              		.loc 1 170 51 view .LVU85
 289 0008 274B     		ldr	r3, .L22
 290 000a E818     		adds	r0, r5, r3
 291              	.LVL15:
 170:Drivers/STM32G0xx_HAL_Driver/Src/stm32g0xx_hal_dma.c **** 
 292              		.loc 1 170 78 view .LVU86
 293 000c 1421     		movs	r1, #20
 294 000e FFF7FEFF 		bl	__aeabi_uidiv
 295              	.LVL16:
 170:Drivers/STM32G0xx_HAL_Driver/Src/stm32g0xx_hal_dma.c **** 
 296              		.loc 1 170 133 view .LVU87
 297 0012 8000     		lsls	r0, r0, #2
 170:Drivers/STM32G0xx_HAL_Driver/Src/stm32g0xx_hal_dma.c **** 
 298              		.loc 1 170 22 view .LVU88
ARM GAS  /var/folders/cw/6cmm0b_n7yj10n1wx8hfx52r0000gn/T//ccoyqBc2.s 			page 25


 299 0014 2064     		str	r0, [r4, #64]
 173:Drivers/STM32G0xx_HAL_Driver/Src/stm32g0xx_hal_dma.c **** 
 300              		.loc 1 173 3 is_stmt 1 view .LVU89
 173:Drivers/STM32G0xx_HAL_Driver/Src/stm32g0xx_hal_dma.c **** 
 301              		.loc 1 173 15 is_stmt 0 view .LVU90
 302 0016 2523     		movs	r3, #37
 303 0018 0222     		movs	r2, #2
 304 001a E254     		strb	r2, [r4, r3]
 176:Drivers/STM32G0xx_HAL_Driver/Src/stm32g0xx_hal_dma.c ****                                   DMA_CCR_MINC  | DMA_CCR_PINC   | DMA_CCR_CIRC   | \
 305              		.loc 1 176 3 is_stmt 1 view .LVU91
 306 001c 2B68     		ldr	r3, [r5]
 307 001e 234A     		ldr	r2, .L22+4
 308 0020 1340     		ands	r3, r2
 309 0022 2B60     		str	r3, [r5]
 181:Drivers/STM32G0xx_HAL_Driver/Src/stm32g0xx_hal_dma.c ****                                 hdma->Init.PeriphInc           | hdma->Init.MemInc           | \
 310              		.loc 1 181 3 view .LVU92
 311 0024 2168     		ldr	r1, [r4]
 312 0026 0A68     		ldr	r2, [r1]
 313 0028 A368     		ldr	r3, [r4, #8]
 314 002a E068     		ldr	r0, [r4, #12]
 315 002c 0343     		orrs	r3, r0
 316 002e 2069     		ldr	r0, [r4, #16]
 317 0030 0343     		orrs	r3, r0
 318 0032 6069     		ldr	r0, [r4, #20]
 319 0034 0343     		orrs	r3, r0
 320 0036 A069     		ldr	r0, [r4, #24]
 321 0038 0343     		orrs	r3, r0
 322 003a E069     		ldr	r0, [r4, #28]
 323 003c 0343     		orrs	r3, r0
 324 003e 206A     		ldr	r0, [r4, #32]
 325 0040 0343     		orrs	r3, r0
 326 0042 1343     		orrs	r3, r2
 327 0044 0B60     		str	r3, [r1]
 189:Drivers/STM32G0xx_HAL_Driver/Src/stm32g0xx_hal_dma.c **** 
 328              		.loc 1 189 3 view .LVU93
 329 0046 2000     		movs	r0, r4
 330 0048 FFF7FEFF 		bl	DMA_CalcDMAMUXChannelBaseAndMask
 331              	.LVL17:
 191:Drivers/STM32G0xx_HAL_Driver/Src/stm32g0xx_hal_dma.c ****   {
 332              		.loc 1 191 3 view .LVU94
 191:Drivers/STM32G0xx_HAL_Driver/Src/stm32g0xx_hal_dma.c ****   {
 333              		.loc 1 191 17 is_stmt 0 view .LVU95
 334 004c A268     		ldr	r2, [r4, #8]
 191:Drivers/STM32G0xx_HAL_Driver/Src/stm32g0xx_hal_dma.c ****   {
 335              		.loc 1 191 6 view .LVU96
 336 004e 8023     		movs	r3, #128
 337 0050 DB01     		lsls	r3, r3, #7
 338 0052 9A42     		cmp	r2, r3
 339 0054 18D0     		beq	.L20
 340              	.L16:
 198:Drivers/STM32G0xx_HAL_Driver/Src/stm32g0xx_hal_dma.c **** 
 341              		.loc 1 198 3 is_stmt 1 view .LVU97
 198:Drivers/STM32G0xx_HAL_Driver/Src/stm32g0xx_hal_dma.c **** 
 342              		.loc 1 198 41 is_stmt 0 view .LVU98
 343 0056 6168     		ldr	r1, [r4, #4]
 198:Drivers/STM32G0xx_HAL_Driver/Src/stm32g0xx_hal_dma.c **** 
 344              		.loc 1 198 7 view .LVU99
ARM GAS  /var/folders/cw/6cmm0b_n7yj10n1wx8hfx52r0000gn/T//ccoyqBc2.s 			page 26


 345 0058 626C     		ldr	r2, [r4, #68]
 198:Drivers/STM32G0xx_HAL_Driver/Src/stm32g0xx_hal_dma.c **** 
 346              		.loc 1 198 50 view .LVU100
 347 005a FF23     		movs	r3, #255
 348 005c 0B40     		ands	r3, r1
 198:Drivers/STM32G0xx_HAL_Driver/Src/stm32g0xx_hal_dma.c **** 
 349              		.loc 1 198 28 view .LVU101
 350 005e 1360     		str	r3, [r2]
 201:Drivers/STM32G0xx_HAL_Driver/Src/stm32g0xx_hal_dma.c **** 
 351              		.loc 1 201 3 is_stmt 1 view .LVU102
 201:Drivers/STM32G0xx_HAL_Driver/Src/stm32g0xx_hal_dma.c **** 
 352              		.loc 1 201 7 is_stmt 0 view .LVU103
 353 0060 A36C     		ldr	r3, [r4, #72]
 201:Drivers/STM32G0xx_HAL_Driver/Src/stm32g0xx_hal_dma.c **** 
 354              		.loc 1 201 40 view .LVU104
 355 0062 E26C     		ldr	r2, [r4, #76]
 201:Drivers/STM32G0xx_HAL_Driver/Src/stm32g0xx_hal_dma.c **** 
 356              		.loc 1 201 34 view .LVU105
 357 0064 5A60     		str	r2, [r3, #4]
 203:Drivers/STM32G0xx_HAL_Driver/Src/stm32g0xx_hal_dma.c ****   {
 358              		.loc 1 203 3 is_stmt 1 view .LVU106
 203:Drivers/STM32G0xx_HAL_Driver/Src/stm32g0xx_hal_dma.c ****   {
 359              		.loc 1 203 19 is_stmt 0 view .LVU107
 360 0066 6368     		ldr	r3, [r4, #4]
 203:Drivers/STM32G0xx_HAL_Driver/Src/stm32g0xx_hal_dma.c ****   {
 361              		.loc 1 203 36 view .LVU108
 362 0068 013B     		subs	r3, r3, #1
 203:Drivers/STM32G0xx_HAL_Driver/Src/stm32g0xx_hal_dma.c ****   {
 363              		.loc 1 203 6 view .LVU109
 364 006a 032B     		cmp	r3, #3
 365 006c 0FD9     		bls	.L21
 218:Drivers/STM32G0xx_HAL_Driver/Src/stm32g0xx_hal_dma.c ****     hdma->DMAmuxRequestGenStatus = 0U;
 366              		.loc 1 218 5 is_stmt 1 view .LVU110
 218:Drivers/STM32G0xx_HAL_Driver/Src/stm32g0xx_hal_dma.c ****     hdma->DMAmuxRequestGenStatus = 0U;
 367              		.loc 1 218 28 is_stmt 0 view .LVU111
 368 006e 0023     		movs	r3, #0
 369 0070 2365     		str	r3, [r4, #80]
 219:Drivers/STM32G0xx_HAL_Driver/Src/stm32g0xx_hal_dma.c ****     hdma->DMAmuxRequestGenStatusMask = 0U;
 370              		.loc 1 219 5 is_stmt 1 view .LVU112
 219:Drivers/STM32G0xx_HAL_Driver/Src/stm32g0xx_hal_dma.c ****     hdma->DMAmuxRequestGenStatusMask = 0U;
 371              		.loc 1 219 34 is_stmt 0 view .LVU113
 372 0072 6365     		str	r3, [r4, #84]
 220:Drivers/STM32G0xx_HAL_Driver/Src/stm32g0xx_hal_dma.c ****   }
 373              		.loc 1 220 5 is_stmt 1 view .LVU114
 220:Drivers/STM32G0xx_HAL_Driver/Src/stm32g0xx_hal_dma.c ****   }
 374              		.loc 1 220 38 is_stmt 0 view .LVU115
 375 0074 A365     		str	r3, [r4, #88]
 376              	.L18:
 224:Drivers/STM32G0xx_HAL_Driver/Src/stm32g0xx_hal_dma.c **** 
 377              		.loc 1 224 3 is_stmt 1 view .LVU116
 224:Drivers/STM32G0xx_HAL_Driver/Src/stm32g0xx_hal_dma.c **** 
 378              		.loc 1 224 19 is_stmt 0 view .LVU117
 379 0076 0023     		movs	r3, #0
 380 0078 E363     		str	r3, [r4, #60]
 227:Drivers/STM32G0xx_HAL_Driver/Src/stm32g0xx_hal_dma.c **** 
 381              		.loc 1 227 3 is_stmt 1 view .LVU118
 227:Drivers/STM32G0xx_HAL_Driver/Src/stm32g0xx_hal_dma.c **** 
ARM GAS  /var/folders/cw/6cmm0b_n7yj10n1wx8hfx52r0000gn/T//ccoyqBc2.s 			page 27


 382              		.loc 1 227 16 is_stmt 0 view .LVU119
 383 007a 2522     		movs	r2, #37
 384 007c 0121     		movs	r1, #1
 385 007e A154     		strb	r1, [r4, r2]
 230:Drivers/STM32G0xx_HAL_Driver/Src/stm32g0xx_hal_dma.c **** 
 386              		.loc 1 230 3 is_stmt 1 view .LVU120
 230:Drivers/STM32G0xx_HAL_Driver/Src/stm32g0xx_hal_dma.c **** 
 387              		.loc 1 230 3 view .LVU121
 388 0080 013A     		subs	r2, r2, #1
 389 0082 A354     		strb	r3, [r4, r2]
 230:Drivers/STM32G0xx_HAL_Driver/Src/stm32g0xx_hal_dma.c **** 
 390              		.loc 1 230 3 view .LVU122
 232:Drivers/STM32G0xx_HAL_Driver/Src/stm32g0xx_hal_dma.c **** }
 391              		.loc 1 232 3 view .LVU123
 232:Drivers/STM32G0xx_HAL_Driver/Src/stm32g0xx_hal_dma.c **** }
 392              		.loc 1 232 10 is_stmt 0 view .LVU124
 393 0084 0020     		movs	r0, #0
 394              	.L15:
 233:Drivers/STM32G0xx_HAL_Driver/Src/stm32g0xx_hal_dma.c **** 
 395              		.loc 1 233 1 view .LVU125
 396              		@ sp needed
 397              	.LVL18:
 233:Drivers/STM32G0xx_HAL_Driver/Src/stm32g0xx_hal_dma.c **** 
 398              		.loc 1 233 1 view .LVU126
 399 0086 70BD     		pop	{r4, r5, r6, pc}
 400              	.LVL19:
 401              	.L20:
 194:Drivers/STM32G0xx_HAL_Driver/Src/stm32g0xx_hal_dma.c ****   }
 402              		.loc 1 194 5 is_stmt 1 view .LVU127
 194:Drivers/STM32G0xx_HAL_Driver/Src/stm32g0xx_hal_dma.c ****   }
 403              		.loc 1 194 24 is_stmt 0 view .LVU128
 404 0088 0023     		movs	r3, #0
 405 008a 6360     		str	r3, [r4, #4]
 406 008c E3E7     		b	.L16
 407              	.L21:
 208:Drivers/STM32G0xx_HAL_Driver/Src/stm32g0xx_hal_dma.c **** 
 408              		.loc 1 208 5 is_stmt 1 view .LVU129
 409 008e 2000     		movs	r0, r4
 410 0090 FFF7FEFF 		bl	DMA_CalcDMAMUXRequestGenBaseAndMask
 411              	.LVL20:
 211:Drivers/STM32G0xx_HAL_Driver/Src/stm32g0xx_hal_dma.c **** 
 412              		.loc 1 211 5 view .LVU130
 211:Drivers/STM32G0xx_HAL_Driver/Src/stm32g0xx_hal_dma.c **** 
 413              		.loc 1 211 9 is_stmt 0 view .LVU131
 414 0094 236D     		ldr	r3, [r4, #80]
 211:Drivers/STM32G0xx_HAL_Driver/Src/stm32g0xx_hal_dma.c **** 
 415              		.loc 1 211 34 view .LVU132
 416 0096 0022     		movs	r2, #0
 417 0098 1A60     		str	r2, [r3]
 214:Drivers/STM32G0xx_HAL_Driver/Src/stm32g0xx_hal_dma.c ****   }
 418              		.loc 1 214 5 is_stmt 1 view .LVU133
 214:Drivers/STM32G0xx_HAL_Driver/Src/stm32g0xx_hal_dma.c ****   }
 419              		.loc 1 214 9 is_stmt 0 view .LVU134
 420 009a 636D     		ldr	r3, [r4, #84]
 214:Drivers/STM32G0xx_HAL_Driver/Src/stm32g0xx_hal_dma.c ****   }
 421              		.loc 1 214 47 view .LVU135
 422 009c A26D     		ldr	r2, [r4, #88]
ARM GAS  /var/folders/cw/6cmm0b_n7yj10n1wx8hfx52r0000gn/T//ccoyqBc2.s 			page 28


 214:Drivers/STM32G0xx_HAL_Driver/Src/stm32g0xx_hal_dma.c ****   }
 423              		.loc 1 214 41 view .LVU136
 424 009e 5A60     		str	r2, [r3, #4]
 425 00a0 E9E7     		b	.L18
 426              	.LVL21:
 427              	.L19:
 156:Drivers/STM32G0xx_HAL_Driver/Src/stm32g0xx_hal_dma.c ****   }
 428              		.loc 1 156 12 view .LVU137
 429 00a2 0120     		movs	r0, #1
 430              	.LVL22:
 156:Drivers/STM32G0xx_HAL_Driver/Src/stm32g0xx_hal_dma.c ****   }
 431              		.loc 1 156 12 view .LVU138
 432 00a4 EFE7     		b	.L15
 433              	.L23:
 434 00a6 C046     		.align	2
 435              	.L22:
 436 00a8 F8FFFDBF 		.word	-1073872904
 437 00ac 0F80FFFF 		.word	-32753
 438              		.cfi_endproc
 439              	.LFE158:
 441              		.section	.text.HAL_DMA_DeInit,"ax",%progbits
 442              		.align	1
 443              		.global	HAL_DMA_DeInit
 444              		.syntax unified
 445              		.code	16
 446              		.thumb_func
 448              	HAL_DMA_DeInit:
 449              	.LVL23:
 450              	.LFB159:
 242:Drivers/STM32G0xx_HAL_Driver/Src/stm32g0xx_hal_dma.c ****   /* Check the DMA handle allocation */
 451              		.loc 1 242 1 is_stmt 1 view -0
 452              		.cfi_startproc
 453              		@ args = 0, pretend = 0, frame = 0
 454              		@ frame_needed = 0, uses_anonymous_args = 0
 242:Drivers/STM32G0xx_HAL_Driver/Src/stm32g0xx_hal_dma.c ****   /* Check the DMA handle allocation */
 455              		.loc 1 242 1 is_stmt 0 view .LVU140
 456 0000 F8B5     		push	{r3, r4, r5, r6, r7, lr}
 457              	.LCFI3:
 458              		.cfi_def_cfa_offset 24
 459              		.cfi_offset 3, -24
 460              		.cfi_offset 4, -20
 461              		.cfi_offset 5, -16
 462              		.cfi_offset 6, -12
 463              		.cfi_offset 7, -8
 464              		.cfi_offset 14, -4
 465 0002 041E     		subs	r4, r0, #0
 244:Drivers/STM32G0xx_HAL_Driver/Src/stm32g0xx_hal_dma.c ****   {
 466              		.loc 1 244 3 is_stmt 1 view .LVU141
 244:Drivers/STM32G0xx_HAL_Driver/Src/stm32g0xx_hal_dma.c ****   {
 467              		.loc 1 244 6 is_stmt 0 view .LVU142
 468 0004 3BD0     		beq	.L27
 250:Drivers/STM32G0xx_HAL_Driver/Src/stm32g0xx_hal_dma.c **** 
 469              		.loc 1 250 3 is_stmt 1 view .LVU143
 253:Drivers/STM32G0xx_HAL_Driver/Src/stm32g0xx_hal_dma.c **** 
 470              		.loc 1 253 3 view .LVU144
 471 0006 0268     		ldr	r2, [r0]
 472 0008 1368     		ldr	r3, [r2]
ARM GAS  /var/folders/cw/6cmm0b_n7yj10n1wx8hfx52r0000gn/T//ccoyqBc2.s 			page 29


 473 000a 0125     		movs	r5, #1
 474 000c AB43     		bics	r3, r5
 475 000e 1360     		str	r3, [r2]
 256:Drivers/STM32G0xx_HAL_Driver/Src/stm32g0xx_hal_dma.c **** 
 476              		.loc 1 256 3 view .LVU145
 256:Drivers/STM32G0xx_HAL_Driver/Src/stm32g0xx_hal_dma.c **** 
 477              		.loc 1 256 40 is_stmt 0 view .LVU146
 478 0010 0768     		ldr	r7, [r0]
 256:Drivers/STM32G0xx_HAL_Driver/Src/stm32g0xx_hal_dma.c **** 
 479              		.loc 1 256 51 view .LVU147
 480 0012 1C4B     		ldr	r3, .L29
 481 0014 F818     		adds	r0, r7, r3
 482              	.LVL24:
 256:Drivers/STM32G0xx_HAL_Driver/Src/stm32g0xx_hal_dma.c **** 
 483              		.loc 1 256 78 view .LVU148
 484 0016 1421     		movs	r1, #20
 485 0018 FFF7FEFF 		bl	__aeabi_uidiv
 486              	.LVL25:
 256:Drivers/STM32G0xx_HAL_Driver/Src/stm32g0xx_hal_dma.c **** 
 487              		.loc 1 256 133 view .LVU149
 488 001c 8000     		lsls	r0, r0, #2
 256:Drivers/STM32G0xx_HAL_Driver/Src/stm32g0xx_hal_dma.c **** 
 489              		.loc 1 256 22 view .LVU150
 490 001e 2064     		str	r0, [r4, #64]
 259:Drivers/STM32G0xx_HAL_Driver/Src/stm32g0xx_hal_dma.c **** 
 491              		.loc 1 259 3 is_stmt 1 view .LVU151
 259:Drivers/STM32G0xx_HAL_Driver/Src/stm32g0xx_hal_dma.c **** 
 492              		.loc 1 259 24 is_stmt 0 view .LVU152
 493 0020 0026     		movs	r6, #0
 494 0022 3E60     		str	r6, [r7]
 262:Drivers/STM32G0xx_HAL_Driver/Src/stm32g0xx_hal_dma.c **** 
 495              		.loc 1 262 3 is_stmt 1 view .LVU153
 496 0024 1849     		ldr	r1, .L29+4
 497 0026 4B68     		ldr	r3, [r1, #4]
 498 0028 206C     		ldr	r0, [r4, #64]
 499 002a 1C22     		movs	r2, #28
 500 002c 0240     		ands	r2, r0
 501 002e 9540     		lsls	r5, r5, r2
 502 0030 2B43     		orrs	r3, r5
 503 0032 4B60     		str	r3, [r1, #4]
 267:Drivers/STM32G0xx_HAL_Driver/Src/stm32g0xx_hal_dma.c **** 
 504              		.loc 1 267 3 view .LVU154
 505 0034 2000     		movs	r0, r4
 506 0036 FFF7FEFF 		bl	DMA_CalcDMAMUXChannelBaseAndMask
 507              	.LVL26:
 270:Drivers/STM32G0xx_HAL_Driver/Src/stm32g0xx_hal_dma.c **** 
 508              		.loc 1 270 3 view .LVU155
 270:Drivers/STM32G0xx_HAL_Driver/Src/stm32g0xx_hal_dma.c **** 
 509              		.loc 1 270 7 is_stmt 0 view .LVU156
 510 003a 636C     		ldr	r3, [r4, #68]
 270:Drivers/STM32G0xx_HAL_Driver/Src/stm32g0xx_hal_dma.c **** 
 511              		.loc 1 270 28 view .LVU157
 512 003c 1E60     		str	r6, [r3]
 273:Drivers/STM32G0xx_HAL_Driver/Src/stm32g0xx_hal_dma.c **** 
 513              		.loc 1 273 3 is_stmt 1 view .LVU158
 273:Drivers/STM32G0xx_HAL_Driver/Src/stm32g0xx_hal_dma.c **** 
 514              		.loc 1 273 7 is_stmt 0 view .LVU159
ARM GAS  /var/folders/cw/6cmm0b_n7yj10n1wx8hfx52r0000gn/T//ccoyqBc2.s 			page 30


 515 003e A36C     		ldr	r3, [r4, #72]
 273:Drivers/STM32G0xx_HAL_Driver/Src/stm32g0xx_hal_dma.c **** 
 516              		.loc 1 273 40 view .LVU160
 517 0040 E26C     		ldr	r2, [r4, #76]
 273:Drivers/STM32G0xx_HAL_Driver/Src/stm32g0xx_hal_dma.c **** 
 518              		.loc 1 273 34 view .LVU161
 519 0042 5A60     		str	r2, [r3, #4]
 276:Drivers/STM32G0xx_HAL_Driver/Src/stm32g0xx_hal_dma.c ****   {
 520              		.loc 1 276 3 is_stmt 1 view .LVU162
 276:Drivers/STM32G0xx_HAL_Driver/Src/stm32g0xx_hal_dma.c ****   {
 521              		.loc 1 276 19 is_stmt 0 view .LVU163
 522 0044 6368     		ldr	r3, [r4, #4]
 276:Drivers/STM32G0xx_HAL_Driver/Src/stm32g0xx_hal_dma.c ****   {
 523              		.loc 1 276 36 view .LVU164
 524 0046 013B     		subs	r3, r3, #1
 276:Drivers/STM32G0xx_HAL_Driver/Src/stm32g0xx_hal_dma.c ****   {
 525              		.loc 1 276 6 view .LVU165
 526 0048 032B     		cmp	r3, #3
 527 004a 0ED9     		bls	.L28
 528              	.L26:
 291:Drivers/STM32G0xx_HAL_Driver/Src/stm32g0xx_hal_dma.c ****   hdma->XferHalfCpltCallback = NULL;
 529              		.loc 1 291 3 is_stmt 1 view .LVU166
 291:Drivers/STM32G0xx_HAL_Driver/Src/stm32g0xx_hal_dma.c ****   hdma->XferHalfCpltCallback = NULL;
 530              		.loc 1 291 26 is_stmt 0 view .LVU167
 531 004c 0023     		movs	r3, #0
 532 004e E362     		str	r3, [r4, #44]
 292:Drivers/STM32G0xx_HAL_Driver/Src/stm32g0xx_hal_dma.c ****   hdma->XferErrorCallback = NULL;
 533              		.loc 1 292 3 is_stmt 1 view .LVU168
 292:Drivers/STM32G0xx_HAL_Driver/Src/stm32g0xx_hal_dma.c ****   hdma->XferErrorCallback = NULL;
 534              		.loc 1 292 30 is_stmt 0 view .LVU169
 535 0050 2363     		str	r3, [r4, #48]
 293:Drivers/STM32G0xx_HAL_Driver/Src/stm32g0xx_hal_dma.c ****   hdma->XferAbortCallback = NULL;
 536              		.loc 1 293 3 is_stmt 1 view .LVU170
 293:Drivers/STM32G0xx_HAL_Driver/Src/stm32g0xx_hal_dma.c ****   hdma->XferAbortCallback = NULL;
 537              		.loc 1 293 27 is_stmt 0 view .LVU171
 538 0052 6363     		str	r3, [r4, #52]
 294:Drivers/STM32G0xx_HAL_Driver/Src/stm32g0xx_hal_dma.c **** 
 539              		.loc 1 294 3 is_stmt 1 view .LVU172
 294:Drivers/STM32G0xx_HAL_Driver/Src/stm32g0xx_hal_dma.c **** 
 540              		.loc 1 294 27 is_stmt 0 view .LVU173
 541 0054 A363     		str	r3, [r4, #56]
 296:Drivers/STM32G0xx_HAL_Driver/Src/stm32g0xx_hal_dma.c ****   hdma->DMAmuxRequestGenStatus = 0U;
 542              		.loc 1 296 3 is_stmt 1 view .LVU174
 296:Drivers/STM32G0xx_HAL_Driver/Src/stm32g0xx_hal_dma.c ****   hdma->DMAmuxRequestGenStatus = 0U;
 543              		.loc 1 296 26 is_stmt 0 view .LVU175
 544 0056 2365     		str	r3, [r4, #80]
 297:Drivers/STM32G0xx_HAL_Driver/Src/stm32g0xx_hal_dma.c ****   hdma->DMAmuxRequestGenStatusMask = 0U;
 545              		.loc 1 297 3 is_stmt 1 view .LVU176
 297:Drivers/STM32G0xx_HAL_Driver/Src/stm32g0xx_hal_dma.c ****   hdma->DMAmuxRequestGenStatusMask = 0U;
 546              		.loc 1 297 32 is_stmt 0 view .LVU177
 547 0058 6365     		str	r3, [r4, #84]
 298:Drivers/STM32G0xx_HAL_Driver/Src/stm32g0xx_hal_dma.c **** 
 548              		.loc 1 298 3 is_stmt 1 view .LVU178
 298:Drivers/STM32G0xx_HAL_Driver/Src/stm32g0xx_hal_dma.c **** 
 549              		.loc 1 298 36 is_stmt 0 view .LVU179
 550 005a A365     		str	r3, [r4, #88]
 301:Drivers/STM32G0xx_HAL_Driver/Src/stm32g0xx_hal_dma.c **** 
ARM GAS  /var/folders/cw/6cmm0b_n7yj10n1wx8hfx52r0000gn/T//ccoyqBc2.s 			page 31


 551              		.loc 1 301 3 is_stmt 1 view .LVU180
 301:Drivers/STM32G0xx_HAL_Driver/Src/stm32g0xx_hal_dma.c **** 
 552              		.loc 1 301 19 is_stmt 0 view .LVU181
 553 005c E363     		str	r3, [r4, #60]
 304:Drivers/STM32G0xx_HAL_Driver/Src/stm32g0xx_hal_dma.c **** 
 554              		.loc 1 304 3 is_stmt 1 view .LVU182
 304:Drivers/STM32G0xx_HAL_Driver/Src/stm32g0xx_hal_dma.c **** 
 555              		.loc 1 304 15 is_stmt 0 view .LVU183
 556 005e 2522     		movs	r2, #37
 557 0060 A354     		strb	r3, [r4, r2]
 307:Drivers/STM32G0xx_HAL_Driver/Src/stm32g0xx_hal_dma.c **** 
 558              		.loc 1 307 3 is_stmt 1 view .LVU184
 307:Drivers/STM32G0xx_HAL_Driver/Src/stm32g0xx_hal_dma.c **** 
 559              		.loc 1 307 3 view .LVU185
 560 0062 013A     		subs	r2, r2, #1
 561 0064 A354     		strb	r3, [r4, r2]
 307:Drivers/STM32G0xx_HAL_Driver/Src/stm32g0xx_hal_dma.c **** 
 562              		.loc 1 307 3 view .LVU186
 309:Drivers/STM32G0xx_HAL_Driver/Src/stm32g0xx_hal_dma.c **** }
 563              		.loc 1 309 3 view .LVU187
 309:Drivers/STM32G0xx_HAL_Driver/Src/stm32g0xx_hal_dma.c **** }
 564              		.loc 1 309 10 is_stmt 0 view .LVU188
 565 0066 0020     		movs	r0, #0
 566              	.L25:
 310:Drivers/STM32G0xx_HAL_Driver/Src/stm32g0xx_hal_dma.c **** 
 567              		.loc 1 310 1 view .LVU189
 568              		@ sp needed
 569              	.LVL27:
 310:Drivers/STM32G0xx_HAL_Driver/Src/stm32g0xx_hal_dma.c **** 
 570              		.loc 1 310 1 view .LVU190
 571 0068 F8BD     		pop	{r3, r4, r5, r6, r7, pc}
 572              	.LVL28:
 573              	.L28:
 281:Drivers/STM32G0xx_HAL_Driver/Src/stm32g0xx_hal_dma.c **** 
 574              		.loc 1 281 5 is_stmt 1 view .LVU191
 575 006a 2000     		movs	r0, r4
 576 006c FFF7FEFF 		bl	DMA_CalcDMAMUXRequestGenBaseAndMask
 577              	.LVL29:
 284:Drivers/STM32G0xx_HAL_Driver/Src/stm32g0xx_hal_dma.c **** 
 578              		.loc 1 284 5 view .LVU192
 284:Drivers/STM32G0xx_HAL_Driver/Src/stm32g0xx_hal_dma.c **** 
 579              		.loc 1 284 9 is_stmt 0 view .LVU193
 580 0070 236D     		ldr	r3, [r4, #80]
 284:Drivers/STM32G0xx_HAL_Driver/Src/stm32g0xx_hal_dma.c **** 
 581              		.loc 1 284 34 view .LVU194
 582 0072 0022     		movs	r2, #0
 583 0074 1A60     		str	r2, [r3]
 287:Drivers/STM32G0xx_HAL_Driver/Src/stm32g0xx_hal_dma.c ****   }
 584              		.loc 1 287 5 is_stmt 1 view .LVU195
 287:Drivers/STM32G0xx_HAL_Driver/Src/stm32g0xx_hal_dma.c ****   }
 585              		.loc 1 287 9 is_stmt 0 view .LVU196
 586 0076 636D     		ldr	r3, [r4, #84]
 287:Drivers/STM32G0xx_HAL_Driver/Src/stm32g0xx_hal_dma.c ****   }
 587              		.loc 1 287 47 view .LVU197
 588 0078 A26D     		ldr	r2, [r4, #88]
 287:Drivers/STM32G0xx_HAL_Driver/Src/stm32g0xx_hal_dma.c ****   }
 589              		.loc 1 287 41 view .LVU198
ARM GAS  /var/folders/cw/6cmm0b_n7yj10n1wx8hfx52r0000gn/T//ccoyqBc2.s 			page 32


 590 007a 5A60     		str	r2, [r3, #4]
 591 007c E6E7     		b	.L26
 592              	.LVL30:
 593              	.L27:
 246:Drivers/STM32G0xx_HAL_Driver/Src/stm32g0xx_hal_dma.c ****   }
 594              		.loc 1 246 12 view .LVU199
 595 007e 0120     		movs	r0, #1
 596              	.LVL31:
 246:Drivers/STM32G0xx_HAL_Driver/Src/stm32g0xx_hal_dma.c ****   }
 597              		.loc 1 246 12 view .LVU200
 598 0080 F2E7     		b	.L25
 599              	.L30:
 600 0082 C046     		.align	2
 601              	.L29:
 602 0084 F8FFFDBF 		.word	-1073872904
 603 0088 00000240 		.word	1073872896
 604              		.cfi_endproc
 605              	.LFE159:
 607              		.section	.text.HAL_DMA_Start,"ax",%progbits
 608              		.align	1
 609              		.global	HAL_DMA_Start
 610              		.syntax unified
 611              		.code	16
 612              		.thumb_func
 614              	HAL_DMA_Start:
 615              	.LVL32:
 616              	.LFB160:
 345:Drivers/STM32G0xx_HAL_Driver/Src/stm32g0xx_hal_dma.c ****   HAL_StatusTypeDef status = HAL_OK;
 617              		.loc 1 345 1 is_stmt 1 view -0
 618              		.cfi_startproc
 619              		@ args = 0, pretend = 0, frame = 0
 620              		@ frame_needed = 0, uses_anonymous_args = 0
 345:Drivers/STM32G0xx_HAL_Driver/Src/stm32g0xx_hal_dma.c ****   HAL_StatusTypeDef status = HAL_OK;
 621              		.loc 1 345 1 is_stmt 0 view .LVU202
 622 0000 70B5     		push	{r4, r5, r6, lr}
 623              	.LCFI4:
 624              		.cfi_def_cfa_offset 16
 625              		.cfi_offset 4, -16
 626              		.cfi_offset 5, -12
 627              		.cfi_offset 6, -8
 628              		.cfi_offset 14, -4
 629 0002 0400     		movs	r4, r0
 346:Drivers/STM32G0xx_HAL_Driver/Src/stm32g0xx_hal_dma.c **** 
 630              		.loc 1 346 3 is_stmt 1 view .LVU203
 631              	.LVL33:
 349:Drivers/STM32G0xx_HAL_Driver/Src/stm32g0xx_hal_dma.c **** 
 632              		.loc 1 349 3 view .LVU204
 352:Drivers/STM32G0xx_HAL_Driver/Src/stm32g0xx_hal_dma.c **** 
 633              		.loc 1 352 3 view .LVU205
 352:Drivers/STM32G0xx_HAL_Driver/Src/stm32g0xx_hal_dma.c **** 
 634              		.loc 1 352 3 view .LVU206
 635 0004 2420     		movs	r0, #36
 636              	.LVL34:
 352:Drivers/STM32G0xx_HAL_Driver/Src/stm32g0xx_hal_dma.c **** 
 637              		.loc 1 352 3 is_stmt 0 view .LVU207
 638 0006 205C     		ldrb	r0, [r4, r0]
 639 0008 0128     		cmp	r0, #1
ARM GAS  /var/folders/cw/6cmm0b_n7yj10n1wx8hfx52r0000gn/T//ccoyqBc2.s 			page 33


 640 000a 21D0     		beq	.L35
 352:Drivers/STM32G0xx_HAL_Driver/Src/stm32g0xx_hal_dma.c **** 
 641              		.loc 1 352 3 is_stmt 1 discriminator 2 view .LVU208
 642 000c 2420     		movs	r0, #36
 643 000e 0125     		movs	r5, #1
 644 0010 2554     		strb	r5, [r4, r0]
 352:Drivers/STM32G0xx_HAL_Driver/Src/stm32g0xx_hal_dma.c **** 
 645              		.loc 1 352 3 discriminator 2 view .LVU209
 354:Drivers/STM32G0xx_HAL_Driver/Src/stm32g0xx_hal_dma.c ****   {
 646              		.loc 1 354 3 discriminator 2 view .LVU210
 354:Drivers/STM32G0xx_HAL_Driver/Src/stm32g0xx_hal_dma.c ****   {
 647              		.loc 1 354 34 is_stmt 0 discriminator 2 view .LVU211
 648 0012 0130     		adds	r0, r0, #1
 649 0014 205C     		ldrb	r0, [r4, r0]
 354:Drivers/STM32G0xx_HAL_Driver/Src/stm32g0xx_hal_dma.c ****   {
 650              		.loc 1 354 6 discriminator 2 view .LVU212
 651 0016 0128     		cmp	r0, #1
 652 0018 07D0     		beq	.L36
 372:Drivers/STM32G0xx_HAL_Driver/Src/stm32g0xx_hal_dma.c ****     status = HAL_BUSY;
 653              		.loc 1 372 5 is_stmt 1 view .LVU213
 372:Drivers/STM32G0xx_HAL_Driver/Src/stm32g0xx_hal_dma.c ****     status = HAL_BUSY;
 654              		.loc 1 372 5 view .LVU214
 655 001a 2423     		movs	r3, #36
 656              	.LVL35:
 372:Drivers/STM32G0xx_HAL_Driver/Src/stm32g0xx_hal_dma.c ****     status = HAL_BUSY;
 657              		.loc 1 372 5 is_stmt 0 view .LVU215
 658 001c 0022     		movs	r2, #0
 659              	.LVL36:
 372:Drivers/STM32G0xx_HAL_Driver/Src/stm32g0xx_hal_dma.c ****     status = HAL_BUSY;
 660              		.loc 1 372 5 view .LVU216
 661 001e E254     		strb	r2, [r4, r3]
 372:Drivers/STM32G0xx_HAL_Driver/Src/stm32g0xx_hal_dma.c ****     status = HAL_BUSY;
 662              		.loc 1 372 5 is_stmt 1 view .LVU217
 373:Drivers/STM32G0xx_HAL_Driver/Src/stm32g0xx_hal_dma.c ****   }
 663              		.loc 1 373 5 view .LVU218
 664              	.LVL37:
 373:Drivers/STM32G0xx_HAL_Driver/Src/stm32g0xx_hal_dma.c ****   }
 665              		.loc 1 373 12 is_stmt 0 view .LVU219
 666 0020 0220     		movs	r0, #2
 667              	.LVL38:
 668              	.L34:
 377:Drivers/STM32G0xx_HAL_Driver/Src/stm32g0xx_hal_dma.c **** 
 669              		.loc 1 377 3 is_stmt 1 view .LVU220
 377:Drivers/STM32G0xx_HAL_Driver/Src/stm32g0xx_hal_dma.c **** 
 670              		.loc 1 377 3 view .LVU221
 671 0022 2423     		movs	r3, #36
 672 0024 0022     		movs	r2, #0
 673 0026 E254     		strb	r2, [r4, r3]
 377:Drivers/STM32G0xx_HAL_Driver/Src/stm32g0xx_hal_dma.c **** 
 674              		.loc 1 377 3 view .LVU222
 379:Drivers/STM32G0xx_HAL_Driver/Src/stm32g0xx_hal_dma.c **** }
 675              		.loc 1 379 3 view .LVU223
 676              	.LVL39:
 677              	.L32:
 380:Drivers/STM32G0xx_HAL_Driver/Src/stm32g0xx_hal_dma.c **** 
 678              		.loc 1 380 1 is_stmt 0 view .LVU224
 679              		@ sp needed
ARM GAS  /var/folders/cw/6cmm0b_n7yj10n1wx8hfx52r0000gn/T//ccoyqBc2.s 			page 34


 680              	.LVL40:
 380:Drivers/STM32G0xx_HAL_Driver/Src/stm32g0xx_hal_dma.c **** 
 681              		.loc 1 380 1 view .LVU225
 682 0028 70BD     		pop	{r4, r5, r6, pc}
 683              	.LVL41:
 684              	.L36:
 357:Drivers/STM32G0xx_HAL_Driver/Src/stm32g0xx_hal_dma.c ****     hdma->ErrorCode = HAL_DMA_ERROR_NONE;
 685              		.loc 1 357 5 is_stmt 1 view .LVU226
 357:Drivers/STM32G0xx_HAL_Driver/Src/stm32g0xx_hal_dma.c ****     hdma->ErrorCode = HAL_DMA_ERROR_NONE;
 686              		.loc 1 357 17 is_stmt 0 view .LVU227
 687 002a 2430     		adds	r0, r0, #36
 688 002c 0135     		adds	r5, r5, #1
 689 002e 2554     		strb	r5, [r4, r0]
 358:Drivers/STM32G0xx_HAL_Driver/Src/stm32g0xx_hal_dma.c **** 
 690              		.loc 1 358 5 is_stmt 1 view .LVU228
 358:Drivers/STM32G0xx_HAL_Driver/Src/stm32g0xx_hal_dma.c **** 
 691              		.loc 1 358 21 is_stmt 0 view .LVU229
 692 0030 0020     		movs	r0, #0
 693 0032 E063     		str	r0, [r4, #60]
 361:Drivers/STM32G0xx_HAL_Driver/Src/stm32g0xx_hal_dma.c **** 
 694              		.loc 1 361 5 is_stmt 1 view .LVU230
 695 0034 2668     		ldr	r6, [r4]
 696 0036 3068     		ldr	r0, [r6]
 697 0038 013D     		subs	r5, r5, #1
 698 003a A843     		bics	r0, r5
 699 003c 3060     		str	r0, [r6]
 364:Drivers/STM32G0xx_HAL_Driver/Src/stm32g0xx_hal_dma.c **** 
 700              		.loc 1 364 5 view .LVU231
 701 003e 2000     		movs	r0, r4
 702 0040 FFF7FEFF 		bl	DMA_SetConfig
 703              	.LVL42:
 367:Drivers/STM32G0xx_HAL_Driver/Src/stm32g0xx_hal_dma.c ****   }
 704              		.loc 1 367 5 view .LVU232
 705 0044 2268     		ldr	r2, [r4]
 706 0046 1368     		ldr	r3, [r2]
 707 0048 2B43     		orrs	r3, r5
 708 004a 1360     		str	r3, [r2]
 346:Drivers/STM32G0xx_HAL_Driver/Src/stm32g0xx_hal_dma.c **** 
 709              		.loc 1 346 21 is_stmt 0 view .LVU233
 710 004c 0020     		movs	r0, #0
 711 004e E8E7     		b	.L34
 712              	.LVL43:
 713              	.L35:
 352:Drivers/STM32G0xx_HAL_Driver/Src/stm32g0xx_hal_dma.c **** 
 714              		.loc 1 352 3 view .LVU234
 715 0050 0220     		movs	r0, #2
 716 0052 E9E7     		b	.L32
 717              		.cfi_endproc
 718              	.LFE160:
 720              		.section	.text.HAL_DMA_Start_IT,"ax",%progbits
 721              		.align	1
 722              		.global	HAL_DMA_Start_IT
 723              		.syntax unified
 724              		.code	16
 725              		.thumb_func
 727              	HAL_DMA_Start_IT:
 728              	.LVL44:
ARM GAS  /var/folders/cw/6cmm0b_n7yj10n1wx8hfx52r0000gn/T//ccoyqBc2.s 			page 35


 729              	.LFB161:
 392:Drivers/STM32G0xx_HAL_Driver/Src/stm32g0xx_hal_dma.c ****   HAL_StatusTypeDef status = HAL_OK;
 730              		.loc 1 392 1 is_stmt 1 view -0
 731              		.cfi_startproc
 732              		@ args = 0, pretend = 0, frame = 0
 733              		@ frame_needed = 0, uses_anonymous_args = 0
 392:Drivers/STM32G0xx_HAL_Driver/Src/stm32g0xx_hal_dma.c ****   HAL_StatusTypeDef status = HAL_OK;
 734              		.loc 1 392 1 is_stmt 0 view .LVU236
 735 0000 70B5     		push	{r4, r5, r6, lr}
 736              	.LCFI5:
 737              		.cfi_def_cfa_offset 16
 738              		.cfi_offset 4, -16
 739              		.cfi_offset 5, -12
 740              		.cfi_offset 6, -8
 741              		.cfi_offset 14, -4
 742 0002 0400     		movs	r4, r0
 393:Drivers/STM32G0xx_HAL_Driver/Src/stm32g0xx_hal_dma.c **** 
 743              		.loc 1 393 3 is_stmt 1 view .LVU237
 744              	.LVL45:
 396:Drivers/STM32G0xx_HAL_Driver/Src/stm32g0xx_hal_dma.c **** 
 745              		.loc 1 396 3 view .LVU238
 399:Drivers/STM32G0xx_HAL_Driver/Src/stm32g0xx_hal_dma.c **** 
 746              		.loc 1 399 3 view .LVU239
 399:Drivers/STM32G0xx_HAL_Driver/Src/stm32g0xx_hal_dma.c **** 
 747              		.loc 1 399 3 view .LVU240
 748 0004 2420     		movs	r0, #36
 749              	.LVL46:
 399:Drivers/STM32G0xx_HAL_Driver/Src/stm32g0xx_hal_dma.c **** 
 750              		.loc 1 399 3 is_stmt 0 view .LVU241
 751 0006 205C     		ldrb	r0, [r4, r0]
 752 0008 0128     		cmp	r0, #1
 753 000a 46D0     		beq	.L45
 399:Drivers/STM32G0xx_HAL_Driver/Src/stm32g0xx_hal_dma.c **** 
 754              		.loc 1 399 3 is_stmt 1 discriminator 2 view .LVU242
 755 000c 2420     		movs	r0, #36
 756 000e 0125     		movs	r5, #1
 757 0010 2554     		strb	r5, [r4, r0]
 399:Drivers/STM32G0xx_HAL_Driver/Src/stm32g0xx_hal_dma.c **** 
 758              		.loc 1 399 3 discriminator 2 view .LVU243
 401:Drivers/STM32G0xx_HAL_Driver/Src/stm32g0xx_hal_dma.c ****   {
 759              		.loc 1 401 3 discriminator 2 view .LVU244
 401:Drivers/STM32G0xx_HAL_Driver/Src/stm32g0xx_hal_dma.c ****   {
 760              		.loc 1 401 34 is_stmt 0 discriminator 2 view .LVU245
 761 0012 0130     		adds	r0, r0, #1
 762 0014 205C     		ldrb	r0, [r4, r0]
 401:Drivers/STM32G0xx_HAL_Driver/Src/stm32g0xx_hal_dma.c ****   {
 763              		.loc 1 401 6 discriminator 2 view .LVU246
 764 0016 0128     		cmp	r0, #1
 765 0018 07D0     		beq	.L47
 446:Drivers/STM32G0xx_HAL_Driver/Src/stm32g0xx_hal_dma.c **** 
 766              		.loc 1 446 5 is_stmt 1 view .LVU247
 446:Drivers/STM32G0xx_HAL_Driver/Src/stm32g0xx_hal_dma.c **** 
 767              		.loc 1 446 5 view .LVU248
 768 001a 2423     		movs	r3, #36
 769              	.LVL47:
 446:Drivers/STM32G0xx_HAL_Driver/Src/stm32g0xx_hal_dma.c **** 
 770              		.loc 1 446 5 is_stmt 0 view .LVU249
ARM GAS  /var/folders/cw/6cmm0b_n7yj10n1wx8hfx52r0000gn/T//ccoyqBc2.s 			page 36


 771 001c 0022     		movs	r2, #0
 772              	.LVL48:
 446:Drivers/STM32G0xx_HAL_Driver/Src/stm32g0xx_hal_dma.c **** 
 773              		.loc 1 446 5 view .LVU250
 774 001e E254     		strb	r2, [r4, r3]
 446:Drivers/STM32G0xx_HAL_Driver/Src/stm32g0xx_hal_dma.c **** 
 775              		.loc 1 446 5 is_stmt 1 view .LVU251
 449:Drivers/STM32G0xx_HAL_Driver/Src/stm32g0xx_hal_dma.c ****   }
 776              		.loc 1 449 5 view .LVU252
 777              	.LVL49:
 449:Drivers/STM32G0xx_HAL_Driver/Src/stm32g0xx_hal_dma.c ****   }
 778              		.loc 1 449 12 is_stmt 0 view .LVU253
 779 0020 0220     		movs	r0, #2
 780              	.LVL50:
 781              	.L44:
 453:Drivers/STM32G0xx_HAL_Driver/Src/stm32g0xx_hal_dma.c **** 
 782              		.loc 1 453 3 is_stmt 1 view .LVU254
 453:Drivers/STM32G0xx_HAL_Driver/Src/stm32g0xx_hal_dma.c **** 
 783              		.loc 1 453 3 view .LVU255
 784 0022 2423     		movs	r3, #36
 785 0024 0022     		movs	r2, #0
 786 0026 E254     		strb	r2, [r4, r3]
 453:Drivers/STM32G0xx_HAL_Driver/Src/stm32g0xx_hal_dma.c **** 
 787              		.loc 1 453 3 view .LVU256
 455:Drivers/STM32G0xx_HAL_Driver/Src/stm32g0xx_hal_dma.c **** }
 788              		.loc 1 455 3 view .LVU257
 789              	.LVL51:
 790              	.L38:
 456:Drivers/STM32G0xx_HAL_Driver/Src/stm32g0xx_hal_dma.c **** 
 791              		.loc 1 456 1 is_stmt 0 view .LVU258
 792              		@ sp needed
 793              	.LVL52:
 456:Drivers/STM32G0xx_HAL_Driver/Src/stm32g0xx_hal_dma.c **** 
 794              		.loc 1 456 1 view .LVU259
 795 0028 70BD     		pop	{r4, r5, r6, pc}
 796              	.LVL53:
 797              	.L47:
 404:Drivers/STM32G0xx_HAL_Driver/Src/stm32g0xx_hal_dma.c ****     hdma->ErrorCode = HAL_DMA_ERROR_NONE;
 798              		.loc 1 404 5 is_stmt 1 view .LVU260
 404:Drivers/STM32G0xx_HAL_Driver/Src/stm32g0xx_hal_dma.c ****     hdma->ErrorCode = HAL_DMA_ERROR_NONE;
 799              		.loc 1 404 17 is_stmt 0 view .LVU261
 800 002a 2430     		adds	r0, r0, #36
 801 002c 0135     		adds	r5, r5, #1
 802 002e 2554     		strb	r5, [r4, r0]
 405:Drivers/STM32G0xx_HAL_Driver/Src/stm32g0xx_hal_dma.c **** 
 803              		.loc 1 405 5 is_stmt 1 view .LVU262
 405:Drivers/STM32G0xx_HAL_Driver/Src/stm32g0xx_hal_dma.c **** 
 804              		.loc 1 405 21 is_stmt 0 view .LVU263
 805 0030 0020     		movs	r0, #0
 806 0032 E063     		str	r0, [r4, #60]
 408:Drivers/STM32G0xx_HAL_Driver/Src/stm32g0xx_hal_dma.c **** 
 807              		.loc 1 408 5 is_stmt 1 view .LVU264
 808 0034 2568     		ldr	r5, [r4]
 809 0036 2868     		ldr	r0, [r5]
 810 0038 0126     		movs	r6, #1
 811 003a B043     		bics	r0, r6
 812 003c 2860     		str	r0, [r5]
ARM GAS  /var/folders/cw/6cmm0b_n7yj10n1wx8hfx52r0000gn/T//ccoyqBc2.s 			page 37


 411:Drivers/STM32G0xx_HAL_Driver/Src/stm32g0xx_hal_dma.c **** 
 813              		.loc 1 411 5 view .LVU265
 814 003e 2000     		movs	r0, r4
 815 0040 FFF7FEFF 		bl	DMA_SetConfig
 816              	.LVL54:
 415:Drivers/STM32G0xx_HAL_Driver/Src/stm32g0xx_hal_dma.c ****     {
 817              		.loc 1 415 5 view .LVU266
 415:Drivers/STM32G0xx_HAL_Driver/Src/stm32g0xx_hal_dma.c ****     {
 818              		.loc 1 415 21 is_stmt 0 view .LVU267
 819 0044 236B     		ldr	r3, [r4, #48]
 415:Drivers/STM32G0xx_HAL_Driver/Src/stm32g0xx_hal_dma.c ****     {
 820              		.loc 1 415 8 view .LVU268
 821 0046 002B     		cmp	r3, #0
 822 0048 1CD0     		beq	.L40
 418:Drivers/STM32G0xx_HAL_Driver/Src/stm32g0xx_hal_dma.c ****     }
 823              		.loc 1 418 7 is_stmt 1 view .LVU269
 824 004a 2268     		ldr	r2, [r4]
 825 004c 1368     		ldr	r3, [r2]
 826 004e 0E21     		movs	r1, #14
 827 0050 0B43     		orrs	r3, r1
 828 0052 1360     		str	r3, [r2]
 829              	.L41:
 427:Drivers/STM32G0xx_HAL_Driver/Src/stm32g0xx_hal_dma.c ****     {
 830              		.loc 1 427 5 view .LVU270
 427:Drivers/STM32G0xx_HAL_Driver/Src/stm32g0xx_hal_dma.c ****     {
 831              		.loc 1 427 14 is_stmt 0 view .LVU271
 832 0054 626C     		ldr	r2, [r4, #68]
 427:Drivers/STM32G0xx_HAL_Driver/Src/stm32g0xx_hal_dma.c ****     {
 833              		.loc 1 427 29 view .LVU272
 834 0056 1368     		ldr	r3, [r2]
 427:Drivers/STM32G0xx_HAL_Driver/Src/stm32g0xx_hal_dma.c ****     {
 835              		.loc 1 427 8 view .LVU273
 836 0058 DB03     		lsls	r3, r3, #15
 837 005a 04D5     		bpl	.L42
 430:Drivers/STM32G0xx_HAL_Driver/Src/stm32g0xx_hal_dma.c ****     }
 838              		.loc 1 430 7 is_stmt 1 view .LVU274
 430:Drivers/STM32G0xx_HAL_Driver/Src/stm32g0xx_hal_dma.c ****     }
 839              		.loc 1 430 26 is_stmt 0 view .LVU275
 840 005c 1168     		ldr	r1, [r2]
 430:Drivers/STM32G0xx_HAL_Driver/Src/stm32g0xx_hal_dma.c ****     }
 841              		.loc 1 430 32 view .LVU276
 842 005e 8023     		movs	r3, #128
 843 0060 5B00     		lsls	r3, r3, #1
 844 0062 0B43     		orrs	r3, r1
 845 0064 1360     		str	r3, [r2]
 846              	.L42:
 433:Drivers/STM32G0xx_HAL_Driver/Src/stm32g0xx_hal_dma.c ****     {
 847              		.loc 1 433 5 is_stmt 1 view .LVU277
 433:Drivers/STM32G0xx_HAL_Driver/Src/stm32g0xx_hal_dma.c ****     {
 848              		.loc 1 433 13 is_stmt 0 view .LVU278
 849 0066 236D     		ldr	r3, [r4, #80]
 433:Drivers/STM32G0xx_HAL_Driver/Src/stm32g0xx_hal_dma.c ****     {
 850              		.loc 1 433 8 view .LVU279
 851 0068 002B     		cmp	r3, #0
 852 006a 04D0     		beq	.L43
 437:Drivers/STM32G0xx_HAL_Driver/Src/stm32g0xx_hal_dma.c ****     }
 853              		.loc 1 437 7 is_stmt 1 view .LVU280
ARM GAS  /var/folders/cw/6cmm0b_n7yj10n1wx8hfx52r0000gn/T//ccoyqBc2.s 			page 38


 437:Drivers/STM32G0xx_HAL_Driver/Src/stm32g0xx_hal_dma.c ****     }
 854              		.loc 1 437 29 is_stmt 0 view .LVU281
 855 006c 1968     		ldr	r1, [r3]
 437:Drivers/STM32G0xx_HAL_Driver/Src/stm32g0xx_hal_dma.c ****     }
 856              		.loc 1 437 36 view .LVU282
 857 006e 8022     		movs	r2, #128
 858 0070 5200     		lsls	r2, r2, #1
 859 0072 0A43     		orrs	r2, r1
 860 0074 1A60     		str	r2, [r3]
 861              	.L43:
 441:Drivers/STM32G0xx_HAL_Driver/Src/stm32g0xx_hal_dma.c ****   }
 862              		.loc 1 441 5 is_stmt 1 view .LVU283
 863 0076 2268     		ldr	r2, [r4]
 864 0078 1368     		ldr	r3, [r2]
 865 007a 0121     		movs	r1, #1
 866 007c 0B43     		orrs	r3, r1
 867 007e 1360     		str	r3, [r2]
 393:Drivers/STM32G0xx_HAL_Driver/Src/stm32g0xx_hal_dma.c **** 
 868              		.loc 1 393 21 is_stmt 0 view .LVU284
 869 0080 0020     		movs	r0, #0
 870 0082 CEE7     		b	.L44
 871              	.L40:
 422:Drivers/STM32G0xx_HAL_Driver/Src/stm32g0xx_hal_dma.c ****       __HAL_DMA_ENABLE_IT(hdma, (DMA_IT_TC | DMA_IT_TE));
 872              		.loc 1 422 7 is_stmt 1 view .LVU285
 873 0084 2268     		ldr	r2, [r4]
 874 0086 1368     		ldr	r3, [r2]
 875 0088 0421     		movs	r1, #4
 876 008a 8B43     		bics	r3, r1
 877 008c 1360     		str	r3, [r2]
 423:Drivers/STM32G0xx_HAL_Driver/Src/stm32g0xx_hal_dma.c ****     }
 878              		.loc 1 423 7 view .LVU286
 879 008e 2268     		ldr	r2, [r4]
 880 0090 1368     		ldr	r3, [r2]
 881 0092 0631     		adds	r1, r1, #6
 882 0094 0B43     		orrs	r3, r1
 883 0096 1360     		str	r3, [r2]
 884 0098 DCE7     		b	.L41
 885              	.LVL55:
 886              	.L45:
 399:Drivers/STM32G0xx_HAL_Driver/Src/stm32g0xx_hal_dma.c **** 
 887              		.loc 1 399 3 is_stmt 0 view .LVU287
 888 009a 0220     		movs	r0, #2
 889 009c C4E7     		b	.L38
 890              		.cfi_endproc
 891              	.LFE161:
 893              		.section	.text.HAL_DMA_Abort,"ax",%progbits
 894              		.align	1
 895              		.global	HAL_DMA_Abort
 896              		.syntax unified
 897              		.code	16
 898              		.thumb_func
 900              	HAL_DMA_Abort:
 901              	.LVL56:
 902              	.LFB162:
 465:Drivers/STM32G0xx_HAL_Driver/Src/stm32g0xx_hal_dma.c ****   /* Check the DMA peripheral handle */
 903              		.loc 1 465 1 is_stmt 1 view -0
 904              		.cfi_startproc
ARM GAS  /var/folders/cw/6cmm0b_n7yj10n1wx8hfx52r0000gn/T//ccoyqBc2.s 			page 39


 905              		@ args = 0, pretend = 0, frame = 0
 906              		@ frame_needed = 0, uses_anonymous_args = 0
 465:Drivers/STM32G0xx_HAL_Driver/Src/stm32g0xx_hal_dma.c ****   /* Check the DMA peripheral handle */
 907              		.loc 1 465 1 is_stmt 0 view .LVU289
 908 0000 30B5     		push	{r4, r5, lr}
 909              	.LCFI6:
 910              		.cfi_def_cfa_offset 12
 911              		.cfi_offset 4, -12
 912              		.cfi_offset 5, -8
 913              		.cfi_offset 14, -4
 467:Drivers/STM32G0xx_HAL_Driver/Src/stm32g0xx_hal_dma.c ****   {
 914              		.loc 1 467 3 is_stmt 1 view .LVU290
 467:Drivers/STM32G0xx_HAL_Driver/Src/stm32g0xx_hal_dma.c ****   {
 915              		.loc 1 467 6 is_stmt 0 view .LVU291
 916 0002 0028     		cmp	r0, #0
 917 0004 36D0     		beq	.L52
 473:Drivers/STM32G0xx_HAL_Driver/Src/stm32g0xx_hal_dma.c ****   {
 918              		.loc 1 473 3 is_stmt 1 view .LVU292
 473:Drivers/STM32G0xx_HAL_Driver/Src/stm32g0xx_hal_dma.c ****   {
 919              		.loc 1 473 10 is_stmt 0 view .LVU293
 920 0006 2523     		movs	r3, #37
 921 0008 C35C     		ldrb	r3, [r0, r3]
 473:Drivers/STM32G0xx_HAL_Driver/Src/stm32g0xx_hal_dma.c ****   {
 922              		.loc 1 473 5 view .LVU294
 923 000a 022B     		cmp	r3, #2
 924 000c 06D0     		beq	.L50
 475:Drivers/STM32G0xx_HAL_Driver/Src/stm32g0xx_hal_dma.c **** 
 925              		.loc 1 475 5 is_stmt 1 view .LVU295
 475:Drivers/STM32G0xx_HAL_Driver/Src/stm32g0xx_hal_dma.c **** 
 926              		.loc 1 475 21 is_stmt 0 view .LVU296
 927 000e 0423     		movs	r3, #4
 928 0010 C363     		str	r3, [r0, #60]
 478:Drivers/STM32G0xx_HAL_Driver/Src/stm32g0xx_hal_dma.c **** 
 929              		.loc 1 478 5 is_stmt 1 view .LVU297
 478:Drivers/STM32G0xx_HAL_Driver/Src/stm32g0xx_hal_dma.c **** 
 930              		.loc 1 478 5 view .LVU298
 931 0012 2033     		adds	r3, r3, #32
 932 0014 0022     		movs	r2, #0
 933 0016 C254     		strb	r2, [r0, r3]
 478:Drivers/STM32G0xx_HAL_Driver/Src/stm32g0xx_hal_dma.c **** 
 934              		.loc 1 478 5 view .LVU299
 480:Drivers/STM32G0xx_HAL_Driver/Src/stm32g0xx_hal_dma.c ****   }
 935              		.loc 1 480 5 view .LVU300
 480:Drivers/STM32G0xx_HAL_Driver/Src/stm32g0xx_hal_dma.c ****   }
 936              		.loc 1 480 12 is_stmt 0 view .LVU301
 937 0018 0120     		movs	r0, #1
 938              	.LVL57:
 939              	.L49:
 517:Drivers/STM32G0xx_HAL_Driver/Src/stm32g0xx_hal_dma.c **** 
 940              		.loc 1 517 1 view .LVU302
 941              		@ sp needed
 942 001a 30BD     		pop	{r4, r5, pc}
 943              	.LVL58:
 944              	.L50:
 485:Drivers/STM32G0xx_HAL_Driver/Src/stm32g0xx_hal_dma.c **** 
 945              		.loc 1 485 5 is_stmt 1 view .LVU303
 946 001c 0268     		ldr	r2, [r0]
ARM GAS  /var/folders/cw/6cmm0b_n7yj10n1wx8hfx52r0000gn/T//ccoyqBc2.s 			page 40


 947 001e 1368     		ldr	r3, [r2]
 948 0020 0E21     		movs	r1, #14
 949 0022 8B43     		bics	r3, r1
 950 0024 1360     		str	r3, [r2]
 488:Drivers/STM32G0xx_HAL_Driver/Src/stm32g0xx_hal_dma.c **** 
 951              		.loc 1 488 5 view .LVU304
 488:Drivers/STM32G0xx_HAL_Driver/Src/stm32g0xx_hal_dma.c **** 
 952              		.loc 1 488 9 is_stmt 0 view .LVU305
 953 0026 426C     		ldr	r2, [r0, #68]
 488:Drivers/STM32G0xx_HAL_Driver/Src/stm32g0xx_hal_dma.c **** 
 954              		.loc 1 488 24 view .LVU306
 955 0028 1368     		ldr	r3, [r2]
 488:Drivers/STM32G0xx_HAL_Driver/Src/stm32g0xx_hal_dma.c **** 
 956              		.loc 1 488 30 view .LVU307
 957 002a 1349     		ldr	r1, .L53
 958 002c 0B40     		ands	r3, r1
 959 002e 1360     		str	r3, [r2]
 491:Drivers/STM32G0xx_HAL_Driver/Src/stm32g0xx_hal_dma.c **** 
 960              		.loc 1 491 5 is_stmt 1 view .LVU308
 961 0030 0168     		ldr	r1, [r0]
 962 0032 0A68     		ldr	r2, [r1]
 963 0034 0123     		movs	r3, #1
 964 0036 9A43     		bics	r2, r3
 965 0038 0A60     		str	r2, [r1]
 494:Drivers/STM32G0xx_HAL_Driver/Src/stm32g0xx_hal_dma.c **** 
 966              		.loc 1 494 5 view .LVU309
 967 003a 104C     		ldr	r4, .L53+4
 968 003c 6268     		ldr	r2, [r4, #4]
 969 003e 056C     		ldr	r5, [r0, #64]
 970 0040 1C21     		movs	r1, #28
 971 0042 2940     		ands	r1, r5
 972 0044 8B40     		lsls	r3, r3, r1
 973 0046 1343     		orrs	r3, r2
 974 0048 6360     		str	r3, [r4, #4]
 497:Drivers/STM32G0xx_HAL_Driver/Src/stm32g0xx_hal_dma.c **** 
 975              		.loc 1 497 5 view .LVU310
 497:Drivers/STM32G0xx_HAL_Driver/Src/stm32g0xx_hal_dma.c **** 
 976              		.loc 1 497 9 is_stmt 0 view .LVU311
 977 004a 836C     		ldr	r3, [r0, #72]
 497:Drivers/STM32G0xx_HAL_Driver/Src/stm32g0xx_hal_dma.c **** 
 978              		.loc 1 497 42 view .LVU312
 979 004c C26C     		ldr	r2, [r0, #76]
 497:Drivers/STM32G0xx_HAL_Driver/Src/stm32g0xx_hal_dma.c **** 
 980              		.loc 1 497 36 view .LVU313
 981 004e 5A60     		str	r2, [r3, #4]
 499:Drivers/STM32G0xx_HAL_Driver/Src/stm32g0xx_hal_dma.c ****     {
 982              		.loc 1 499 5 is_stmt 1 view .LVU314
 499:Drivers/STM32G0xx_HAL_Driver/Src/stm32g0xx_hal_dma.c ****     {
 983              		.loc 1 499 13 is_stmt 0 view .LVU315
 984 0050 036D     		ldr	r3, [r0, #80]
 499:Drivers/STM32G0xx_HAL_Driver/Src/stm32g0xx_hal_dma.c ****     {
 985              		.loc 1 499 8 view .LVU316
 986 0052 002B     		cmp	r3, #0
 987 0054 06D0     		beq	.L51
 503:Drivers/STM32G0xx_HAL_Driver/Src/stm32g0xx_hal_dma.c **** 
 988              		.loc 1 503 7 is_stmt 1 view .LVU317
 503:Drivers/STM32G0xx_HAL_Driver/Src/stm32g0xx_hal_dma.c **** 
ARM GAS  /var/folders/cw/6cmm0b_n7yj10n1wx8hfx52r0000gn/T//ccoyqBc2.s 			page 41


 989              		.loc 1 503 29 is_stmt 0 view .LVU318
 990 0056 1A68     		ldr	r2, [r3]
 503:Drivers/STM32G0xx_HAL_Driver/Src/stm32g0xx_hal_dma.c **** 
 991              		.loc 1 503 36 view .LVU319
 992 0058 0749     		ldr	r1, .L53
 993 005a 0A40     		ands	r2, r1
 994 005c 1A60     		str	r2, [r3]
 506:Drivers/STM32G0xx_HAL_Driver/Src/stm32g0xx_hal_dma.c ****     }
 995              		.loc 1 506 7 is_stmt 1 view .LVU320
 506:Drivers/STM32G0xx_HAL_Driver/Src/stm32g0xx_hal_dma.c ****     }
 996              		.loc 1 506 11 is_stmt 0 view .LVU321
 997 005e 436D     		ldr	r3, [r0, #84]
 506:Drivers/STM32G0xx_HAL_Driver/Src/stm32g0xx_hal_dma.c ****     }
 998              		.loc 1 506 49 view .LVU322
 999 0060 826D     		ldr	r2, [r0, #88]
 506:Drivers/STM32G0xx_HAL_Driver/Src/stm32g0xx_hal_dma.c ****     }
 1000              		.loc 1 506 43 view .LVU323
 1001 0062 5A60     		str	r2, [r3, #4]
 1002              	.L51:
 510:Drivers/STM32G0xx_HAL_Driver/Src/stm32g0xx_hal_dma.c **** 
 1003              		.loc 1 510 5 is_stmt 1 view .LVU324
 510:Drivers/STM32G0xx_HAL_Driver/Src/stm32g0xx_hal_dma.c **** 
 1004              		.loc 1 510 17 is_stmt 0 view .LVU325
 1005 0064 2523     		movs	r3, #37
 1006 0066 0122     		movs	r2, #1
 1007 0068 C254     		strb	r2, [r0, r3]
 513:Drivers/STM32G0xx_HAL_Driver/Src/stm32g0xx_hal_dma.c ****   }
 1008              		.loc 1 513 5 is_stmt 1 view .LVU326
 513:Drivers/STM32G0xx_HAL_Driver/Src/stm32g0xx_hal_dma.c ****   }
 1009              		.loc 1 513 5 view .LVU327
 1010 006a 013B     		subs	r3, r3, #1
 1011 006c 0022     		movs	r2, #0
 1012 006e C254     		strb	r2, [r0, r3]
 513:Drivers/STM32G0xx_HAL_Driver/Src/stm32g0xx_hal_dma.c ****   }
 1013              		.loc 1 513 5 view .LVU328
 516:Drivers/STM32G0xx_HAL_Driver/Src/stm32g0xx_hal_dma.c **** }
 1014              		.loc 1 516 3 view .LVU329
 516:Drivers/STM32G0xx_HAL_Driver/Src/stm32g0xx_hal_dma.c **** }
 1015              		.loc 1 516 10 is_stmt 0 view .LVU330
 1016 0070 0020     		movs	r0, #0
 1017              	.LVL59:
 516:Drivers/STM32G0xx_HAL_Driver/Src/stm32g0xx_hal_dma.c **** }
 1018              		.loc 1 516 10 view .LVU331
 1019 0072 D2E7     		b	.L49
 1020              	.LVL60:
 1021              	.L52:
 469:Drivers/STM32G0xx_HAL_Driver/Src/stm32g0xx_hal_dma.c ****   }
 1022              		.loc 1 469 12 view .LVU332
 1023 0074 0120     		movs	r0, #1
 1024              	.LVL61:
 469:Drivers/STM32G0xx_HAL_Driver/Src/stm32g0xx_hal_dma.c ****   }
 1025              		.loc 1 469 12 view .LVU333
 1026 0076 D0E7     		b	.L49
 1027              	.L54:
 1028              		.align	2
 1029              	.L53:
 1030 0078 FFFEFFFF 		.word	-257
ARM GAS  /var/folders/cw/6cmm0b_n7yj10n1wx8hfx52r0000gn/T//ccoyqBc2.s 			page 42


 1031 007c 00000240 		.word	1073872896
 1032              		.cfi_endproc
 1033              	.LFE162:
 1035              		.section	.text.HAL_DMA_Abort_IT,"ax",%progbits
 1036              		.align	1
 1037              		.global	HAL_DMA_Abort_IT
 1038              		.syntax unified
 1039              		.code	16
 1040              		.thumb_func
 1042              	HAL_DMA_Abort_IT:
 1043              	.LVL62:
 1044              	.LFB163:
 526:Drivers/STM32G0xx_HAL_Driver/Src/stm32g0xx_hal_dma.c ****   HAL_StatusTypeDef status = HAL_OK;
 1045              		.loc 1 526 1 is_stmt 1 view -0
 1046              		.cfi_startproc
 1047              		@ args = 0, pretend = 0, frame = 0
 1048              		@ frame_needed = 0, uses_anonymous_args = 0
 526:Drivers/STM32G0xx_HAL_Driver/Src/stm32g0xx_hal_dma.c ****   HAL_StatusTypeDef status = HAL_OK;
 1049              		.loc 1 526 1 is_stmt 0 view .LVU335
 1050 0000 70B5     		push	{r4, r5, r6, lr}
 1051              	.LCFI7:
 1052              		.cfi_def_cfa_offset 16
 1053              		.cfi_offset 4, -16
 1054              		.cfi_offset 5, -12
 1055              		.cfi_offset 6, -8
 1056              		.cfi_offset 14, -4
 527:Drivers/STM32G0xx_HAL_Driver/Src/stm32g0xx_hal_dma.c **** 
 1057              		.loc 1 527 3 is_stmt 1 view .LVU336
 1058              	.LVL63:
 530:Drivers/STM32G0xx_HAL_Driver/Src/stm32g0xx_hal_dma.c ****   __HAL_LOCK(hdma);
 1059              		.loc 1 530 3 view .LVU337
 530:Drivers/STM32G0xx_HAL_Driver/Src/stm32g0xx_hal_dma.c ****   __HAL_LOCK(hdma);
 1060              		.loc 1 530 3 view .LVU338
 1061 0002 2423     		movs	r3, #36
 1062 0004 0022     		movs	r2, #0
 1063 0006 C254     		strb	r2, [r0, r3]
 530:Drivers/STM32G0xx_HAL_Driver/Src/stm32g0xx_hal_dma.c ****   __HAL_LOCK(hdma);
 1064              		.loc 1 530 3 view .LVU339
 531:Drivers/STM32G0xx_HAL_Driver/Src/stm32g0xx_hal_dma.c **** 
 1065              		.loc 1 531 3 view .LVU340
 531:Drivers/STM32G0xx_HAL_Driver/Src/stm32g0xx_hal_dma.c **** 
 1066              		.loc 1 531 3 view .LVU341
 531:Drivers/STM32G0xx_HAL_Driver/Src/stm32g0xx_hal_dma.c **** 
 1067              		.loc 1 531 3 view .LVU342
 1068 0008 0132     		adds	r2, r2, #1
 1069 000a C254     		strb	r2, [r0, r3]
 531:Drivers/STM32G0xx_HAL_Driver/Src/stm32g0xx_hal_dma.c **** 
 1070              		.loc 1 531 3 view .LVU343
 533:Drivers/STM32G0xx_HAL_Driver/Src/stm32g0xx_hal_dma.c ****   {
 1071              		.loc 1 533 3 view .LVU344
 533:Drivers/STM32G0xx_HAL_Driver/Src/stm32g0xx_hal_dma.c ****   {
 1072              		.loc 1 533 33 is_stmt 0 view .LVU345
 1073 000c 0133     		adds	r3, r3, #1
 1074 000e C35C     		ldrb	r3, [r0, r3]
 533:Drivers/STM32G0xx_HAL_Driver/Src/stm32g0xx_hal_dma.c ****   {
 1075              		.loc 1 533 6 view .LVU346
 1076 0010 022B     		cmp	r3, #2
ARM GAS  /var/folders/cw/6cmm0b_n7yj10n1wx8hfx52r0000gn/T//ccoyqBc2.s 			page 43


 1077 0012 03D0     		beq	.L56
 536:Drivers/STM32G0xx_HAL_Driver/Src/stm32g0xx_hal_dma.c **** 
 1078              		.loc 1 536 5 is_stmt 1 view .LVU347
 536:Drivers/STM32G0xx_HAL_Driver/Src/stm32g0xx_hal_dma.c **** 
 1079              		.loc 1 536 21 is_stmt 0 view .LVU348
 1080 0014 0423     		movs	r3, #4
 1081 0016 C363     		str	r3, [r0, #60]
 538:Drivers/STM32G0xx_HAL_Driver/Src/stm32g0xx_hal_dma.c ****   }
 1082              		.loc 1 538 5 is_stmt 1 view .LVU349
 1083              	.LVL64:
 538:Drivers/STM32G0xx_HAL_Driver/Src/stm32g0xx_hal_dma.c ****   }
 1084              		.loc 1 538 12 is_stmt 0 view .LVU350
 1085 0018 0120     		movs	r0, #1
 1086              	.LVL65:
 1087              	.L57:
 579:Drivers/STM32G0xx_HAL_Driver/Src/stm32g0xx_hal_dma.c **** }
 1088              		.loc 1 579 3 is_stmt 1 view .LVU351
 580:Drivers/STM32G0xx_HAL_Driver/Src/stm32g0xx_hal_dma.c **** 
 1089              		.loc 1 580 1 is_stmt 0 view .LVU352
 1090              		@ sp needed
 1091 001a 70BD     		pop	{r4, r5, r6, pc}
 1092              	.LVL66:
 1093              	.L56:
 543:Drivers/STM32G0xx_HAL_Driver/Src/stm32g0xx_hal_dma.c **** 
 1094              		.loc 1 543 5 is_stmt 1 view .LVU353
 1095 001c 0268     		ldr	r2, [r0]
 1096 001e 1368     		ldr	r3, [r2]
 1097 0020 0E21     		movs	r1, #14
 1098 0022 8B43     		bics	r3, r1
 1099 0024 1360     		str	r3, [r2]
 546:Drivers/STM32G0xx_HAL_Driver/Src/stm32g0xx_hal_dma.c **** 
 1100              		.loc 1 546 5 view .LVU354
 1101 0026 0168     		ldr	r1, [r0]
 1102 0028 0A68     		ldr	r2, [r1]
 1103 002a 0123     		movs	r3, #1
 1104 002c 9A43     		bics	r2, r3
 1105 002e 0A60     		str	r2, [r1]
 549:Drivers/STM32G0xx_HAL_Driver/Src/stm32g0xx_hal_dma.c **** 
 1106              		.loc 1 549 5 view .LVU355
 549:Drivers/STM32G0xx_HAL_Driver/Src/stm32g0xx_hal_dma.c **** 
 1107              		.loc 1 549 9 is_stmt 0 view .LVU356
 1108 0030 416C     		ldr	r1, [r0, #68]
 549:Drivers/STM32G0xx_HAL_Driver/Src/stm32g0xx_hal_dma.c **** 
 1109              		.loc 1 549 24 view .LVU357
 1110 0032 0A68     		ldr	r2, [r1]
 549:Drivers/STM32G0xx_HAL_Driver/Src/stm32g0xx_hal_dma.c **** 
 1111              		.loc 1 549 30 view .LVU358
 1112 0034 124C     		ldr	r4, .L60
 1113 0036 2240     		ands	r2, r4
 1114 0038 0A60     		str	r2, [r1]
 552:Drivers/STM32G0xx_HAL_Driver/Src/stm32g0xx_hal_dma.c **** 
 1115              		.loc 1 552 5 is_stmt 1 view .LVU359
 1116 003a 124C     		ldr	r4, .L60+4
 1117 003c 6268     		ldr	r2, [r4, #4]
 1118 003e 056C     		ldr	r5, [r0, #64]
 1119 0040 1C21     		movs	r1, #28
 1120 0042 2940     		ands	r1, r5
ARM GAS  /var/folders/cw/6cmm0b_n7yj10n1wx8hfx52r0000gn/T//ccoyqBc2.s 			page 44


 1121 0044 8B40     		lsls	r3, r3, r1
 1122 0046 1343     		orrs	r3, r2
 1123 0048 6360     		str	r3, [r4, #4]
 555:Drivers/STM32G0xx_HAL_Driver/Src/stm32g0xx_hal_dma.c **** 
 1124              		.loc 1 555 5 view .LVU360
 555:Drivers/STM32G0xx_HAL_Driver/Src/stm32g0xx_hal_dma.c **** 
 1125              		.loc 1 555 9 is_stmt 0 view .LVU361
 1126 004a 836C     		ldr	r3, [r0, #72]
 555:Drivers/STM32G0xx_HAL_Driver/Src/stm32g0xx_hal_dma.c **** 
 1127              		.loc 1 555 42 view .LVU362
 1128 004c C26C     		ldr	r2, [r0, #76]
 555:Drivers/STM32G0xx_HAL_Driver/Src/stm32g0xx_hal_dma.c **** 
 1129              		.loc 1 555 36 view .LVU363
 1130 004e 5A60     		str	r2, [r3, #4]
 557:Drivers/STM32G0xx_HAL_Driver/Src/stm32g0xx_hal_dma.c ****     {
 1131              		.loc 1 557 5 is_stmt 1 view .LVU364
 557:Drivers/STM32G0xx_HAL_Driver/Src/stm32g0xx_hal_dma.c ****     {
 1132              		.loc 1 557 13 is_stmt 0 view .LVU365
 1133 0050 036D     		ldr	r3, [r0, #80]
 557:Drivers/STM32G0xx_HAL_Driver/Src/stm32g0xx_hal_dma.c ****     {
 1134              		.loc 1 557 8 view .LVU366
 1135 0052 002B     		cmp	r3, #0
 1136 0054 06D0     		beq	.L58
 561:Drivers/STM32G0xx_HAL_Driver/Src/stm32g0xx_hal_dma.c **** 
 1137              		.loc 1 561 7 is_stmt 1 view .LVU367
 561:Drivers/STM32G0xx_HAL_Driver/Src/stm32g0xx_hal_dma.c **** 
 1138              		.loc 1 561 29 is_stmt 0 view .LVU368
 1139 0056 1A68     		ldr	r2, [r3]
 561:Drivers/STM32G0xx_HAL_Driver/Src/stm32g0xx_hal_dma.c **** 
 1140              		.loc 1 561 36 view .LVU369
 1141 0058 0949     		ldr	r1, .L60
 1142 005a 0A40     		ands	r2, r1
 1143 005c 1A60     		str	r2, [r3]
 564:Drivers/STM32G0xx_HAL_Driver/Src/stm32g0xx_hal_dma.c ****     }
 1144              		.loc 1 564 7 is_stmt 1 view .LVU370
 564:Drivers/STM32G0xx_HAL_Driver/Src/stm32g0xx_hal_dma.c ****     }
 1145              		.loc 1 564 11 is_stmt 0 view .LVU371
 1146 005e 436D     		ldr	r3, [r0, #84]
 564:Drivers/STM32G0xx_HAL_Driver/Src/stm32g0xx_hal_dma.c ****     }
 1147              		.loc 1 564 49 view .LVU372
 1148 0060 826D     		ldr	r2, [r0, #88]
 564:Drivers/STM32G0xx_HAL_Driver/Src/stm32g0xx_hal_dma.c ****     }
 1149              		.loc 1 564 43 view .LVU373
 1150 0062 5A60     		str	r2, [r3, #4]
 1151              	.L58:
 568:Drivers/STM32G0xx_HAL_Driver/Src/stm32g0xx_hal_dma.c **** 
 1152              		.loc 1 568 5 is_stmt 1 view .LVU374
 568:Drivers/STM32G0xx_HAL_Driver/Src/stm32g0xx_hal_dma.c **** 
 1153              		.loc 1 568 17 is_stmt 0 view .LVU375
 1154 0064 2523     		movs	r3, #37
 1155 0066 0122     		movs	r2, #1
 1156 0068 C254     		strb	r2, [r0, r3]
 571:Drivers/STM32G0xx_HAL_Driver/Src/stm32g0xx_hal_dma.c **** 
 1157              		.loc 1 571 5 is_stmt 1 view .LVU376
 571:Drivers/STM32G0xx_HAL_Driver/Src/stm32g0xx_hal_dma.c **** 
 1158              		.loc 1 571 5 view .LVU377
 1159 006a 013B     		subs	r3, r3, #1
ARM GAS  /var/folders/cw/6cmm0b_n7yj10n1wx8hfx52r0000gn/T//ccoyqBc2.s 			page 45


 1160 006c 0022     		movs	r2, #0
 1161 006e C254     		strb	r2, [r0, r3]
 571:Drivers/STM32G0xx_HAL_Driver/Src/stm32g0xx_hal_dma.c **** 
 1162              		.loc 1 571 5 view .LVU378
 574:Drivers/STM32G0xx_HAL_Driver/Src/stm32g0xx_hal_dma.c ****     {
 1163              		.loc 1 574 5 view .LVU379
 574:Drivers/STM32G0xx_HAL_Driver/Src/stm32g0xx_hal_dma.c ****     {
 1164              		.loc 1 574 13 is_stmt 0 view .LVU380
 1165 0070 836B     		ldr	r3, [r0, #56]
 574:Drivers/STM32G0xx_HAL_Driver/Src/stm32g0xx_hal_dma.c ****     {
 1166              		.loc 1 574 8 view .LVU381
 1167 0072 002B     		cmp	r3, #0
 1168 0074 02D0     		beq	.L59
 576:Drivers/STM32G0xx_HAL_Driver/Src/stm32g0xx_hal_dma.c ****     }
 1169              		.loc 1 576 7 is_stmt 1 view .LVU382
 1170 0076 9847     		blx	r3
 1171              	.LVL67:
 527:Drivers/STM32G0xx_HAL_Driver/Src/stm32g0xx_hal_dma.c **** 
 1172              		.loc 1 527 21 is_stmt 0 view .LVU383
 1173 0078 0020     		movs	r0, #0
 1174 007a CEE7     		b	.L57
 1175              	.LVL68:
 1176              	.L59:
 527:Drivers/STM32G0xx_HAL_Driver/Src/stm32g0xx_hal_dma.c **** 
 1177              		.loc 1 527 21 view .LVU384
 1178 007c 0020     		movs	r0, #0
 1179              	.LVL69:
 527:Drivers/STM32G0xx_HAL_Driver/Src/stm32g0xx_hal_dma.c **** 
 1180              		.loc 1 527 21 view .LVU385
 1181 007e CCE7     		b	.L57
 1182              	.L61:
 1183              		.align	2
 1184              	.L60:
 1185 0080 FFFEFFFF 		.word	-257
 1186 0084 00000240 		.word	1073872896
 1187              		.cfi_endproc
 1188              	.LFE163:
 1190              		.section	.text.HAL_DMA_PollForTransfer,"ax",%progbits
 1191              		.align	1
 1192              		.global	HAL_DMA_PollForTransfer
 1193              		.syntax unified
 1194              		.code	16
 1195              		.thumb_func
 1197              	HAL_DMA_PollForTransfer:
 1198              	.LVL70:
 1199              	.LFB164:
 591:Drivers/STM32G0xx_HAL_Driver/Src/stm32g0xx_hal_dma.c ****   uint32_t temp;
 1200              		.loc 1 591 1 is_stmt 1 view -0
 1201              		.cfi_startproc
 1202              		@ args = 0, pretend = 0, frame = 8
 1203              		@ frame_needed = 0, uses_anonymous_args = 0
 591:Drivers/STM32G0xx_HAL_Driver/Src/stm32g0xx_hal_dma.c ****   uint32_t temp;
 1204              		.loc 1 591 1 is_stmt 0 view .LVU387
 1205 0000 F0B5     		push	{r4, r5, r6, r7, lr}
 1206              	.LCFI8:
 1207              		.cfi_def_cfa_offset 20
 1208              		.cfi_offset 4, -20
ARM GAS  /var/folders/cw/6cmm0b_n7yj10n1wx8hfx52r0000gn/T//ccoyqBc2.s 			page 46


 1209              		.cfi_offset 5, -16
 1210              		.cfi_offset 6, -12
 1211              		.cfi_offset 7, -8
 1212              		.cfi_offset 14, -4
 1213 0002 83B0     		sub	sp, sp, #12
 1214              	.LCFI9:
 1215              		.cfi_def_cfa_offset 32
 1216 0004 0600     		movs	r6, r0
 1217 0006 0C00     		movs	r4, r1
 1218 0008 1700     		movs	r7, r2
 592:Drivers/STM32G0xx_HAL_Driver/Src/stm32g0xx_hal_dma.c ****   uint32_t tickstart;
 1219              		.loc 1 592 3 is_stmt 1 view .LVU388
 593:Drivers/STM32G0xx_HAL_Driver/Src/stm32g0xx_hal_dma.c **** 
 1220              		.loc 1 593 3 view .LVU389
 596:Drivers/STM32G0xx_HAL_Driver/Src/stm32g0xx_hal_dma.c **** 
 1221              		.loc 1 596 3 view .LVU390
 596:Drivers/STM32G0xx_HAL_Driver/Src/stm32g0xx_hal_dma.c **** 
 1222              		.loc 1 596 3 view .LVU391
 1223 000a 2423     		movs	r3, #36
 1224 000c 0022     		movs	r2, #0
 1225              	.LVL71:
 596:Drivers/STM32G0xx_HAL_Driver/Src/stm32g0xx_hal_dma.c **** 
 1226              		.loc 1 596 3 is_stmt 0 view .LVU392
 1227 000e C254     		strb	r2, [r0, r3]
 596:Drivers/STM32G0xx_HAL_Driver/Src/stm32g0xx_hal_dma.c **** 
 1228              		.loc 1 596 3 is_stmt 1 view .LVU393
 598:Drivers/STM32G0xx_HAL_Driver/Src/stm32g0xx_hal_dma.c ****   {
 1229              		.loc 1 598 3 view .LVU394
 598:Drivers/STM32G0xx_HAL_Driver/Src/stm32g0xx_hal_dma.c ****   {
 1230              		.loc 1 598 33 is_stmt 0 view .LVU395
 1231 0010 0133     		adds	r3, r3, #1
 1232 0012 C35C     		ldrb	r3, [r0, r3]
 598:Drivers/STM32G0xx_HAL_Driver/Src/stm32g0xx_hal_dma.c ****   {
 1233              		.loc 1 598 6 view .LVU396
 1234 0014 022B     		cmp	r3, #2
 1235 0016 04D0     		beq	.L63
 601:Drivers/STM32G0xx_HAL_Driver/Src/stm32g0xx_hal_dma.c ****     __HAL_UNLOCK(hdma);
 1236              		.loc 1 601 5 is_stmt 1 view .LVU397
 601:Drivers/STM32G0xx_HAL_Driver/Src/stm32g0xx_hal_dma.c ****     __HAL_UNLOCK(hdma);
 1237              		.loc 1 601 21 is_stmt 0 view .LVU398
 1238 0018 0423     		movs	r3, #4
 1239 001a C363     		str	r3, [r0, #60]
 602:Drivers/STM32G0xx_HAL_Driver/Src/stm32g0xx_hal_dma.c ****     return HAL_ERROR;
 1240              		.loc 1 602 5 is_stmt 1 view .LVU399
 602:Drivers/STM32G0xx_HAL_Driver/Src/stm32g0xx_hal_dma.c ****     return HAL_ERROR;
 1241              		.loc 1 602 5 view .LVU400
 602:Drivers/STM32G0xx_HAL_Driver/Src/stm32g0xx_hal_dma.c ****     return HAL_ERROR;
 1242              		.loc 1 602 5 view .LVU401
 603:Drivers/STM32G0xx_HAL_Driver/Src/stm32g0xx_hal_dma.c ****   }
 1243              		.loc 1 603 5 view .LVU402
 603:Drivers/STM32G0xx_HAL_Driver/Src/stm32g0xx_hal_dma.c ****   }
 1244              		.loc 1 603 12 is_stmt 0 view .LVU403
 1245 001c 0120     		movs	r0, #1
 1246              	.LVL72:
 1247              	.L64:
 713:Drivers/STM32G0xx_HAL_Driver/Src/stm32g0xx_hal_dma.c **** 
 1248              		.loc 1 713 1 view .LVU404
ARM GAS  /var/folders/cw/6cmm0b_n7yj10n1wx8hfx52r0000gn/T//ccoyqBc2.s 			page 47


 1249 001e 03B0     		add	sp, sp, #12
 1250              		@ sp needed
 1251              	.LVL73:
 1252              	.LVL74:
 713:Drivers/STM32G0xx_HAL_Driver/Src/stm32g0xx_hal_dma.c **** 
 1253              		.loc 1 713 1 view .LVU405
 1254 0020 F0BD     		pop	{r4, r5, r6, r7, pc}
 1255              	.LVL75:
 1256              	.L63:
 607:Drivers/STM32G0xx_HAL_Driver/Src/stm32g0xx_hal_dma.c ****   {
 1257              		.loc 1 607 3 is_stmt 1 view .LVU406
 607:Drivers/STM32G0xx_HAL_Driver/Src/stm32g0xx_hal_dma.c ****   {
 1258              		.loc 1 607 12 is_stmt 0 view .LVU407
 1259 0022 0368     		ldr	r3, [r0]
 607:Drivers/STM32G0xx_HAL_Driver/Src/stm32g0xx_hal_dma.c ****   {
 1260              		.loc 1 607 22 view .LVU408
 1261 0024 1B68     		ldr	r3, [r3]
 607:Drivers/STM32G0xx_HAL_Driver/Src/stm32g0xx_hal_dma.c ****   {
 1262              		.loc 1 607 6 view .LVU409
 1263 0026 9B06     		lsls	r3, r3, #26
 1264 0028 2AD4     		bmi	.L78
 614:Drivers/STM32G0xx_HAL_Driver/Src/stm32g0xx_hal_dma.c ****   {
 1265              		.loc 1 614 3 is_stmt 1 view .LVU410
 614:Drivers/STM32G0xx_HAL_Driver/Src/stm32g0xx_hal_dma.c ****   {
 1266              		.loc 1 614 6 is_stmt 0 view .LVU411
 1267 002a 0029     		cmp	r1, #0
 1268 002c 2DD1     		bne	.L66
 617:Drivers/STM32G0xx_HAL_Driver/Src/stm32g0xx_hal_dma.c ****   }
 1269              		.loc 1 617 5 is_stmt 1 view .LVU412
 617:Drivers/STM32G0xx_HAL_Driver/Src/stm32g0xx_hal_dma.c ****   }
 1270              		.loc 1 617 33 is_stmt 0 view .LVU413
 1271 002e 026C     		ldr	r2, [r0, #64]
 617:Drivers/STM32G0xx_HAL_Driver/Src/stm32g0xx_hal_dma.c ****   }
 1272              		.loc 1 617 48 view .LVU414
 1273 0030 1C23     		movs	r3, #28
 1274 0032 1340     		ands	r3, r2
 617:Drivers/STM32G0xx_HAL_Driver/Src/stm32g0xx_hal_dma.c ****   }
 1275              		.loc 1 617 10 view .LVU415
 1276 0034 0225     		movs	r5, #2
 1277 0036 9D40     		lsls	r5, r5, r3
 1278              	.LVL76:
 1279              	.L67:
 626:Drivers/STM32G0xx_HAL_Driver/Src/stm32g0xx_hal_dma.c **** 
 1280              		.loc 1 626 3 is_stmt 1 view .LVU416
 626:Drivers/STM32G0xx_HAL_Driver/Src/stm32g0xx_hal_dma.c **** 
 1281              		.loc 1 626 15 is_stmt 0 view .LVU417
 1282 0038 FFF7FEFF 		bl	HAL_GetTick
 1283              	.LVL77:
 626:Drivers/STM32G0xx_HAL_Driver/Src/stm32g0xx_hal_dma.c **** 
 1284              		.loc 1 626 15 view .LVU418
 1285 003c 0190     		str	r0, [sp, #4]
 1286              	.LVL78:
 628:Drivers/STM32G0xx_HAL_Driver/Src/stm32g0xx_hal_dma.c ****   {
 1287              		.loc 1 628 3 is_stmt 1 view .LVU419
 1288              	.L70:
 628:Drivers/STM32G0xx_HAL_Driver/Src/stm32g0xx_hal_dma.c ****   {
 1289              		.loc 1 628 13 view .LVU420
ARM GAS  /var/folders/cw/6cmm0b_n7yj10n1wx8hfx52r0000gn/T//ccoyqBc2.s 			page 48


 628:Drivers/STM32G0xx_HAL_Driver/Src/stm32g0xx_hal_dma.c ****   {
 1290              		.loc 1 628 16 is_stmt 0 view .LVU421
 1291 003e 3C4B     		ldr	r3, .L81
 1292 0040 1B68     		ldr	r3, [r3]
 628:Drivers/STM32G0xx_HAL_Driver/Src/stm32g0xx_hal_dma.c ****   {
 1293              		.loc 1 628 13 view .LVU422
 1294 0042 1D42     		tst	r5, r3
 1295 0044 37D1     		bne	.L79
 630:Drivers/STM32G0xx_HAL_Driver/Src/stm32g0xx_hal_dma.c ****     {
 1296              		.loc 1 630 5 is_stmt 1 view .LVU423
 630:Drivers/STM32G0xx_HAL_Driver/Src/stm32g0xx_hal_dma.c ****     {
 1297              		.loc 1 630 15 is_stmt 0 view .LVU424
 1298 0046 3A4B     		ldr	r3, .L81
 1299 0048 1A68     		ldr	r2, [r3]
 1300 004a 316C     		ldr	r1, [r6, #64]
 1301 004c 1C23     		movs	r3, #28
 1302 004e 0B40     		ands	r3, r1
 1303 0050 0821     		movs	r1, #8
 1304 0052 9940     		lsls	r1, r1, r3
 630:Drivers/STM32G0xx_HAL_Driver/Src/stm32g0xx_hal_dma.c ****     {
 1305              		.loc 1 630 8 view .LVU425
 1306 0054 1142     		tst	r1, r2
 1307 0056 1ED1     		bne	.L80
 649:Drivers/STM32G0xx_HAL_Driver/Src/stm32g0xx_hal_dma.c ****     {
 1308              		.loc 1 649 5 is_stmt 1 view .LVU426
 649:Drivers/STM32G0xx_HAL_Driver/Src/stm32g0xx_hal_dma.c ****     {
 1309              		.loc 1 649 8 is_stmt 0 view .LVU427
 1310 0058 7B1C     		adds	r3, r7, #1
 1311 005a F0D0     		beq	.L70
 651:Drivers/STM32G0xx_HAL_Driver/Src/stm32g0xx_hal_dma.c ****       {
 1312              		.loc 1 651 7 is_stmt 1 view .LVU428
 651:Drivers/STM32G0xx_HAL_Driver/Src/stm32g0xx_hal_dma.c ****       {
 1313              		.loc 1 651 12 is_stmt 0 view .LVU429
 1314 005c FFF7FEFF 		bl	HAL_GetTick
 1315              	.LVL79:
 651:Drivers/STM32G0xx_HAL_Driver/Src/stm32g0xx_hal_dma.c ****       {
 1316              		.loc 1 651 26 view .LVU430
 1317 0060 019B     		ldr	r3, [sp, #4]
 1318 0062 C01A     		subs	r0, r0, r3
 651:Drivers/STM32G0xx_HAL_Driver/Src/stm32g0xx_hal_dma.c ****       {
 1319              		.loc 1 651 9 view .LVU431
 1320 0064 B842     		cmp	r0, r7
 1321 0066 01D8     		bhi	.L71
 651:Drivers/STM32G0xx_HAL_Driver/Src/stm32g0xx_hal_dma.c ****       {
 1322              		.loc 1 651 50 discriminator 1 view .LVU432
 1323 0068 002F     		cmp	r7, #0
 1324 006a E8D1     		bne	.L70
 1325              	.L71:
 654:Drivers/STM32G0xx_HAL_Driver/Src/stm32g0xx_hal_dma.c **** 
 1326              		.loc 1 654 9 is_stmt 1 view .LVU433
 654:Drivers/STM32G0xx_HAL_Driver/Src/stm32g0xx_hal_dma.c **** 
 1327              		.loc 1 654 25 is_stmt 0 view .LVU434
 1328 006c 2023     		movs	r3, #32
 1329 006e F363     		str	r3, [r6, #60]
 657:Drivers/STM32G0xx_HAL_Driver/Src/stm32g0xx_hal_dma.c **** 
 1330              		.loc 1 657 9 is_stmt 1 view .LVU435
 657:Drivers/STM32G0xx_HAL_Driver/Src/stm32g0xx_hal_dma.c **** 
ARM GAS  /var/folders/cw/6cmm0b_n7yj10n1wx8hfx52r0000gn/T//ccoyqBc2.s 			page 49


 1331              		.loc 1 657 21 is_stmt 0 view .LVU436
 1332 0070 0533     		adds	r3, r3, #5
 1333 0072 0122     		movs	r2, #1
 1334 0074 F254     		strb	r2, [r6, r3]
 660:Drivers/STM32G0xx_HAL_Driver/Src/stm32g0xx_hal_dma.c **** 
 1335              		.loc 1 660 9 is_stmt 1 view .LVU437
 660:Drivers/STM32G0xx_HAL_Driver/Src/stm32g0xx_hal_dma.c **** 
 1336              		.loc 1 660 9 view .LVU438
 1337 0076 013B     		subs	r3, r3, #1
 1338 0078 0022     		movs	r2, #0
 1339 007a F254     		strb	r2, [r6, r3]
 660:Drivers/STM32G0xx_HAL_Driver/Src/stm32g0xx_hal_dma.c **** 
 1340              		.loc 1 660 9 view .LVU439
 662:Drivers/STM32G0xx_HAL_Driver/Src/stm32g0xx_hal_dma.c ****       }
 1341              		.loc 1 662 9 view .LVU440
 662:Drivers/STM32G0xx_HAL_Driver/Src/stm32g0xx_hal_dma.c ****       }
 1342              		.loc 1 662 16 is_stmt 0 view .LVU441
 1343 007c 0120     		movs	r0, #1
 1344 007e CEE7     		b	.L64
 1345              	.LVL80:
 1346              	.L78:
 609:Drivers/STM32G0xx_HAL_Driver/Src/stm32g0xx_hal_dma.c ****     return HAL_ERROR;
 1347              		.loc 1 609 5 is_stmt 1 view .LVU442
 609:Drivers/STM32G0xx_HAL_Driver/Src/stm32g0xx_hal_dma.c ****     return HAL_ERROR;
 1348              		.loc 1 609 21 is_stmt 0 view .LVU443
 1349 0080 8023     		movs	r3, #128
 1350 0082 5B00     		lsls	r3, r3, #1
 1351 0084 C363     		str	r3, [r0, #60]
 610:Drivers/STM32G0xx_HAL_Driver/Src/stm32g0xx_hal_dma.c ****   }
 1352              		.loc 1 610 5 is_stmt 1 view .LVU444
 610:Drivers/STM32G0xx_HAL_Driver/Src/stm32g0xx_hal_dma.c ****   }
 1353              		.loc 1 610 12 is_stmt 0 view .LVU445
 1354 0086 0120     		movs	r0, #1
 1355              	.LVL81:
 610:Drivers/STM32G0xx_HAL_Driver/Src/stm32g0xx_hal_dma.c ****   }
 1356              		.loc 1 610 12 view .LVU446
 1357 0088 C9E7     		b	.L64
 1358              	.LVL82:
 1359              	.L66:
 622:Drivers/STM32G0xx_HAL_Driver/Src/stm32g0xx_hal_dma.c ****   }
 1360              		.loc 1 622 5 is_stmt 1 view .LVU447
 622:Drivers/STM32G0xx_HAL_Driver/Src/stm32g0xx_hal_dma.c ****   }
 1361              		.loc 1 622 33 is_stmt 0 view .LVU448
 1362 008a 026C     		ldr	r2, [r0, #64]
 622:Drivers/STM32G0xx_HAL_Driver/Src/stm32g0xx_hal_dma.c ****   }
 1363              		.loc 1 622 49 view .LVU449
 1364 008c 1C23     		movs	r3, #28
 1365 008e 1340     		ands	r3, r2
 622:Drivers/STM32G0xx_HAL_Driver/Src/stm32g0xx_hal_dma.c ****   }
 1366              		.loc 1 622 10 view .LVU450
 1367 0090 0425     		movs	r5, #4
 1368 0092 9D40     		lsls	r5, r5, r3
 1369              	.LVL83:
 622:Drivers/STM32G0xx_HAL_Driver/Src/stm32g0xx_hal_dma.c ****   }
 1370              		.loc 1 622 10 view .LVU451
 1371 0094 D0E7     		b	.L67
 1372              	.LVL84:
ARM GAS  /var/folders/cw/6cmm0b_n7yj10n1wx8hfx52r0000gn/T//ccoyqBc2.s 			page 50


 1373              	.L80:
 635:Drivers/STM32G0xx_HAL_Driver/Src/stm32g0xx_hal_dma.c **** 
 1374              		.loc 1 635 7 is_stmt 1 view .LVU452
 1375 0096 2648     		ldr	r0, .L81
 1376 0098 4168     		ldr	r1, [r0, #4]
 1377 009a 0122     		movs	r2, #1
 1378 009c 1400     		movs	r4, r2
 1379 009e 9C40     		lsls	r4, r4, r3
 1380 00a0 2300     		movs	r3, r4
 1381 00a2 0B43     		orrs	r3, r1
 1382 00a4 4360     		str	r3, [r0, #4]
 1383              	.LVL85:
 638:Drivers/STM32G0xx_HAL_Driver/Src/stm32g0xx_hal_dma.c **** 
 1384              		.loc 1 638 7 view .LVU453
 638:Drivers/STM32G0xx_HAL_Driver/Src/stm32g0xx_hal_dma.c **** 
 1385              		.loc 1 638 23 is_stmt 0 view .LVU454
 1386 00a6 F263     		str	r2, [r6, #60]
 641:Drivers/STM32G0xx_HAL_Driver/Src/stm32g0xx_hal_dma.c **** 
 1387              		.loc 1 641 7 is_stmt 1 view .LVU455
 641:Drivers/STM32G0xx_HAL_Driver/Src/stm32g0xx_hal_dma.c **** 
 1388              		.loc 1 641 19 is_stmt 0 view .LVU456
 1389 00a8 2523     		movs	r3, #37
 1390 00aa F254     		strb	r2, [r6, r3]
 644:Drivers/STM32G0xx_HAL_Driver/Src/stm32g0xx_hal_dma.c **** 
 1391              		.loc 1 644 7 is_stmt 1 view .LVU457
 644:Drivers/STM32G0xx_HAL_Driver/Src/stm32g0xx_hal_dma.c **** 
 1392              		.loc 1 644 7 view .LVU458
 1393 00ac 013B     		subs	r3, r3, #1
 1394 00ae 0022     		movs	r2, #0
 1395 00b0 F254     		strb	r2, [r6, r3]
 644:Drivers/STM32G0xx_HAL_Driver/Src/stm32g0xx_hal_dma.c **** 
 1396              		.loc 1 644 7 view .LVU459
 646:Drivers/STM32G0xx_HAL_Driver/Src/stm32g0xx_hal_dma.c ****     }
 1397              		.loc 1 646 7 view .LVU460
 646:Drivers/STM32G0xx_HAL_Driver/Src/stm32g0xx_hal_dma.c ****     }
 1398              		.loc 1 646 14 is_stmt 0 view .LVU461
 1399 00b2 0120     		movs	r0, #1
 1400 00b4 B3E7     		b	.L64
 1401              	.LVL86:
 1402              	.L79:
 668:Drivers/STM32G0xx_HAL_Driver/Src/stm32g0xx_hal_dma.c ****   {
 1403              		.loc 1 668 3 is_stmt 1 view .LVU462
 668:Drivers/STM32G0xx_HAL_Driver/Src/stm32g0xx_hal_dma.c ****   {
 1404              		.loc 1 668 11 is_stmt 0 view .LVU463
 1405 00b6 336D     		ldr	r3, [r6, #80]
 668:Drivers/STM32G0xx_HAL_Driver/Src/stm32g0xx_hal_dma.c ****   {
 1406              		.loc 1 668 6 view .LVU464
 1407 00b8 002B     		cmp	r3, #0
 1408 00ba 11D0     		beq	.L73
 671:Drivers/STM32G0xx_HAL_Driver/Src/stm32g0xx_hal_dma.c ****     {
 1409              		.loc 1 671 5 is_stmt 1 view .LVU465
 671:Drivers/STM32G0xx_HAL_Driver/Src/stm32g0xx_hal_dma.c ****     {
 1410              		.loc 1 671 14 is_stmt 0 view .LVU466
 1411 00bc 726D     		ldr	r2, [r6, #84]
 671:Drivers/STM32G0xx_HAL_Driver/Src/stm32g0xx_hal_dma.c ****     {
 1412              		.loc 1 671 38 view .LVU467
 1413 00be 1268     		ldr	r2, [r2]
ARM GAS  /var/folders/cw/6cmm0b_n7yj10n1wx8hfx52r0000gn/T//ccoyqBc2.s 			page 51


 671:Drivers/STM32G0xx_HAL_Driver/Src/stm32g0xx_hal_dma.c ****     {
 1414              		.loc 1 671 51 view .LVU468
 1415 00c0 B16D     		ldr	r1, [r6, #88]
 671:Drivers/STM32G0xx_HAL_Driver/Src/stm32g0xx_hal_dma.c ****     {
 1416              		.loc 1 671 8 view .LVU469
 1417 00c2 1142     		tst	r1, r2
 1418 00c4 0CD0     		beq	.L73
 674:Drivers/STM32G0xx_HAL_Driver/Src/stm32g0xx_hal_dma.c **** 
 1419              		.loc 1 674 7 is_stmt 1 view .LVU470
 674:Drivers/STM32G0xx_HAL_Driver/Src/stm32g0xx_hal_dma.c **** 
 1420              		.loc 1 674 29 is_stmt 0 view .LVU471
 1421 00c6 1968     		ldr	r1, [r3]
 674:Drivers/STM32G0xx_HAL_Driver/Src/stm32g0xx_hal_dma.c **** 
 1422              		.loc 1 674 36 view .LVU472
 1423 00c8 8022     		movs	r2, #128
 1424 00ca 5200     		lsls	r2, r2, #1
 1425 00cc 0A43     		orrs	r2, r1
 1426 00ce 1A60     		str	r2, [r3]
 677:Drivers/STM32G0xx_HAL_Driver/Src/stm32g0xx_hal_dma.c **** 
 1427              		.loc 1 677 7 is_stmt 1 view .LVU473
 677:Drivers/STM32G0xx_HAL_Driver/Src/stm32g0xx_hal_dma.c **** 
 1428              		.loc 1 677 11 is_stmt 0 view .LVU474
 1429 00d0 736D     		ldr	r3, [r6, #84]
 677:Drivers/STM32G0xx_HAL_Driver/Src/stm32g0xx_hal_dma.c **** 
 1430              		.loc 1 677 49 view .LVU475
 1431 00d2 B26D     		ldr	r2, [r6, #88]
 677:Drivers/STM32G0xx_HAL_Driver/Src/stm32g0xx_hal_dma.c **** 
 1432              		.loc 1 677 43 view .LVU476
 1433 00d4 5A60     		str	r2, [r3, #4]
 680:Drivers/STM32G0xx_HAL_Driver/Src/stm32g0xx_hal_dma.c ****     }
 1434              		.loc 1 680 7 is_stmt 1 view .LVU477
 680:Drivers/STM32G0xx_HAL_Driver/Src/stm32g0xx_hal_dma.c ****     }
 1435              		.loc 1 680 11 is_stmt 0 view .LVU478
 1436 00d6 F26B     		ldr	r2, [r6, #60]
 680:Drivers/STM32G0xx_HAL_Driver/Src/stm32g0xx_hal_dma.c ****     }
 1437              		.loc 1 680 23 view .LVU479
 1438 00d8 8023     		movs	r3, #128
 1439 00da DB00     		lsls	r3, r3, #3
 1440 00dc 1343     		orrs	r3, r2
 1441 00de F363     		str	r3, [r6, #60]
 1442              	.L73:
 685:Drivers/STM32G0xx_HAL_Driver/Src/stm32g0xx_hal_dma.c ****   {
 1443              		.loc 1 685 3 is_stmt 1 view .LVU480
 685:Drivers/STM32G0xx_HAL_Driver/Src/stm32g0xx_hal_dma.c ****   {
 1444              		.loc 1 685 12 is_stmt 0 view .LVU481
 1445 00e0 B36C     		ldr	r3, [r6, #72]
 685:Drivers/STM32G0xx_HAL_Driver/Src/stm32g0xx_hal_dma.c ****   {
 1446              		.loc 1 685 33 view .LVU482
 1447 00e2 1968     		ldr	r1, [r3]
 685:Drivers/STM32G0xx_HAL_Driver/Src/stm32g0xx_hal_dma.c ****   {
 1448              		.loc 1 685 45 view .LVU483
 1449 00e4 F26C     		ldr	r2, [r6, #76]
 685:Drivers/STM32G0xx_HAL_Driver/Src/stm32g0xx_hal_dma.c ****   {
 1450              		.loc 1 685 6 view .LVU484
 1451 00e6 0A42     		tst	r2, r1
 1452 00e8 05D0     		beq	.L74
 688:Drivers/STM32G0xx_HAL_Driver/Src/stm32g0xx_hal_dma.c **** 
ARM GAS  /var/folders/cw/6cmm0b_n7yj10n1wx8hfx52r0000gn/T//ccoyqBc2.s 			page 52


 1453              		.loc 1 688 5 is_stmt 1 view .LVU485
 688:Drivers/STM32G0xx_HAL_Driver/Src/stm32g0xx_hal_dma.c **** 
 1454              		.loc 1 688 36 is_stmt 0 view .LVU486
 1455 00ea 5A60     		str	r2, [r3, #4]
 691:Drivers/STM32G0xx_HAL_Driver/Src/stm32g0xx_hal_dma.c ****   }
 1456              		.loc 1 691 5 is_stmt 1 view .LVU487
 691:Drivers/STM32G0xx_HAL_Driver/Src/stm32g0xx_hal_dma.c ****   }
 1457              		.loc 1 691 9 is_stmt 0 view .LVU488
 1458 00ec F26B     		ldr	r2, [r6, #60]
 691:Drivers/STM32G0xx_HAL_Driver/Src/stm32g0xx_hal_dma.c ****   }
 1459              		.loc 1 691 21 view .LVU489
 1460 00ee 8023     		movs	r3, #128
 1461 00f0 9B00     		lsls	r3, r3, #2
 1462 00f2 1343     		orrs	r3, r2
 1463 00f4 F363     		str	r3, [r6, #60]
 1464              	.L74:
 694:Drivers/STM32G0xx_HAL_Driver/Src/stm32g0xx_hal_dma.c ****   {
 1465              		.loc 1 694 3 is_stmt 1 view .LVU490
 694:Drivers/STM32G0xx_HAL_Driver/Src/stm32g0xx_hal_dma.c ****   {
 1466              		.loc 1 694 6 is_stmt 0 view .LVU491
 1467 00f6 002C     		cmp	r4, #0
 1468 00f8 10D1     		bne	.L75
 697:Drivers/STM32G0xx_HAL_Driver/Src/stm32g0xx_hal_dma.c **** 
 1469              		.loc 1 697 5 is_stmt 1 view .LVU492
 1470 00fa 0D48     		ldr	r0, .L81
 1471 00fc 4368     		ldr	r3, [r0, #4]
 1472 00fe 326C     		ldr	r2, [r6, #64]
 1473 0100 1C21     		movs	r1, #28
 1474 0102 1140     		ands	r1, r2
 1475 0104 0222     		movs	r2, #2
 1476 0106 8A40     		lsls	r2, r2, r1
 1477 0108 1343     		orrs	r3, r2
 1478 010a 4360     		str	r3, [r0, #4]
 1479              	.LVL87:
 701:Drivers/STM32G0xx_HAL_Driver/Src/stm32g0xx_hal_dma.c ****   }
 1480              		.loc 1 701 5 view .LVU493
 701:Drivers/STM32G0xx_HAL_Driver/Src/stm32g0xx_hal_dma.c ****   }
 1481              		.loc 1 701 17 is_stmt 0 view .LVU494
 1482 010c 2523     		movs	r3, #37
 1483 010e 0122     		movs	r2, #1
 1484 0110 F254     		strb	r2, [r6, r3]
 1485              	.L76:
 710:Drivers/STM32G0xx_HAL_Driver/Src/stm32g0xx_hal_dma.c **** 
 1486              		.loc 1 710 3 is_stmt 1 view .LVU495
 710:Drivers/STM32G0xx_HAL_Driver/Src/stm32g0xx_hal_dma.c **** 
 1487              		.loc 1 710 3 view .LVU496
 1488 0112 2423     		movs	r3, #36
 1489 0114 0022     		movs	r2, #0
 1490 0116 F254     		strb	r2, [r6, r3]
 710:Drivers/STM32G0xx_HAL_Driver/Src/stm32g0xx_hal_dma.c **** 
 1491              		.loc 1 710 3 view .LVU497
 712:Drivers/STM32G0xx_HAL_Driver/Src/stm32g0xx_hal_dma.c **** }
 1492              		.loc 1 712 3 view .LVU498
 712:Drivers/STM32G0xx_HAL_Driver/Src/stm32g0xx_hal_dma.c **** }
 1493              		.loc 1 712 10 is_stmt 0 view .LVU499
 1494 0118 0020     		movs	r0, #0
 1495 011a 80E7     		b	.L64
ARM GAS  /var/folders/cw/6cmm0b_n7yj10n1wx8hfx52r0000gn/T//ccoyqBc2.s 			page 53


 1496              	.LVL88:
 1497              	.L75:
 706:Drivers/STM32G0xx_HAL_Driver/Src/stm32g0xx_hal_dma.c ****   }
 1498              		.loc 1 706 5 is_stmt 1 view .LVU500
 1499 011c 0448     		ldr	r0, .L81
 1500 011e 4368     		ldr	r3, [r0, #4]
 1501 0120 326C     		ldr	r2, [r6, #64]
 1502 0122 1C21     		movs	r1, #28
 1503 0124 1140     		ands	r1, r2
 1504 0126 0422     		movs	r2, #4
 1505 0128 8A40     		lsls	r2, r2, r1
 1506 012a 1343     		orrs	r3, r2
 1507 012c 4360     		str	r3, [r0, #4]
 1508              	.LVL89:
 706:Drivers/STM32G0xx_HAL_Driver/Src/stm32g0xx_hal_dma.c ****   }
 1509              		.loc 1 706 5 is_stmt 0 view .LVU501
 1510 012e F0E7     		b	.L76
 1511              	.L82:
 1512              		.align	2
 1513              	.L81:
 1514 0130 00000240 		.word	1073872896
 1515              		.cfi_endproc
 1516              	.LFE164:
 1518              		.section	.text.HAL_DMA_IRQHandler,"ax",%progbits
 1519              		.align	1
 1520              		.global	HAL_DMA_IRQHandler
 1521              		.syntax unified
 1522              		.code	16
 1523              		.thumb_func
 1525              	HAL_DMA_IRQHandler:
 1526              	.LVL90:
 1527              	.LFB165:
 722:Drivers/STM32G0xx_HAL_Driver/Src/stm32g0xx_hal_dma.c ****   uint32_t flag_it = DMA1->ISR;
 1528              		.loc 1 722 1 is_stmt 1 view -0
 1529              		.cfi_startproc
 1530              		@ args = 0, pretend = 0, frame = 0
 1531              		@ frame_needed = 0, uses_anonymous_args = 0
 722:Drivers/STM32G0xx_HAL_Driver/Src/stm32g0xx_hal_dma.c ****   uint32_t flag_it = DMA1->ISR;
 1532              		.loc 1 722 1 is_stmt 0 view .LVU503
 1533 0000 70B5     		push	{r4, r5, r6, lr}
 1534              	.LCFI10:
 1535              		.cfi_def_cfa_offset 16
 1536              		.cfi_offset 4, -16
 1537              		.cfi_offset 5, -12
 1538              		.cfi_offset 6, -8
 1539              		.cfi_offset 14, -4
 723:Drivers/STM32G0xx_HAL_Driver/Src/stm32g0xx_hal_dma.c ****   uint32_t source_it = hdma->Instance->CCR;
 1540              		.loc 1 723 3 is_stmt 1 view .LVU504
 723:Drivers/STM32G0xx_HAL_Driver/Src/stm32g0xx_hal_dma.c ****   uint32_t source_it = hdma->Instance->CCR;
 1541              		.loc 1 723 12 is_stmt 0 view .LVU505
 1542 0002 314B     		ldr	r3, .L94
 1543 0004 1968     		ldr	r1, [r3]
 1544              	.LVL91:
 724:Drivers/STM32G0xx_HAL_Driver/Src/stm32g0xx_hal_dma.c **** 
 1545              		.loc 1 724 3 is_stmt 1 view .LVU506
 724:Drivers/STM32G0xx_HAL_Driver/Src/stm32g0xx_hal_dma.c **** 
 1546              		.loc 1 724 28 is_stmt 0 view .LVU507
ARM GAS  /var/folders/cw/6cmm0b_n7yj10n1wx8hfx52r0000gn/T//ccoyqBc2.s 			page 54


 1547 0006 0468     		ldr	r4, [r0]
 724:Drivers/STM32G0xx_HAL_Driver/Src/stm32g0xx_hal_dma.c **** 
 1548              		.loc 1 724 12 view .LVU508
 1549 0008 2568     		ldr	r5, [r4]
 1550              	.LVL92:
 727:Drivers/STM32G0xx_HAL_Driver/Src/stm32g0xx_hal_dma.c ****   {
 1551              		.loc 1 727 3 is_stmt 1 view .LVU509
 727:Drivers/STM32G0xx_HAL_Driver/Src/stm32g0xx_hal_dma.c ****   {
 1552              		.loc 1 727 41 is_stmt 0 view .LVU510
 1553 000a 026C     		ldr	r2, [r0, #64]
 727:Drivers/STM32G0xx_HAL_Driver/Src/stm32g0xx_hal_dma.c ****   {
 1554              		.loc 1 727 56 view .LVU511
 1555 000c 1C23     		movs	r3, #28
 1556 000e 1340     		ands	r3, r2
 727:Drivers/STM32G0xx_HAL_Driver/Src/stm32g0xx_hal_dma.c ****   {
 1557              		.loc 1 727 33 view .LVU512
 1558 0010 0422     		movs	r2, #4
 1559 0012 9A40     		lsls	r2, r2, r3
 727:Drivers/STM32G0xx_HAL_Driver/Src/stm32g0xx_hal_dma.c ****   {
 1560              		.loc 1 727 6 view .LVU513
 1561 0014 1142     		tst	r1, r2
 1562 0016 16D0     		beq	.L84
 727:Drivers/STM32G0xx_HAL_Driver/Src/stm32g0xx_hal_dma.c ****   {
 1563              		.loc 1 727 74 discriminator 1 view .LVU514
 1564 0018 6A07     		lsls	r2, r5, #29
 1565 001a 14D5     		bpl	.L84
 730:Drivers/STM32G0xx_HAL_Driver/Src/stm32g0xx_hal_dma.c ****     {
 1566              		.loc 1 730 5 is_stmt 1 view .LVU515
 730:Drivers/STM32G0xx_HAL_Driver/Src/stm32g0xx_hal_dma.c ****     {
 1567              		.loc 1 730 24 is_stmt 0 view .LVU516
 1568 001c 2368     		ldr	r3, [r4]
 730:Drivers/STM32G0xx_HAL_Driver/Src/stm32g0xx_hal_dma.c ****     {
 1569              		.loc 1 730 8 view .LVU517
 1570 001e 9B06     		lsls	r3, r3, #26
 1571 0020 03D4     		bmi	.L85
 733:Drivers/STM32G0xx_HAL_Driver/Src/stm32g0xx_hal_dma.c ****     }
 1572              		.loc 1 733 7 is_stmt 1 view .LVU518
 1573 0022 2368     		ldr	r3, [r4]
 1574 0024 0422     		movs	r2, #4
 1575 0026 9343     		bics	r3, r2
 1576 0028 2360     		str	r3, [r4]
 1577              	.L85:
 736:Drivers/STM32G0xx_HAL_Driver/Src/stm32g0xx_hal_dma.c **** 
 1578              		.loc 1 736 5 view .LVU519
 1579 002a 274C     		ldr	r4, .L94
 1580 002c 6368     		ldr	r3, [r4, #4]
 1581 002e 026C     		ldr	r2, [r0, #64]
 1582 0030 1C21     		movs	r1, #28
 1583              	.LVL93:
 736:Drivers/STM32G0xx_HAL_Driver/Src/stm32g0xx_hal_dma.c **** 
 1584              		.loc 1 736 5 is_stmt 0 view .LVU520
 1585 0032 1140     		ands	r1, r2
 1586 0034 0422     		movs	r2, #4
 1587 0036 8A40     		lsls	r2, r2, r1
 1588 0038 1343     		orrs	r3, r2
 1589 003a 6360     		str	r3, [r4, #4]
 741:Drivers/STM32G0xx_HAL_Driver/Src/stm32g0xx_hal_dma.c ****     {
ARM GAS  /var/folders/cw/6cmm0b_n7yj10n1wx8hfx52r0000gn/T//ccoyqBc2.s 			page 55


 1590              		.loc 1 741 5 is_stmt 1 view .LVU521
 741:Drivers/STM32G0xx_HAL_Driver/Src/stm32g0xx_hal_dma.c ****     {
 1591              		.loc 1 741 13 is_stmt 0 view .LVU522
 1592 003c 036B     		ldr	r3, [r0, #48]
 741:Drivers/STM32G0xx_HAL_Driver/Src/stm32g0xx_hal_dma.c ****     {
 1593              		.loc 1 741 8 view .LVU523
 1594 003e 002B     		cmp	r3, #0
 1595 0040 00D0     		beq	.L83
 744:Drivers/STM32G0xx_HAL_Driver/Src/stm32g0xx_hal_dma.c ****     }
 1596              		.loc 1 744 7 is_stmt 1 view .LVU524
 1597 0042 9847     		blx	r3
 1598              	.LVL94:
 1599              	.L83:
 803:Drivers/STM32G0xx_HAL_Driver/Src/stm32g0xx_hal_dma.c **** 
 1600              		.loc 1 803 1 is_stmt 0 view .LVU525
 1601              		@ sp needed
 1602 0044 70BD     		pop	{r4, r5, r6, pc}
 1603              	.LVL95:
 1604              	.L84:
 749:Drivers/STM32G0xx_HAL_Driver/Src/stm32g0xx_hal_dma.c ****   {
 1605              		.loc 1 749 8 is_stmt 1 view .LVU526
 749:Drivers/STM32G0xx_HAL_Driver/Src/stm32g0xx_hal_dma.c ****   {
 1606              		.loc 1 749 44 is_stmt 0 view .LVU527
 1607 0046 0222     		movs	r2, #2
 1608 0048 9A40     		lsls	r2, r2, r3
 749:Drivers/STM32G0xx_HAL_Driver/Src/stm32g0xx_hal_dma.c ****   {
 1609              		.loc 1 749 11 view .LVU528
 1610 004a 1142     		tst	r1, r2
 1611 004c 1CD0     		beq	.L87
 749:Drivers/STM32G0xx_HAL_Driver/Src/stm32g0xx_hal_dma.c ****   {
 1612              		.loc 1 749 79 discriminator 1 view .LVU529
 1613 004e AA07     		lsls	r2, r5, #30
 1614 0050 1AD5     		bpl	.L87
 751:Drivers/STM32G0xx_HAL_Driver/Src/stm32g0xx_hal_dma.c ****     {
 1615              		.loc 1 751 5 is_stmt 1 view .LVU530
 751:Drivers/STM32G0xx_HAL_Driver/Src/stm32g0xx_hal_dma.c ****     {
 1616              		.loc 1 751 24 is_stmt 0 view .LVU531
 1617 0052 2368     		ldr	r3, [r4]
 751:Drivers/STM32G0xx_HAL_Driver/Src/stm32g0xx_hal_dma.c ****     {
 1618              		.loc 1 751 8 view .LVU532
 1619 0054 9B06     		lsls	r3, r3, #26
 1620 0056 06D4     		bmi	.L88
 754:Drivers/STM32G0xx_HAL_Driver/Src/stm32g0xx_hal_dma.c **** 
 1621              		.loc 1 754 7 is_stmt 1 view .LVU533
 1622 0058 2368     		ldr	r3, [r4]
 1623 005a 0A22     		movs	r2, #10
 1624 005c 9343     		bics	r3, r2
 1625 005e 2360     		str	r3, [r4]
 757:Drivers/STM32G0xx_HAL_Driver/Src/stm32g0xx_hal_dma.c ****     }
 1626              		.loc 1 757 7 view .LVU534
 757:Drivers/STM32G0xx_HAL_Driver/Src/stm32g0xx_hal_dma.c ****     }
 1627              		.loc 1 757 19 is_stmt 0 view .LVU535
 1628 0060 2523     		movs	r3, #37
 1629 0062 093A     		subs	r2, r2, #9
 1630 0064 C254     		strb	r2, [r0, r3]
 1631              	.L88:
 760:Drivers/STM32G0xx_HAL_Driver/Src/stm32g0xx_hal_dma.c **** 
ARM GAS  /var/folders/cw/6cmm0b_n7yj10n1wx8hfx52r0000gn/T//ccoyqBc2.s 			page 56


 1632              		.loc 1 760 5 is_stmt 1 view .LVU536
 1633 0066 184C     		ldr	r4, .L94
 1634 0068 6368     		ldr	r3, [r4, #4]
 1635 006a 026C     		ldr	r2, [r0, #64]
 1636 006c 1C21     		movs	r1, #28
 1637              	.LVL96:
 760:Drivers/STM32G0xx_HAL_Driver/Src/stm32g0xx_hal_dma.c **** 
 1638              		.loc 1 760 5 is_stmt 0 view .LVU537
 1639 006e 1140     		ands	r1, r2
 1640 0070 0222     		movs	r2, #2
 1641 0072 8A40     		lsls	r2, r2, r1
 1642 0074 1343     		orrs	r3, r2
 1643 0076 6360     		str	r3, [r4, #4]
 763:Drivers/STM32G0xx_HAL_Driver/Src/stm32g0xx_hal_dma.c **** 
 1644              		.loc 1 763 5 is_stmt 1 view .LVU538
 763:Drivers/STM32G0xx_HAL_Driver/Src/stm32g0xx_hal_dma.c **** 
 1645              		.loc 1 763 5 view .LVU539
 1646 0078 2423     		movs	r3, #36
 1647 007a 0022     		movs	r2, #0
 1648 007c C254     		strb	r2, [r0, r3]
 763:Drivers/STM32G0xx_HAL_Driver/Src/stm32g0xx_hal_dma.c **** 
 1649              		.loc 1 763 5 view .LVU540
 765:Drivers/STM32G0xx_HAL_Driver/Src/stm32g0xx_hal_dma.c ****     {
 1650              		.loc 1 765 5 view .LVU541
 765:Drivers/STM32G0xx_HAL_Driver/Src/stm32g0xx_hal_dma.c ****     {
 1651              		.loc 1 765 13 is_stmt 0 view .LVU542
 1652 007e C36A     		ldr	r3, [r0, #44]
 765:Drivers/STM32G0xx_HAL_Driver/Src/stm32g0xx_hal_dma.c ****     {
 1653              		.loc 1 765 8 view .LVU543
 1654 0080 002B     		cmp	r3, #0
 1655 0082 DFD0     		beq	.L83
 768:Drivers/STM32G0xx_HAL_Driver/Src/stm32g0xx_hal_dma.c ****     }
 1656              		.loc 1 768 7 is_stmt 1 view .LVU544
 1657 0084 9847     		blx	r3
 1658              	.LVL97:
 768:Drivers/STM32G0xx_HAL_Driver/Src/stm32g0xx_hal_dma.c ****     }
 1659              		.loc 1 768 7 is_stmt 0 view .LVU545
 1660 0086 DDE7     		b	.L83
 1661              	.LVL98:
 1662              	.L87:
 773:Drivers/STM32G0xx_HAL_Driver/Src/stm32g0xx_hal_dma.c ****   {
 1663              		.loc 1 773 8 is_stmt 1 view .LVU546
 773:Drivers/STM32G0xx_HAL_Driver/Src/stm32g0xx_hal_dma.c ****   {
 1664              		.loc 1 773 38 is_stmt 0 view .LVU547
 1665 0088 0822     		movs	r2, #8
 1666 008a 9A40     		lsls	r2, r2, r3
 773:Drivers/STM32G0xx_HAL_Driver/Src/stm32g0xx_hal_dma.c ****   {
 1667              		.loc 1 773 11 view .LVU548
 1668 008c 1142     		tst	r1, r2
 1669 008e D9D0     		beq	.L83
 773:Drivers/STM32G0xx_HAL_Driver/Src/stm32g0xx_hal_dma.c ****   {
 1670              		.loc 1 773 78 discriminator 1 view .LVU549
 1671 0090 2D07     		lsls	r5, r5, #28
 1672 0092 D7D5     		bpl	.L83
 1673              	.LVL99:
 778:Drivers/STM32G0xx_HAL_Driver/Src/stm32g0xx_hal_dma.c **** 
 1674              		.loc 1 778 5 is_stmt 1 view .LVU550
ARM GAS  /var/folders/cw/6cmm0b_n7yj10n1wx8hfx52r0000gn/T//ccoyqBc2.s 			page 57


 1675 0094 2368     		ldr	r3, [r4]
 1676 0096 0E22     		movs	r2, #14
 1677 0098 9343     		bics	r3, r2
 1678 009a 2360     		str	r3, [r4]
 781:Drivers/STM32G0xx_HAL_Driver/Src/stm32g0xx_hal_dma.c **** 
 1679              		.loc 1 781 5 view .LVU551
 1680 009c 0A4C     		ldr	r4, .L94
 1681 009e 6268     		ldr	r2, [r4, #4]
 1682 00a0 036C     		ldr	r3, [r0, #64]
 1683 00a2 1C21     		movs	r1, #28
 1684              	.LVL100:
 781:Drivers/STM32G0xx_HAL_Driver/Src/stm32g0xx_hal_dma.c **** 
 1685              		.loc 1 781 5 is_stmt 0 view .LVU552
 1686 00a4 1940     		ands	r1, r3
 1687 00a6 0123     		movs	r3, #1
 1688 00a8 1D00     		movs	r5, r3
 1689 00aa 8D40     		lsls	r5, r5, r1
 1690 00ac 2A43     		orrs	r2, r5
 1691 00ae 6260     		str	r2, [r4, #4]
 784:Drivers/STM32G0xx_HAL_Driver/Src/stm32g0xx_hal_dma.c **** 
 1692              		.loc 1 784 5 is_stmt 1 view .LVU553
 784:Drivers/STM32G0xx_HAL_Driver/Src/stm32g0xx_hal_dma.c **** 
 1693              		.loc 1 784 21 is_stmt 0 view .LVU554
 1694 00b0 C363     		str	r3, [r0, #60]
 787:Drivers/STM32G0xx_HAL_Driver/Src/stm32g0xx_hal_dma.c **** 
 1695              		.loc 1 787 5 is_stmt 1 view .LVU555
 787:Drivers/STM32G0xx_HAL_Driver/Src/stm32g0xx_hal_dma.c **** 
 1696              		.loc 1 787 17 is_stmt 0 view .LVU556
 1697 00b2 2522     		movs	r2, #37
 1698 00b4 8354     		strb	r3, [r0, r2]
 790:Drivers/STM32G0xx_HAL_Driver/Src/stm32g0xx_hal_dma.c **** 
 1699              		.loc 1 790 5 is_stmt 1 view .LVU557
 790:Drivers/STM32G0xx_HAL_Driver/Src/stm32g0xx_hal_dma.c **** 
 1700              		.loc 1 790 5 view .LVU558
 1701 00b6 2333     		adds	r3, r3, #35
 1702 00b8 0022     		movs	r2, #0
 1703 00ba C254     		strb	r2, [r0, r3]
 790:Drivers/STM32G0xx_HAL_Driver/Src/stm32g0xx_hal_dma.c **** 
 1704              		.loc 1 790 5 view .LVU559
 792:Drivers/STM32G0xx_HAL_Driver/Src/stm32g0xx_hal_dma.c ****     {
 1705              		.loc 1 792 5 view .LVU560
 792:Drivers/STM32G0xx_HAL_Driver/Src/stm32g0xx_hal_dma.c ****     {
 1706              		.loc 1 792 13 is_stmt 0 view .LVU561
 1707 00bc 436B     		ldr	r3, [r0, #52]
 792:Drivers/STM32G0xx_HAL_Driver/Src/stm32g0xx_hal_dma.c ****     {
 1708              		.loc 1 792 8 view .LVU562
 1709 00be 002B     		cmp	r3, #0
 1710 00c0 C0D0     		beq	.L83
 795:Drivers/STM32G0xx_HAL_Driver/Src/stm32g0xx_hal_dma.c ****     }
 1711              		.loc 1 795 7 is_stmt 1 view .LVU563
 1712 00c2 9847     		blx	r3
 1713              	.LVL101:
 801:Drivers/STM32G0xx_HAL_Driver/Src/stm32g0xx_hal_dma.c ****   return;
 1714              		.loc 1 801 3 view .LVU564
 802:Drivers/STM32G0xx_HAL_Driver/Src/stm32g0xx_hal_dma.c **** }
 1715              		.loc 1 802 3 view .LVU565
 1716 00c4 BEE7     		b	.L83
ARM GAS  /var/folders/cw/6cmm0b_n7yj10n1wx8hfx52r0000gn/T//ccoyqBc2.s 			page 58


 1717              	.L95:
 1718 00c6 C046     		.align	2
 1719              	.L94:
 1720 00c8 00000240 		.word	1073872896
 1721              		.cfi_endproc
 1722              	.LFE165:
 1724              		.section	.text.HAL_DMA_RegisterCallback,"ax",%progbits
 1725              		.align	1
 1726              		.global	HAL_DMA_RegisterCallback
 1727              		.syntax unified
 1728              		.code	16
 1729              		.thumb_func
 1731              	HAL_DMA_RegisterCallback:
 1732              	.LVL102:
 1733              	.LFB166:
 816:Drivers/STM32G0xx_HAL_Driver/Src/stm32g0xx_hal_dma.c ****   HAL_StatusTypeDef status = HAL_OK;
 1734              		.loc 1 816 1 view -0
 1735              		.cfi_startproc
 1736              		@ args = 0, pretend = 0, frame = 0
 1737              		@ frame_needed = 0, uses_anonymous_args = 0
 816:Drivers/STM32G0xx_HAL_Driver/Src/stm32g0xx_hal_dma.c ****   HAL_StatusTypeDef status = HAL_OK;
 1738              		.loc 1 816 1 is_stmt 0 view .LVU567
 1739 0000 10B5     		push	{r4, lr}
 1740              	.LCFI11:
 1741              		.cfi_def_cfa_offset 8
 1742              		.cfi_offset 4, -8
 1743              		.cfi_offset 14, -4
 1744 0002 0300     		movs	r3, r0
 817:Drivers/STM32G0xx_HAL_Driver/Src/stm32g0xx_hal_dma.c **** 
 1745              		.loc 1 817 3 is_stmt 1 view .LVU568
 1746              	.LVL103:
 820:Drivers/STM32G0xx_HAL_Driver/Src/stm32g0xx_hal_dma.c **** 
 1747              		.loc 1 820 3 view .LVU569
 820:Drivers/STM32G0xx_HAL_Driver/Src/stm32g0xx_hal_dma.c **** 
 1748              		.loc 1 820 3 view .LVU570
 1749 0004 2420     		movs	r0, #36
 1750              	.LVL104:
 820:Drivers/STM32G0xx_HAL_Driver/Src/stm32g0xx_hal_dma.c **** 
 1751              		.loc 1 820 3 is_stmt 0 view .LVU571
 1752 0006 185C     		ldrb	r0, [r3, r0]
 1753 0008 0128     		cmp	r0, #1
 1754 000a 21D0     		beq	.L104
 820:Drivers/STM32G0xx_HAL_Driver/Src/stm32g0xx_hal_dma.c **** 
 1755              		.loc 1 820 3 is_stmt 1 discriminator 2 view .LVU572
 1756 000c 2420     		movs	r0, #36
 1757 000e 0124     		movs	r4, #1
 1758 0010 1C54     		strb	r4, [r3, r0]
 820:Drivers/STM32G0xx_HAL_Driver/Src/stm32g0xx_hal_dma.c **** 
 1759              		.loc 1 820 3 discriminator 2 view .LVU573
 822:Drivers/STM32G0xx_HAL_Driver/Src/stm32g0xx_hal_dma.c ****   {
 1760              		.loc 1 822 3 discriminator 2 view .LVU574
 822:Drivers/STM32G0xx_HAL_Driver/Src/stm32g0xx_hal_dma.c ****   {
 1761              		.loc 1 822 34 is_stmt 0 discriminator 2 view .LVU575
 1762 0012 0130     		adds	r0, r0, #1
 1763 0014 1C5C     		ldrb	r4, [r3, r0]
 1764 0016 E0B2     		uxtb	r0, r4
 822:Drivers/STM32G0xx_HAL_Driver/Src/stm32g0xx_hal_dma.c ****   {
ARM GAS  /var/folders/cw/6cmm0b_n7yj10n1wx8hfx52r0000gn/T//ccoyqBc2.s 			page 59


 1765              		.loc 1 822 6 discriminator 2 view .LVU576
 1766 0018 012C     		cmp	r4, #1
 1767 001a 04D0     		beq	.L106
 849:Drivers/STM32G0xx_HAL_Driver/Src/stm32g0xx_hal_dma.c ****   }
 1768              		.loc 1 849 12 view .LVU577
 1769 001c 0120     		movs	r0, #1
 1770              	.L98:
 1771              	.LVL105:
 853:Drivers/STM32G0xx_HAL_Driver/Src/stm32g0xx_hal_dma.c **** 
 1772              		.loc 1 853 3 is_stmt 1 view .LVU578
 853:Drivers/STM32G0xx_HAL_Driver/Src/stm32g0xx_hal_dma.c **** 
 1773              		.loc 1 853 3 view .LVU579
 1774 001e 2422     		movs	r2, #36
 1775              	.LVL106:
 853:Drivers/STM32G0xx_HAL_Driver/Src/stm32g0xx_hal_dma.c **** 
 1776              		.loc 1 853 3 is_stmt 0 view .LVU580
 1777 0020 0021     		movs	r1, #0
 1778              	.LVL107:
 853:Drivers/STM32G0xx_HAL_Driver/Src/stm32g0xx_hal_dma.c **** 
 1779              		.loc 1 853 3 view .LVU581
 1780 0022 9954     		strb	r1, [r3, r2]
 853:Drivers/STM32G0xx_HAL_Driver/Src/stm32g0xx_hal_dma.c **** 
 1781              		.loc 1 853 3 is_stmt 1 view .LVU582
 855:Drivers/STM32G0xx_HAL_Driver/Src/stm32g0xx_hal_dma.c **** }
 1782              		.loc 1 855 3 view .LVU583
 1783              	.LVL108:
 1784              	.L97:
 856:Drivers/STM32G0xx_HAL_Driver/Src/stm32g0xx_hal_dma.c **** 
 1785              		.loc 1 856 1 is_stmt 0 view .LVU584
 1786              		@ sp needed
 1787 0024 10BD     		pop	{r4, pc}
 1788              	.LVL109:
 1789              	.L106:
 824:Drivers/STM32G0xx_HAL_Driver/Src/stm32g0xx_hal_dma.c ****     {
 1790              		.loc 1 824 5 is_stmt 1 view .LVU585
 1791 0026 0229     		cmp	r1, #2
 1792 0028 0FD0     		beq	.L99
 1793 002a 06D8     		bhi	.L100
 1794 002c 0029     		cmp	r1, #0
 1795 002e 09D0     		beq	.L101
 1796 0030 0129     		cmp	r1, #1
 1797 0032 F4D1     		bne	.L98
 831:Drivers/STM32G0xx_HAL_Driver/Src/stm32g0xx_hal_dma.c ****         break;
 1798              		.loc 1 831 9 view .LVU586
 831:Drivers/STM32G0xx_HAL_Driver/Src/stm32g0xx_hal_dma.c ****         break;
 1799              		.loc 1 831 36 is_stmt 0 view .LVU587
 1800 0034 1A63     		str	r2, [r3, #48]
 832:Drivers/STM32G0xx_HAL_Driver/Src/stm32g0xx_hal_dma.c **** 
 1801              		.loc 1 832 9 is_stmt 1 view .LVU588
 817:Drivers/STM32G0xx_HAL_Driver/Src/stm32g0xx_hal_dma.c **** 
 1802              		.loc 1 817 21 is_stmt 0 view .LVU589
 1803 0036 0020     		movs	r0, #0
 832:Drivers/STM32G0xx_HAL_Driver/Src/stm32g0xx_hal_dma.c **** 
 1804              		.loc 1 832 9 view .LVU590
 1805 0038 F1E7     		b	.L98
 1806              	.L100:
 824:Drivers/STM32G0xx_HAL_Driver/Src/stm32g0xx_hal_dma.c ****     {
ARM GAS  /var/folders/cw/6cmm0b_n7yj10n1wx8hfx52r0000gn/T//ccoyqBc2.s 			page 60


 1807              		.loc 1 824 5 view .LVU591
 1808 003a 0329     		cmp	r1, #3
 1809 003c EFD1     		bne	.L98
 839:Drivers/STM32G0xx_HAL_Driver/Src/stm32g0xx_hal_dma.c ****         break;
 1810              		.loc 1 839 9 is_stmt 1 view .LVU592
 839:Drivers/STM32G0xx_HAL_Driver/Src/stm32g0xx_hal_dma.c ****         break;
 1811              		.loc 1 839 33 is_stmt 0 view .LVU593
 1812 003e 9A63     		str	r2, [r3, #56]
 840:Drivers/STM32G0xx_HAL_Driver/Src/stm32g0xx_hal_dma.c **** 
 1813              		.loc 1 840 9 is_stmt 1 view .LVU594
 817:Drivers/STM32G0xx_HAL_Driver/Src/stm32g0xx_hal_dma.c **** 
 1814              		.loc 1 817 21 is_stmt 0 view .LVU595
 1815 0040 0020     		movs	r0, #0
 840:Drivers/STM32G0xx_HAL_Driver/Src/stm32g0xx_hal_dma.c **** 
 1816              		.loc 1 840 9 view .LVU596
 1817 0042 ECE7     		b	.L98
 1818              	.L101:
 827:Drivers/STM32G0xx_HAL_Driver/Src/stm32g0xx_hal_dma.c ****         break;
 1819              		.loc 1 827 9 is_stmt 1 view .LVU597
 827:Drivers/STM32G0xx_HAL_Driver/Src/stm32g0xx_hal_dma.c ****         break;
 1820              		.loc 1 827 32 is_stmt 0 view .LVU598
 1821 0044 DA62     		str	r2, [r3, #44]
 828:Drivers/STM32G0xx_HAL_Driver/Src/stm32g0xx_hal_dma.c **** 
 1822              		.loc 1 828 9 is_stmt 1 view .LVU599
 817:Drivers/STM32G0xx_HAL_Driver/Src/stm32g0xx_hal_dma.c **** 
 1823              		.loc 1 817 21 is_stmt 0 view .LVU600
 1824 0046 0800     		movs	r0, r1
 828:Drivers/STM32G0xx_HAL_Driver/Src/stm32g0xx_hal_dma.c **** 
 1825              		.loc 1 828 9 view .LVU601
 1826 0048 E9E7     		b	.L98
 1827              	.L99:
 835:Drivers/STM32G0xx_HAL_Driver/Src/stm32g0xx_hal_dma.c ****         break;
 1828              		.loc 1 835 9 is_stmt 1 view .LVU602
 835:Drivers/STM32G0xx_HAL_Driver/Src/stm32g0xx_hal_dma.c ****         break;
 1829              		.loc 1 835 33 is_stmt 0 view .LVU603
 1830 004a 5A63     		str	r2, [r3, #52]
 836:Drivers/STM32G0xx_HAL_Driver/Src/stm32g0xx_hal_dma.c **** 
 1831              		.loc 1 836 9 is_stmt 1 view .LVU604
 817:Drivers/STM32G0xx_HAL_Driver/Src/stm32g0xx_hal_dma.c **** 
 1832              		.loc 1 817 21 is_stmt 0 view .LVU605
 1833 004c 0020     		movs	r0, #0
 836:Drivers/STM32G0xx_HAL_Driver/Src/stm32g0xx_hal_dma.c **** 
 1834              		.loc 1 836 9 view .LVU606
 1835 004e E6E7     		b	.L98
 1836              	.L104:
 820:Drivers/STM32G0xx_HAL_Driver/Src/stm32g0xx_hal_dma.c **** 
 1837              		.loc 1 820 3 view .LVU607
 1838 0050 0220     		movs	r0, #2
 1839 0052 E7E7     		b	.L97
 1840              		.cfi_endproc
 1841              	.LFE166:
 1843              		.section	.text.HAL_DMA_UnRegisterCallback,"ax",%progbits
 1844              		.align	1
 1845              		.global	HAL_DMA_UnRegisterCallback
 1846              		.syntax unified
 1847              		.code	16
 1848              		.thumb_func
ARM GAS  /var/folders/cw/6cmm0b_n7yj10n1wx8hfx52r0000gn/T//ccoyqBc2.s 			page 61


 1850              	HAL_DMA_UnRegisterCallback:
 1851              	.LVL110:
 1852              	.LFB167:
 867:Drivers/STM32G0xx_HAL_Driver/Src/stm32g0xx_hal_dma.c ****   HAL_StatusTypeDef status = HAL_OK;
 1853              		.loc 1 867 1 is_stmt 1 view -0
 1854              		.cfi_startproc
 1855              		@ args = 0, pretend = 0, frame = 0
 1856              		@ frame_needed = 0, uses_anonymous_args = 0
 1857              		@ link register save eliminated.
 867:Drivers/STM32G0xx_HAL_Driver/Src/stm32g0xx_hal_dma.c ****   HAL_StatusTypeDef status = HAL_OK;
 1858              		.loc 1 867 1 is_stmt 0 view .LVU609
 1859 0000 0300     		movs	r3, r0
 868:Drivers/STM32G0xx_HAL_Driver/Src/stm32g0xx_hal_dma.c **** 
 1860              		.loc 1 868 3 is_stmt 1 view .LVU610
 1861              	.LVL111:
 871:Drivers/STM32G0xx_HAL_Driver/Src/stm32g0xx_hal_dma.c **** 
 1862              		.loc 1 871 3 view .LVU611
 871:Drivers/STM32G0xx_HAL_Driver/Src/stm32g0xx_hal_dma.c **** 
 1863              		.loc 1 871 3 view .LVU612
 1864 0002 2422     		movs	r2, #36
 1865 0004 825C     		ldrb	r2, [r0, r2]
 1866 0006 012A     		cmp	r2, #1
 1867 0008 29D0     		beq	.L116
 871:Drivers/STM32G0xx_HAL_Driver/Src/stm32g0xx_hal_dma.c **** 
 1868              		.loc 1 871 3 discriminator 2 view .LVU613
 1869 000a 2422     		movs	r2, #36
 1870 000c 0120     		movs	r0, #1
 1871              	.LVL112:
 871:Drivers/STM32G0xx_HAL_Driver/Src/stm32g0xx_hal_dma.c **** 
 1872              		.loc 1 871 3 is_stmt 0 discriminator 2 view .LVU614
 1873 000e 9854     		strb	r0, [r3, r2]
 871:Drivers/STM32G0xx_HAL_Driver/Src/stm32g0xx_hal_dma.c **** 
 1874              		.loc 1 871 3 is_stmt 1 discriminator 2 view .LVU615
 873:Drivers/STM32G0xx_HAL_Driver/Src/stm32g0xx_hal_dma.c ****   {
 1875              		.loc 1 873 3 discriminator 2 view .LVU616
 873:Drivers/STM32G0xx_HAL_Driver/Src/stm32g0xx_hal_dma.c ****   {
 1876              		.loc 1 873 34 is_stmt 0 discriminator 2 view .LVU617
 1877 0010 0132     		adds	r2, r2, #1
 1878 0012 9A5C     		ldrb	r2, [r3, r2]
 1879 0014 D0B2     		uxtb	r0, r2
 873:Drivers/STM32G0xx_HAL_Driver/Src/stm32g0xx_hal_dma.c ****   {
 1880              		.loc 1 873 6 discriminator 2 view .LVU618
 1881 0016 012A     		cmp	r2, #1
 1882 0018 04D0     		beq	.L118
 907:Drivers/STM32G0xx_HAL_Driver/Src/stm32g0xx_hal_dma.c ****   }
 1883              		.loc 1 907 12 view .LVU619
 1884 001a 0120     		movs	r0, #1
 1885              	.L109:
 1886              	.LVL113:
 911:Drivers/STM32G0xx_HAL_Driver/Src/stm32g0xx_hal_dma.c **** 
 1887              		.loc 1 911 3 is_stmt 1 view .LVU620
 911:Drivers/STM32G0xx_HAL_Driver/Src/stm32g0xx_hal_dma.c **** 
 1888              		.loc 1 911 3 view .LVU621
 1889 001c 2422     		movs	r2, #36
 1890 001e 0021     		movs	r1, #0
 1891              	.LVL114:
 911:Drivers/STM32G0xx_HAL_Driver/Src/stm32g0xx_hal_dma.c **** 
ARM GAS  /var/folders/cw/6cmm0b_n7yj10n1wx8hfx52r0000gn/T//ccoyqBc2.s 			page 62


 1892              		.loc 1 911 3 is_stmt 0 view .LVU622
 1893 0020 9954     		strb	r1, [r3, r2]
 911:Drivers/STM32G0xx_HAL_Driver/Src/stm32g0xx_hal_dma.c **** 
 1894              		.loc 1 911 3 is_stmt 1 view .LVU623
 913:Drivers/STM32G0xx_HAL_Driver/Src/stm32g0xx_hal_dma.c **** }
 1895              		.loc 1 913 3 view .LVU624
 1896              	.LVL115:
 1897              	.L108:
 914:Drivers/STM32G0xx_HAL_Driver/Src/stm32g0xx_hal_dma.c **** 
 1898              		.loc 1 914 1 is_stmt 0 view .LVU625
 1899              		@ sp needed
 1900 0022 7047     		bx	lr
 1901              	.LVL116:
 1902              	.L118:
 875:Drivers/STM32G0xx_HAL_Driver/Src/stm32g0xx_hal_dma.c ****     {
 1903              		.loc 1 875 5 is_stmt 1 view .LVU626
 1904 0024 0429     		cmp	r1, #4
 1905 0026 F9D8     		bhi	.L109
 1906 0028 8A00     		lsls	r2, r1, #2
 1907 002a 0E48     		ldr	r0, .L119
 1908 002c 8258     		ldr	r2, [r0, r2]
 1909 002e 9746     		mov	pc, r2
 1910              		.section	.rodata.HAL_DMA_UnRegisterCallback,"a",%progbits
 1911              		.align	2
 1912              	.L111:
 1913 0000 30000000 		.word	.L115
 1914 0004 38000000 		.word	.L114
 1915 0008 40000000 		.word	.L113
 1916 000c 48000000 		.word	.L112
 1917 0010 50000000 		.word	.L110
 1918              		.section	.text.HAL_DMA_UnRegisterCallback
 1919              	.L115:
 878:Drivers/STM32G0xx_HAL_Driver/Src/stm32g0xx_hal_dma.c ****         break;
 1920              		.loc 1 878 9 view .LVU627
 878:Drivers/STM32G0xx_HAL_Driver/Src/stm32g0xx_hal_dma.c ****         break;
 1921              		.loc 1 878 32 is_stmt 0 view .LVU628
 1922 0030 0022     		movs	r2, #0
 1923 0032 DA62     		str	r2, [r3, #44]
 879:Drivers/STM32G0xx_HAL_Driver/Src/stm32g0xx_hal_dma.c **** 
 1924              		.loc 1 879 9 is_stmt 1 view .LVU629
 868:Drivers/STM32G0xx_HAL_Driver/Src/stm32g0xx_hal_dma.c **** 
 1925              		.loc 1 868 21 is_stmt 0 view .LVU630
 1926 0034 0800     		movs	r0, r1
 879:Drivers/STM32G0xx_HAL_Driver/Src/stm32g0xx_hal_dma.c **** 
 1927              		.loc 1 879 9 view .LVU631
 1928 0036 F1E7     		b	.L109
 1929              	.L114:
 882:Drivers/STM32G0xx_HAL_Driver/Src/stm32g0xx_hal_dma.c ****         break;
 1930              		.loc 1 882 9 is_stmt 1 view .LVU632
 882:Drivers/STM32G0xx_HAL_Driver/Src/stm32g0xx_hal_dma.c ****         break;
 1931              		.loc 1 882 36 is_stmt 0 view .LVU633
 1932 0038 0022     		movs	r2, #0
 1933 003a 1A63     		str	r2, [r3, #48]
 883:Drivers/STM32G0xx_HAL_Driver/Src/stm32g0xx_hal_dma.c **** 
 1934              		.loc 1 883 9 is_stmt 1 view .LVU634
 868:Drivers/STM32G0xx_HAL_Driver/Src/stm32g0xx_hal_dma.c **** 
 1935              		.loc 1 868 21 is_stmt 0 view .LVU635
ARM GAS  /var/folders/cw/6cmm0b_n7yj10n1wx8hfx52r0000gn/T//ccoyqBc2.s 			page 63


 1936 003c 0020     		movs	r0, #0
 883:Drivers/STM32G0xx_HAL_Driver/Src/stm32g0xx_hal_dma.c **** 
 1937              		.loc 1 883 9 view .LVU636
 1938 003e EDE7     		b	.L109
 1939              	.L113:
 886:Drivers/STM32G0xx_HAL_Driver/Src/stm32g0xx_hal_dma.c ****         break;
 1940              		.loc 1 886 9 is_stmt 1 view .LVU637
 886:Drivers/STM32G0xx_HAL_Driver/Src/stm32g0xx_hal_dma.c ****         break;
 1941              		.loc 1 886 33 is_stmt 0 view .LVU638
 1942 0040 0022     		movs	r2, #0
 1943 0042 5A63     		str	r2, [r3, #52]
 887:Drivers/STM32G0xx_HAL_Driver/Src/stm32g0xx_hal_dma.c **** 
 1944              		.loc 1 887 9 is_stmt 1 view .LVU639
 868:Drivers/STM32G0xx_HAL_Driver/Src/stm32g0xx_hal_dma.c **** 
 1945              		.loc 1 868 21 is_stmt 0 view .LVU640
 1946 0044 0020     		movs	r0, #0
 887:Drivers/STM32G0xx_HAL_Driver/Src/stm32g0xx_hal_dma.c **** 
 1947              		.loc 1 887 9 view .LVU641
 1948 0046 E9E7     		b	.L109
 1949              	.L112:
 890:Drivers/STM32G0xx_HAL_Driver/Src/stm32g0xx_hal_dma.c ****         break;
 1950              		.loc 1 890 9 is_stmt 1 view .LVU642
 890:Drivers/STM32G0xx_HAL_Driver/Src/stm32g0xx_hal_dma.c ****         break;
 1951              		.loc 1 890 33 is_stmt 0 view .LVU643
 1952 0048 0022     		movs	r2, #0
 1953 004a 9A63     		str	r2, [r3, #56]
 891:Drivers/STM32G0xx_HAL_Driver/Src/stm32g0xx_hal_dma.c **** 
 1954              		.loc 1 891 9 is_stmt 1 view .LVU644
 868:Drivers/STM32G0xx_HAL_Driver/Src/stm32g0xx_hal_dma.c **** 
 1955              		.loc 1 868 21 is_stmt 0 view .LVU645
 1956 004c 0020     		movs	r0, #0
 891:Drivers/STM32G0xx_HAL_Driver/Src/stm32g0xx_hal_dma.c **** 
 1957              		.loc 1 891 9 view .LVU646
 1958 004e E5E7     		b	.L109
 1959              	.L110:
 894:Drivers/STM32G0xx_HAL_Driver/Src/stm32g0xx_hal_dma.c ****         hdma->XferHalfCpltCallback = NULL;
 1960              		.loc 1 894 9 is_stmt 1 view .LVU647
 894:Drivers/STM32G0xx_HAL_Driver/Src/stm32g0xx_hal_dma.c ****         hdma->XferHalfCpltCallback = NULL;
 1961              		.loc 1 894 32 is_stmt 0 view .LVU648
 1962 0050 0022     		movs	r2, #0
 1963 0052 DA62     		str	r2, [r3, #44]
 895:Drivers/STM32G0xx_HAL_Driver/Src/stm32g0xx_hal_dma.c ****         hdma->XferErrorCallback = NULL;
 1964              		.loc 1 895 9 is_stmt 1 view .LVU649
 895:Drivers/STM32G0xx_HAL_Driver/Src/stm32g0xx_hal_dma.c ****         hdma->XferErrorCallback = NULL;
 1965              		.loc 1 895 36 is_stmt 0 view .LVU650
 1966 0054 1A63     		str	r2, [r3, #48]
 896:Drivers/STM32G0xx_HAL_Driver/Src/stm32g0xx_hal_dma.c ****         hdma->XferAbortCallback = NULL;
 1967              		.loc 1 896 9 is_stmt 1 view .LVU651
 896:Drivers/STM32G0xx_HAL_Driver/Src/stm32g0xx_hal_dma.c ****         hdma->XferAbortCallback = NULL;
 1968              		.loc 1 896 33 is_stmt 0 view .LVU652
 1969 0056 5A63     		str	r2, [r3, #52]
 897:Drivers/STM32G0xx_HAL_Driver/Src/stm32g0xx_hal_dma.c ****         break;
 1970              		.loc 1 897 9 is_stmt 1 view .LVU653
 897:Drivers/STM32G0xx_HAL_Driver/Src/stm32g0xx_hal_dma.c ****         break;
 1971              		.loc 1 897 33 is_stmt 0 view .LVU654
 1972 0058 9A63     		str	r2, [r3, #56]
 898:Drivers/STM32G0xx_HAL_Driver/Src/stm32g0xx_hal_dma.c **** 
ARM GAS  /var/folders/cw/6cmm0b_n7yj10n1wx8hfx52r0000gn/T//ccoyqBc2.s 			page 64


 1973              		.loc 1 898 9 is_stmt 1 view .LVU655
 868:Drivers/STM32G0xx_HAL_Driver/Src/stm32g0xx_hal_dma.c **** 
 1974              		.loc 1 868 21 is_stmt 0 view .LVU656
 1975 005a 0020     		movs	r0, #0
 898:Drivers/STM32G0xx_HAL_Driver/Src/stm32g0xx_hal_dma.c **** 
 1976              		.loc 1 898 9 view .LVU657
 1977 005c DEE7     		b	.L109
 1978              	.LVL117:
 1979              	.L116:
 871:Drivers/STM32G0xx_HAL_Driver/Src/stm32g0xx_hal_dma.c **** 
 1980              		.loc 1 871 3 view .LVU658
 1981 005e 0220     		movs	r0, #2
 1982              	.LVL118:
 871:Drivers/STM32G0xx_HAL_Driver/Src/stm32g0xx_hal_dma.c **** 
 1983              		.loc 1 871 3 view .LVU659
 1984 0060 DFE7     		b	.L108
 1985              	.L120:
 1986 0062 C046     		.align	2
 1987              	.L119:
 1988 0064 00000000 		.word	.L111
 1989              		.cfi_endproc
 1990              	.LFE167:
 1992              		.section	.text.HAL_DMA_GetState,"ax",%progbits
 1993              		.align	1
 1994              		.global	HAL_DMA_GetState
 1995              		.syntax unified
 1996              		.code	16
 1997              		.thumb_func
 1999              	HAL_DMA_GetState:
 2000              	.LVL119:
 2001              	.LFB168:
 945:Drivers/STM32G0xx_HAL_Driver/Src/stm32g0xx_hal_dma.c ****   /* Return DMA handle state */
 2002              		.loc 1 945 1 is_stmt 1 view -0
 2003              		.cfi_startproc
 2004              		@ args = 0, pretend = 0, frame = 0
 2005              		@ frame_needed = 0, uses_anonymous_args = 0
 2006              		@ link register save eliminated.
 947:Drivers/STM32G0xx_HAL_Driver/Src/stm32g0xx_hal_dma.c **** }
 2007              		.loc 1 947 3 view .LVU661
 947:Drivers/STM32G0xx_HAL_Driver/Src/stm32g0xx_hal_dma.c **** }
 2008              		.loc 1 947 14 is_stmt 0 view .LVU662
 2009 0000 2523     		movs	r3, #37
 2010 0002 C05C     		ldrb	r0, [r0, r3]
 2011              	.LVL120:
 947:Drivers/STM32G0xx_HAL_Driver/Src/stm32g0xx_hal_dma.c **** }
 2012              		.loc 1 947 14 view .LVU663
 2013 0004 C0B2     		uxtb	r0, r0
 948:Drivers/STM32G0xx_HAL_Driver/Src/stm32g0xx_hal_dma.c **** 
 2014              		.loc 1 948 1 view .LVU664
 2015              		@ sp needed
 2016 0006 7047     		bx	lr
 2017              		.cfi_endproc
 2018              	.LFE168:
 2020              		.section	.text.HAL_DMA_GetError,"ax",%progbits
 2021              		.align	1
 2022              		.global	HAL_DMA_GetError
 2023              		.syntax unified
ARM GAS  /var/folders/cw/6cmm0b_n7yj10n1wx8hfx52r0000gn/T//ccoyqBc2.s 			page 65


 2024              		.code	16
 2025              		.thumb_func
 2027              	HAL_DMA_GetError:
 2028              	.LVL121:
 2029              	.LFB169:
 957:Drivers/STM32G0xx_HAL_Driver/Src/stm32g0xx_hal_dma.c ****   return hdma->ErrorCode;
 2030              		.loc 1 957 1 is_stmt 1 view -0
 2031              		.cfi_startproc
 2032              		@ args = 0, pretend = 0, frame = 0
 2033              		@ frame_needed = 0, uses_anonymous_args = 0
 2034              		@ link register save eliminated.
 958:Drivers/STM32G0xx_HAL_Driver/Src/stm32g0xx_hal_dma.c **** }
 2035              		.loc 1 958 3 view .LVU666
 958:Drivers/STM32G0xx_HAL_Driver/Src/stm32g0xx_hal_dma.c **** }
 2036              		.loc 1 958 14 is_stmt 0 view .LVU667
 2037 0000 C06B     		ldr	r0, [r0, #60]
 2038              	.LVL122:
 959:Drivers/STM32G0xx_HAL_Driver/Src/stm32g0xx_hal_dma.c **** 
 2039              		.loc 1 959 1 view .LVU668
 2040              		@ sp needed
 2041 0002 7047     		bx	lr
 2042              		.cfi_endproc
 2043              	.LFE169:
 2045              		.text
 2046              	.Letext0:
 2047              		.file 2 "/Applications/ArmGNUToolchain/12.3.rel1/arm-none-eabi/arm-none-eabi/include/machine/_defa
 2048              		.file 3 "/Applications/ArmGNUToolchain/12.3.rel1/arm-none-eabi/arm-none-eabi/include/sys/_stdint.h
 2049              		.file 4 "Drivers/CMSIS/Device/ST/STM32G0xx/Include/stm32g030xx.h"
 2050              		.file 5 "Drivers/STM32G0xx_HAL_Driver/Inc/stm32g0xx_hal_def.h"
 2051              		.file 6 "Drivers/STM32G0xx_HAL_Driver/Inc/stm32g0xx_hal_dma.h"
 2052              		.file 7 "Drivers/STM32G0xx_HAL_Driver/Inc/stm32g0xx_hal.h"
ARM GAS  /var/folders/cw/6cmm0b_n7yj10n1wx8hfx52r0000gn/T//ccoyqBc2.s 			page 66

