ARM GAS  /var/folders/cw/6cmm0b_n7yj10n1wx8hfx52r0000gn/T//cchk5TpI.s 			page 1


   1              		.cpu cortex-m0plus
   2              		.arch armv6s-m
   3              		.fpu softvfp
   4              		.eabi_attribute 20, 1
   5              		.eabi_attribute 21, 1
   6              		.eabi_attribute 23, 3
   7              		.eabi_attribute 24, 1
   8              		.eabi_attribute 25, 1
   9              		.eabi_attribute 26, 1
  10              		.eabi_attribute 30, 1
  11              		.eabi_attribute 34, 0
  12              		.eabi_attribute 18, 4
  13              		.file	"stm32g0xx_hal_flash.c"
  14              		.text
  15              	.Ltext0:
  16              		.cfi_sections	.debug_frame
  17              		.file 1 "Drivers/STM32G0xx_HAL_Driver/Src/stm32g0xx_hal_flash.c"
  18              		.section	.text.FLASH_Program_DoubleWord,"ax",%progbits
  19              		.align	1
  20              		.syntax unified
  21              		.code	16
  22              		.thumb_func
  24              	FLASH_Program_DoubleWord:
  25              	.LVL0:
  26              	.LFB170:
   1:Drivers/STM32G0xx_HAL_Driver/Src/stm32g0xx_hal_flash.c **** /**
   2:Drivers/STM32G0xx_HAL_Driver/Src/stm32g0xx_hal_flash.c ****   ******************************************************************************
   3:Drivers/STM32G0xx_HAL_Driver/Src/stm32g0xx_hal_flash.c ****   * @file    stm32g0xx_hal_flash.c
   4:Drivers/STM32G0xx_HAL_Driver/Src/stm32g0xx_hal_flash.c ****   * @author  MCD Application Team
   5:Drivers/STM32G0xx_HAL_Driver/Src/stm32g0xx_hal_flash.c ****   * @brief   FLASH HAL module driver.
   6:Drivers/STM32G0xx_HAL_Driver/Src/stm32g0xx_hal_flash.c ****   *          This file provides firmware functions to manage the following
   7:Drivers/STM32G0xx_HAL_Driver/Src/stm32g0xx_hal_flash.c ****   *          functionalities of the internal FLASH memory:
   8:Drivers/STM32G0xx_HAL_Driver/Src/stm32g0xx_hal_flash.c ****   *           + Program operations functions
   9:Drivers/STM32G0xx_HAL_Driver/Src/stm32g0xx_hal_flash.c ****   *           + Memory Control functions
  10:Drivers/STM32G0xx_HAL_Driver/Src/stm32g0xx_hal_flash.c ****   *           + Peripheral Errors functions
  11:Drivers/STM32G0xx_HAL_Driver/Src/stm32g0xx_hal_flash.c ****   *
  12:Drivers/STM32G0xx_HAL_Driver/Src/stm32g0xx_hal_flash.c ****  @verbatim
  13:Drivers/STM32G0xx_HAL_Driver/Src/stm32g0xx_hal_flash.c ****   ==============================================================================
  14:Drivers/STM32G0xx_HAL_Driver/Src/stm32g0xx_hal_flash.c ****                         ##### FLASH peripheral features #####
  15:Drivers/STM32G0xx_HAL_Driver/Src/stm32g0xx_hal_flash.c ****   ==============================================================================
  16:Drivers/STM32G0xx_HAL_Driver/Src/stm32g0xx_hal_flash.c **** 
  17:Drivers/STM32G0xx_HAL_Driver/Src/stm32g0xx_hal_flash.c ****   [..] The Flash memory interface manages CPU AHB I-Code and D-Code accesses
  18:Drivers/STM32G0xx_HAL_Driver/Src/stm32g0xx_hal_flash.c ****        to the Flash memory. It implements the erase and program Flash memory operations
  19:Drivers/STM32G0xx_HAL_Driver/Src/stm32g0xx_hal_flash.c ****        and the read and write protection mechanisms.
  20:Drivers/STM32G0xx_HAL_Driver/Src/stm32g0xx_hal_flash.c **** 
  21:Drivers/STM32G0xx_HAL_Driver/Src/stm32g0xx_hal_flash.c ****   [..] The Flash memory interface accelerates code execution with a system of instruction
  22:Drivers/STM32G0xx_HAL_Driver/Src/stm32g0xx_hal_flash.c ****        prefetch and cache lines.
  23:Drivers/STM32G0xx_HAL_Driver/Src/stm32g0xx_hal_flash.c **** 
  24:Drivers/STM32G0xx_HAL_Driver/Src/stm32g0xx_hal_flash.c ****   [..] The FLASH main features are:
  25:Drivers/STM32G0xx_HAL_Driver/Src/stm32g0xx_hal_flash.c ****       (+) Flash memory read operations
  26:Drivers/STM32G0xx_HAL_Driver/Src/stm32g0xx_hal_flash.c ****       (+) Flash memory program/erase operations
  27:Drivers/STM32G0xx_HAL_Driver/Src/stm32g0xx_hal_flash.c ****       (+) Read / write protections
  28:Drivers/STM32G0xx_HAL_Driver/Src/stm32g0xx_hal_flash.c ****       (+) Option bytes programming
  29:Drivers/STM32G0xx_HAL_Driver/Src/stm32g0xx_hal_flash.c ****       (+) Prefetch on I-Code
  30:Drivers/STM32G0xx_HAL_Driver/Src/stm32g0xx_hal_flash.c ****       (+) 32 cache lines of 4*64 bits on I-Code
  31:Drivers/STM32G0xx_HAL_Driver/Src/stm32g0xx_hal_flash.c ****       (+) Error code correction (ECC) : Data in flash are 72-bits word
  32:Drivers/STM32G0xx_HAL_Driver/Src/stm32g0xx_hal_flash.c ****           (8 bits added per double word)
ARM GAS  /var/folders/cw/6cmm0b_n7yj10n1wx8hfx52r0000gn/T//cchk5TpI.s 			page 2


  33:Drivers/STM32G0xx_HAL_Driver/Src/stm32g0xx_hal_flash.c **** 
  34:Drivers/STM32G0xx_HAL_Driver/Src/stm32g0xx_hal_flash.c ****                         ##### How to use this driver #####
  35:Drivers/STM32G0xx_HAL_Driver/Src/stm32g0xx_hal_flash.c ****  ==============================================================================
  36:Drivers/STM32G0xx_HAL_Driver/Src/stm32g0xx_hal_flash.c ****     [..]
  37:Drivers/STM32G0xx_HAL_Driver/Src/stm32g0xx_hal_flash.c ****       This driver provides functions and macros to configure and program the FLASH
  38:Drivers/STM32G0xx_HAL_Driver/Src/stm32g0xx_hal_flash.c ****       memory of all STM32G0xx devices.
  39:Drivers/STM32G0xx_HAL_Driver/Src/stm32g0xx_hal_flash.c **** 
  40:Drivers/STM32G0xx_HAL_Driver/Src/stm32g0xx_hal_flash.c ****       (#) Flash Memory IO Programming functions:
  41:Drivers/STM32G0xx_HAL_Driver/Src/stm32g0xx_hal_flash.c ****            (++) Lock and Unlock the FLASH interface using HAL_FLASH_Unlock() and
  42:Drivers/STM32G0xx_HAL_Driver/Src/stm32g0xx_hal_flash.c ****                 HAL_FLASH_Lock() functions
  43:Drivers/STM32G0xx_HAL_Driver/Src/stm32g0xx_hal_flash.c ****            (++) Program functions: double word and fast program (full row programming)
  44:Drivers/STM32G0xx_HAL_Driver/Src/stm32g0xx_hal_flash.c ****            (++) There are two modes of programming:
  45:Drivers/STM32G0xx_HAL_Driver/Src/stm32g0xx_hal_flash.c ****             (+++) Polling mode using HAL_FLASH_Program() function
  46:Drivers/STM32G0xx_HAL_Driver/Src/stm32g0xx_hal_flash.c ****             (+++) Interrupt mode using HAL_FLASH_Program_IT() function
  47:Drivers/STM32G0xx_HAL_Driver/Src/stm32g0xx_hal_flash.c **** 
  48:Drivers/STM32G0xx_HAL_Driver/Src/stm32g0xx_hal_flash.c ****       (#) Interrupts and flags management functions:
  49:Drivers/STM32G0xx_HAL_Driver/Src/stm32g0xx_hal_flash.c ****            (++) Handle FLASH interrupts by calling HAL_FLASH_IRQHandler()
  50:Drivers/STM32G0xx_HAL_Driver/Src/stm32g0xx_hal_flash.c ****            (++) Callback functions are called when the flash operations are finished :
  51:Drivers/STM32G0xx_HAL_Driver/Src/stm32g0xx_hal_flash.c ****                 HAL_FLASH_EndOfOperationCallback() when everything is ok, otherwise
  52:Drivers/STM32G0xx_HAL_Driver/Src/stm32g0xx_hal_flash.c ****                 HAL_FLASH_OperationErrorCallback()
  53:Drivers/STM32G0xx_HAL_Driver/Src/stm32g0xx_hal_flash.c ****            (++) Get error flag status by calling HAL_GetError()
  54:Drivers/STM32G0xx_HAL_Driver/Src/stm32g0xx_hal_flash.c **** 
  55:Drivers/STM32G0xx_HAL_Driver/Src/stm32g0xx_hal_flash.c ****       (#) Option bytes management functions :
  56:Drivers/STM32G0xx_HAL_Driver/Src/stm32g0xx_hal_flash.c ****            (++) Lock and Unlock the option bytes using HAL_FLASH_OB_Unlock() and
  57:Drivers/STM32G0xx_HAL_Driver/Src/stm32g0xx_hal_flash.c ****                 HAL_FLASH_OB_Lock() functions
  58:Drivers/STM32G0xx_HAL_Driver/Src/stm32g0xx_hal_flash.c ****            (++) Launch the reload of the option bytes using HAL_FLASH_OB_Launch() function.
  59:Drivers/STM32G0xx_HAL_Driver/Src/stm32g0xx_hal_flash.c ****                 In this case, a reset is generated
  60:Drivers/STM32G0xx_HAL_Driver/Src/stm32g0xx_hal_flash.c **** 
  61:Drivers/STM32G0xx_HAL_Driver/Src/stm32g0xx_hal_flash.c ****     [..]
  62:Drivers/STM32G0xx_HAL_Driver/Src/stm32g0xx_hal_flash.c ****       In addition to these functions, this driver includes a set of macros allowing
  63:Drivers/STM32G0xx_HAL_Driver/Src/stm32g0xx_hal_flash.c ****       to handle the following operations:
  64:Drivers/STM32G0xx_HAL_Driver/Src/stm32g0xx_hal_flash.c ****        (+) Set the latency
  65:Drivers/STM32G0xx_HAL_Driver/Src/stm32g0xx_hal_flash.c ****        (+) Enable/Disable the prefetch buffer
  66:Drivers/STM32G0xx_HAL_Driver/Src/stm32g0xx_hal_flash.c ****        (+) Enable/Disable the Instruction cache
  67:Drivers/STM32G0xx_HAL_Driver/Src/stm32g0xx_hal_flash.c ****        (+) Reset the Instruction cache
  68:Drivers/STM32G0xx_HAL_Driver/Src/stm32g0xx_hal_flash.c ****        (+) Enable/Disable the Flash power-down during low-power run and sleep modes
  69:Drivers/STM32G0xx_HAL_Driver/Src/stm32g0xx_hal_flash.c ****        (+) Enable/Disable the Flash interrupts
  70:Drivers/STM32G0xx_HAL_Driver/Src/stm32g0xx_hal_flash.c ****        (+) Monitor the Flash flags status
  71:Drivers/STM32G0xx_HAL_Driver/Src/stm32g0xx_hal_flash.c **** 
  72:Drivers/STM32G0xx_HAL_Driver/Src/stm32g0xx_hal_flash.c ****  @endverbatim
  73:Drivers/STM32G0xx_HAL_Driver/Src/stm32g0xx_hal_flash.c ****   ******************************************************************************
  74:Drivers/STM32G0xx_HAL_Driver/Src/stm32g0xx_hal_flash.c ****   * @attention
  75:Drivers/STM32G0xx_HAL_Driver/Src/stm32g0xx_hal_flash.c ****   *
  76:Drivers/STM32G0xx_HAL_Driver/Src/stm32g0xx_hal_flash.c ****   * <h2><center>&copy; Copyright (c) 2018 STMicroelectronics.
  77:Drivers/STM32G0xx_HAL_Driver/Src/stm32g0xx_hal_flash.c ****   * All rights reserved.</center></h2>
  78:Drivers/STM32G0xx_HAL_Driver/Src/stm32g0xx_hal_flash.c ****   *
  79:Drivers/STM32G0xx_HAL_Driver/Src/stm32g0xx_hal_flash.c ****   * This software component is licensed by ST under BSD 3-Clause license,
  80:Drivers/STM32G0xx_HAL_Driver/Src/stm32g0xx_hal_flash.c ****   * the "License"; You may not use this file except in compliance with the
  81:Drivers/STM32G0xx_HAL_Driver/Src/stm32g0xx_hal_flash.c ****   * License. You may obtain a copy of the License at:
  82:Drivers/STM32G0xx_HAL_Driver/Src/stm32g0xx_hal_flash.c ****   *                        opensource.org/licenses/BSD-3-Clause
  83:Drivers/STM32G0xx_HAL_Driver/Src/stm32g0xx_hal_flash.c ****   *
  84:Drivers/STM32G0xx_HAL_Driver/Src/stm32g0xx_hal_flash.c ****   ******************************************************************************
  85:Drivers/STM32G0xx_HAL_Driver/Src/stm32g0xx_hal_flash.c ****   */
  86:Drivers/STM32G0xx_HAL_Driver/Src/stm32g0xx_hal_flash.c **** 
  87:Drivers/STM32G0xx_HAL_Driver/Src/stm32g0xx_hal_flash.c **** /* Includes ------------------------------------------------------------------*/
  88:Drivers/STM32G0xx_HAL_Driver/Src/stm32g0xx_hal_flash.c **** #include "stm32g0xx_hal.h"
  89:Drivers/STM32G0xx_HAL_Driver/Src/stm32g0xx_hal_flash.c **** 
ARM GAS  /var/folders/cw/6cmm0b_n7yj10n1wx8hfx52r0000gn/T//cchk5TpI.s 			page 3


  90:Drivers/STM32G0xx_HAL_Driver/Src/stm32g0xx_hal_flash.c **** /** @addtogroup STM32G0xx_HAL_Driver
  91:Drivers/STM32G0xx_HAL_Driver/Src/stm32g0xx_hal_flash.c ****   * @{
  92:Drivers/STM32G0xx_HAL_Driver/Src/stm32g0xx_hal_flash.c ****   */
  93:Drivers/STM32G0xx_HAL_Driver/Src/stm32g0xx_hal_flash.c **** 
  94:Drivers/STM32G0xx_HAL_Driver/Src/stm32g0xx_hal_flash.c **** /** @defgroup FLASH FLASH
  95:Drivers/STM32G0xx_HAL_Driver/Src/stm32g0xx_hal_flash.c ****   * @brief FLASH HAL module driver
  96:Drivers/STM32G0xx_HAL_Driver/Src/stm32g0xx_hal_flash.c ****   * @{
  97:Drivers/STM32G0xx_HAL_Driver/Src/stm32g0xx_hal_flash.c ****   */
  98:Drivers/STM32G0xx_HAL_Driver/Src/stm32g0xx_hal_flash.c **** 
  99:Drivers/STM32G0xx_HAL_Driver/Src/stm32g0xx_hal_flash.c **** #ifdef HAL_FLASH_MODULE_ENABLED
 100:Drivers/STM32G0xx_HAL_Driver/Src/stm32g0xx_hal_flash.c **** 
 101:Drivers/STM32G0xx_HAL_Driver/Src/stm32g0xx_hal_flash.c **** /* Private typedef -----------------------------------------------------------*/
 102:Drivers/STM32G0xx_HAL_Driver/Src/stm32g0xx_hal_flash.c **** /* Private defines -----------------------------------------------------------*/
 103:Drivers/STM32G0xx_HAL_Driver/Src/stm32g0xx_hal_flash.c **** /* Private macros ------------------------------------------------------------*/
 104:Drivers/STM32G0xx_HAL_Driver/Src/stm32g0xx_hal_flash.c **** /* Private variables ---------------------------------------------------------*/
 105:Drivers/STM32G0xx_HAL_Driver/Src/stm32g0xx_hal_flash.c **** /** @defgroup FLASH_Private_Variables FLASH Private Variables
 106:Drivers/STM32G0xx_HAL_Driver/Src/stm32g0xx_hal_flash.c ****  * @{
 107:Drivers/STM32G0xx_HAL_Driver/Src/stm32g0xx_hal_flash.c ****  */
 108:Drivers/STM32G0xx_HAL_Driver/Src/stm32g0xx_hal_flash.c **** /**
 109:Drivers/STM32G0xx_HAL_Driver/Src/stm32g0xx_hal_flash.c ****   * @brief  Variable used for Program/Erase sectors under interruption
 110:Drivers/STM32G0xx_HAL_Driver/Src/stm32g0xx_hal_flash.c ****   */
 111:Drivers/STM32G0xx_HAL_Driver/Src/stm32g0xx_hal_flash.c **** FLASH_ProcessTypeDef pFlash  = {.Lock = HAL_UNLOCKED, \
 112:Drivers/STM32G0xx_HAL_Driver/Src/stm32g0xx_hal_flash.c ****                                 .ErrorCode = HAL_FLASH_ERROR_NONE, \
 113:Drivers/STM32G0xx_HAL_Driver/Src/stm32g0xx_hal_flash.c ****                                 .ProcedureOnGoing = FLASH_TYPENONE, \
 114:Drivers/STM32G0xx_HAL_Driver/Src/stm32g0xx_hal_flash.c ****                                 .Address = 0U, \
 115:Drivers/STM32G0xx_HAL_Driver/Src/stm32g0xx_hal_flash.c ****                                 .Page = 0U, \
 116:Drivers/STM32G0xx_HAL_Driver/Src/stm32g0xx_hal_flash.c ****                                 .NbPagesToErase = 0U
 117:Drivers/STM32G0xx_HAL_Driver/Src/stm32g0xx_hal_flash.c ****                                };
 118:Drivers/STM32G0xx_HAL_Driver/Src/stm32g0xx_hal_flash.c **** /**
 119:Drivers/STM32G0xx_HAL_Driver/Src/stm32g0xx_hal_flash.c ****   * @}
 120:Drivers/STM32G0xx_HAL_Driver/Src/stm32g0xx_hal_flash.c ****   */
 121:Drivers/STM32G0xx_HAL_Driver/Src/stm32g0xx_hal_flash.c **** 
 122:Drivers/STM32G0xx_HAL_Driver/Src/stm32g0xx_hal_flash.c **** /* Private function prototypes -----------------------------------------------*/
 123:Drivers/STM32G0xx_HAL_Driver/Src/stm32g0xx_hal_flash.c **** /** @defgroup FLASH_Private_Functions FLASH Private Functions
 124:Drivers/STM32G0xx_HAL_Driver/Src/stm32g0xx_hal_flash.c ****  * @{
 125:Drivers/STM32G0xx_HAL_Driver/Src/stm32g0xx_hal_flash.c ****  */
 126:Drivers/STM32G0xx_HAL_Driver/Src/stm32g0xx_hal_flash.c **** static void          FLASH_Program_DoubleWord(uint32_t Address, uint64_t Data);
 127:Drivers/STM32G0xx_HAL_Driver/Src/stm32g0xx_hal_flash.c **** static void          FLASH_Program_Fast(uint32_t Address, uint32_t DataAddress);
 128:Drivers/STM32G0xx_HAL_Driver/Src/stm32g0xx_hal_flash.c **** /**
 129:Drivers/STM32G0xx_HAL_Driver/Src/stm32g0xx_hal_flash.c ****   * @}
 130:Drivers/STM32G0xx_HAL_Driver/Src/stm32g0xx_hal_flash.c ****   */
 131:Drivers/STM32G0xx_HAL_Driver/Src/stm32g0xx_hal_flash.c **** 
 132:Drivers/STM32G0xx_HAL_Driver/Src/stm32g0xx_hal_flash.c **** /* Exported functions --------------------------------------------------------*/
 133:Drivers/STM32G0xx_HAL_Driver/Src/stm32g0xx_hal_flash.c **** /** @defgroup FLASH_Exported_Functions FLASH Exported Functions
 134:Drivers/STM32G0xx_HAL_Driver/Src/stm32g0xx_hal_flash.c ****   * @{
 135:Drivers/STM32G0xx_HAL_Driver/Src/stm32g0xx_hal_flash.c ****   */
 136:Drivers/STM32G0xx_HAL_Driver/Src/stm32g0xx_hal_flash.c **** 
 137:Drivers/STM32G0xx_HAL_Driver/Src/stm32g0xx_hal_flash.c **** /** @defgroup FLASH_Exported_Functions_Group1 Programming operation functions
 138:Drivers/STM32G0xx_HAL_Driver/Src/stm32g0xx_hal_flash.c ****  *  @brief   Programming operation functions
 139:Drivers/STM32G0xx_HAL_Driver/Src/stm32g0xx_hal_flash.c ****  *
 140:Drivers/STM32G0xx_HAL_Driver/Src/stm32g0xx_hal_flash.c **** @verbatim
 141:Drivers/STM32G0xx_HAL_Driver/Src/stm32g0xx_hal_flash.c ****  ===============================================================================
 142:Drivers/STM32G0xx_HAL_Driver/Src/stm32g0xx_hal_flash.c ****                   ##### Programming operation functions #####
 143:Drivers/STM32G0xx_HAL_Driver/Src/stm32g0xx_hal_flash.c ****  ===============================================================================
 144:Drivers/STM32G0xx_HAL_Driver/Src/stm32g0xx_hal_flash.c ****     [..]
 145:Drivers/STM32G0xx_HAL_Driver/Src/stm32g0xx_hal_flash.c ****     This subsection provides a set of functions allowing to manage the FLASH
 146:Drivers/STM32G0xx_HAL_Driver/Src/stm32g0xx_hal_flash.c ****     program operations.
ARM GAS  /var/folders/cw/6cmm0b_n7yj10n1wx8hfx52r0000gn/T//cchk5TpI.s 			page 4


 147:Drivers/STM32G0xx_HAL_Driver/Src/stm32g0xx_hal_flash.c **** 
 148:Drivers/STM32G0xx_HAL_Driver/Src/stm32g0xx_hal_flash.c **** @endverbatim
 149:Drivers/STM32G0xx_HAL_Driver/Src/stm32g0xx_hal_flash.c ****   * @{
 150:Drivers/STM32G0xx_HAL_Driver/Src/stm32g0xx_hal_flash.c ****   */
 151:Drivers/STM32G0xx_HAL_Driver/Src/stm32g0xx_hal_flash.c **** 
 152:Drivers/STM32G0xx_HAL_Driver/Src/stm32g0xx_hal_flash.c **** /**
 153:Drivers/STM32G0xx_HAL_Driver/Src/stm32g0xx_hal_flash.c ****   * @brief  Program double word or fast program of a row at a specified address.
 154:Drivers/STM32G0xx_HAL_Driver/Src/stm32g0xx_hal_flash.c ****   * @param  TypeProgram Indicate the way to program at a specified address.
 155:Drivers/STM32G0xx_HAL_Driver/Src/stm32g0xx_hal_flash.c ****   *                      This parameter can be a value of @ref FLASH_Type_Program
 156:Drivers/STM32G0xx_HAL_Driver/Src/stm32g0xx_hal_flash.c ****   * @param  Address Specifies the address to be programmed.
 157:Drivers/STM32G0xx_HAL_Driver/Src/stm32g0xx_hal_flash.c ****   * @param  Data Specifies the data to be programmed
 158:Drivers/STM32G0xx_HAL_Driver/Src/stm32g0xx_hal_flash.c ****   *               This parameter is the data for the double word program and the address where
 159:Drivers/STM32G0xx_HAL_Driver/Src/stm32g0xx_hal_flash.c ****   *               are stored the data for the row fast program.
 160:Drivers/STM32G0xx_HAL_Driver/Src/stm32g0xx_hal_flash.c ****   *
 161:Drivers/STM32G0xx_HAL_Driver/Src/stm32g0xx_hal_flash.c ****   * @retval HAL_StatusTypeDef HAL Status
 162:Drivers/STM32G0xx_HAL_Driver/Src/stm32g0xx_hal_flash.c ****   */
 163:Drivers/STM32G0xx_HAL_Driver/Src/stm32g0xx_hal_flash.c **** HAL_StatusTypeDef HAL_FLASH_Program(uint32_t TypeProgram, uint32_t Address, uint64_t Data)
 164:Drivers/STM32G0xx_HAL_Driver/Src/stm32g0xx_hal_flash.c **** {
 165:Drivers/STM32G0xx_HAL_Driver/Src/stm32g0xx_hal_flash.c ****   HAL_StatusTypeDef status;
 166:Drivers/STM32G0xx_HAL_Driver/Src/stm32g0xx_hal_flash.c **** 
 167:Drivers/STM32G0xx_HAL_Driver/Src/stm32g0xx_hal_flash.c ****   /* Check the parameters */
 168:Drivers/STM32G0xx_HAL_Driver/Src/stm32g0xx_hal_flash.c ****   assert_param(IS_FLASH_TYPEPROGRAM(TypeProgram));
 169:Drivers/STM32G0xx_HAL_Driver/Src/stm32g0xx_hal_flash.c ****   assert_param(IS_FLASH_PROGRAM_ADDRESS(Address));
 170:Drivers/STM32G0xx_HAL_Driver/Src/stm32g0xx_hal_flash.c **** 
 171:Drivers/STM32G0xx_HAL_Driver/Src/stm32g0xx_hal_flash.c ****   /* Process Locked */
 172:Drivers/STM32G0xx_HAL_Driver/Src/stm32g0xx_hal_flash.c ****   __HAL_LOCK(&pFlash);
 173:Drivers/STM32G0xx_HAL_Driver/Src/stm32g0xx_hal_flash.c **** 
 174:Drivers/STM32G0xx_HAL_Driver/Src/stm32g0xx_hal_flash.c ****   /* Reset error code */
 175:Drivers/STM32G0xx_HAL_Driver/Src/stm32g0xx_hal_flash.c ****   pFlash.ErrorCode = HAL_FLASH_ERROR_NONE;
 176:Drivers/STM32G0xx_HAL_Driver/Src/stm32g0xx_hal_flash.c **** 
 177:Drivers/STM32G0xx_HAL_Driver/Src/stm32g0xx_hal_flash.c ****   /* Wait for last operation to be completed */
 178:Drivers/STM32G0xx_HAL_Driver/Src/stm32g0xx_hal_flash.c ****   status = FLASH_WaitForLastOperation(FLASH_TIMEOUT_VALUE);
 179:Drivers/STM32G0xx_HAL_Driver/Src/stm32g0xx_hal_flash.c **** 
 180:Drivers/STM32G0xx_HAL_Driver/Src/stm32g0xx_hal_flash.c ****   if (status == HAL_OK)
 181:Drivers/STM32G0xx_HAL_Driver/Src/stm32g0xx_hal_flash.c ****   {
 182:Drivers/STM32G0xx_HAL_Driver/Src/stm32g0xx_hal_flash.c ****     if (TypeProgram == FLASH_TYPEPROGRAM_DOUBLEWORD)
 183:Drivers/STM32G0xx_HAL_Driver/Src/stm32g0xx_hal_flash.c ****     {
 184:Drivers/STM32G0xx_HAL_Driver/Src/stm32g0xx_hal_flash.c ****       /* Check the parameters */
 185:Drivers/STM32G0xx_HAL_Driver/Src/stm32g0xx_hal_flash.c ****       assert_param(IS_FLASH_PROGRAM_ADDRESS(Address));
 186:Drivers/STM32G0xx_HAL_Driver/Src/stm32g0xx_hal_flash.c **** 
 187:Drivers/STM32G0xx_HAL_Driver/Src/stm32g0xx_hal_flash.c ****       /* Program double-word (64-bit) at a specified address */
 188:Drivers/STM32G0xx_HAL_Driver/Src/stm32g0xx_hal_flash.c ****       FLASH_Program_DoubleWord(Address, Data);
 189:Drivers/STM32G0xx_HAL_Driver/Src/stm32g0xx_hal_flash.c ****     }
 190:Drivers/STM32G0xx_HAL_Driver/Src/stm32g0xx_hal_flash.c ****     else
 191:Drivers/STM32G0xx_HAL_Driver/Src/stm32g0xx_hal_flash.c ****     {
 192:Drivers/STM32G0xx_HAL_Driver/Src/stm32g0xx_hal_flash.c ****       /* Check the parameters */
 193:Drivers/STM32G0xx_HAL_Driver/Src/stm32g0xx_hal_flash.c ****       assert_param(IS_FLASH_FAST_PROGRAM_ADDRESS(Address));
 194:Drivers/STM32G0xx_HAL_Driver/Src/stm32g0xx_hal_flash.c **** 
 195:Drivers/STM32G0xx_HAL_Driver/Src/stm32g0xx_hal_flash.c ****       /* Fast program a 32 row double-word (64-bit) at a specified address */
 196:Drivers/STM32G0xx_HAL_Driver/Src/stm32g0xx_hal_flash.c ****       FLASH_Program_Fast(Address, (uint32_t)Data);
 197:Drivers/STM32G0xx_HAL_Driver/Src/stm32g0xx_hal_flash.c ****     }
 198:Drivers/STM32G0xx_HAL_Driver/Src/stm32g0xx_hal_flash.c **** 
 199:Drivers/STM32G0xx_HAL_Driver/Src/stm32g0xx_hal_flash.c ****     /* Wait for last operation to be completed */
 200:Drivers/STM32G0xx_HAL_Driver/Src/stm32g0xx_hal_flash.c ****     status = FLASH_WaitForLastOperation(FLASH_TIMEOUT_VALUE);
 201:Drivers/STM32G0xx_HAL_Driver/Src/stm32g0xx_hal_flash.c **** 
 202:Drivers/STM32G0xx_HAL_Driver/Src/stm32g0xx_hal_flash.c ****     /* If the program operation is completed, disable the PG or FSTPG Bit */
 203:Drivers/STM32G0xx_HAL_Driver/Src/stm32g0xx_hal_flash.c ****     CLEAR_BIT(FLASH->CR, TypeProgram);
ARM GAS  /var/folders/cw/6cmm0b_n7yj10n1wx8hfx52r0000gn/T//cchk5TpI.s 			page 5


 204:Drivers/STM32G0xx_HAL_Driver/Src/stm32g0xx_hal_flash.c ****   }
 205:Drivers/STM32G0xx_HAL_Driver/Src/stm32g0xx_hal_flash.c **** 
 206:Drivers/STM32G0xx_HAL_Driver/Src/stm32g0xx_hal_flash.c ****   /* Process Unlocked */
 207:Drivers/STM32G0xx_HAL_Driver/Src/stm32g0xx_hal_flash.c ****   __HAL_UNLOCK(&pFlash);
 208:Drivers/STM32G0xx_HAL_Driver/Src/stm32g0xx_hal_flash.c **** 
 209:Drivers/STM32G0xx_HAL_Driver/Src/stm32g0xx_hal_flash.c ****   /* return status */
 210:Drivers/STM32G0xx_HAL_Driver/Src/stm32g0xx_hal_flash.c ****   return status;
 211:Drivers/STM32G0xx_HAL_Driver/Src/stm32g0xx_hal_flash.c **** }
 212:Drivers/STM32G0xx_HAL_Driver/Src/stm32g0xx_hal_flash.c **** 
 213:Drivers/STM32G0xx_HAL_Driver/Src/stm32g0xx_hal_flash.c **** /**
 214:Drivers/STM32G0xx_HAL_Driver/Src/stm32g0xx_hal_flash.c ****   * @brief  Program double word or fast program of a row at a specified address with interrupt enab
 215:Drivers/STM32G0xx_HAL_Driver/Src/stm32g0xx_hal_flash.c ****   * @param  TypeProgram Indicate the way to program at a specified address.
 216:Drivers/STM32G0xx_HAL_Driver/Src/stm32g0xx_hal_flash.c ****   *                      This parameter can be a value of @ref FLASH_Type_Program
 217:Drivers/STM32G0xx_HAL_Driver/Src/stm32g0xx_hal_flash.c ****   * @param  Address Specifies the address to be programmed.
 218:Drivers/STM32G0xx_HAL_Driver/Src/stm32g0xx_hal_flash.c ****   * @param  Data Specifies the data to be programmed
 219:Drivers/STM32G0xx_HAL_Driver/Src/stm32g0xx_hal_flash.c ****   *               This parameter is the data for the double word program and the address where
 220:Drivers/STM32G0xx_HAL_Driver/Src/stm32g0xx_hal_flash.c ****   *               are stored the data for the row fast program.
 221:Drivers/STM32G0xx_HAL_Driver/Src/stm32g0xx_hal_flash.c ****   *
 222:Drivers/STM32G0xx_HAL_Driver/Src/stm32g0xx_hal_flash.c ****   * @retval HAL Status
 223:Drivers/STM32G0xx_HAL_Driver/Src/stm32g0xx_hal_flash.c ****   */
 224:Drivers/STM32G0xx_HAL_Driver/Src/stm32g0xx_hal_flash.c **** HAL_StatusTypeDef HAL_FLASH_Program_IT(uint32_t TypeProgram, uint32_t Address, uint64_t Data)
 225:Drivers/STM32G0xx_HAL_Driver/Src/stm32g0xx_hal_flash.c **** {
 226:Drivers/STM32G0xx_HAL_Driver/Src/stm32g0xx_hal_flash.c ****   HAL_StatusTypeDef status;
 227:Drivers/STM32G0xx_HAL_Driver/Src/stm32g0xx_hal_flash.c **** 
 228:Drivers/STM32G0xx_HAL_Driver/Src/stm32g0xx_hal_flash.c ****   /* Check the parameters */
 229:Drivers/STM32G0xx_HAL_Driver/Src/stm32g0xx_hal_flash.c ****   assert_param(IS_FLASH_TYPEPROGRAM(TypeProgram));
 230:Drivers/STM32G0xx_HAL_Driver/Src/stm32g0xx_hal_flash.c ****   assert_param(IS_FLASH_PROGRAM_ADDRESS(Address));
 231:Drivers/STM32G0xx_HAL_Driver/Src/stm32g0xx_hal_flash.c **** 
 232:Drivers/STM32G0xx_HAL_Driver/Src/stm32g0xx_hal_flash.c ****   /* Process Locked */
 233:Drivers/STM32G0xx_HAL_Driver/Src/stm32g0xx_hal_flash.c ****   __HAL_LOCK(&pFlash);
 234:Drivers/STM32G0xx_HAL_Driver/Src/stm32g0xx_hal_flash.c **** 
 235:Drivers/STM32G0xx_HAL_Driver/Src/stm32g0xx_hal_flash.c ****   /* Reset error code */
 236:Drivers/STM32G0xx_HAL_Driver/Src/stm32g0xx_hal_flash.c ****   pFlash.ErrorCode = HAL_FLASH_ERROR_NONE;
 237:Drivers/STM32G0xx_HAL_Driver/Src/stm32g0xx_hal_flash.c **** 
 238:Drivers/STM32G0xx_HAL_Driver/Src/stm32g0xx_hal_flash.c ****   /* Wait for last operation to be completed */
 239:Drivers/STM32G0xx_HAL_Driver/Src/stm32g0xx_hal_flash.c ****   status = FLASH_WaitForLastOperation(FLASH_TIMEOUT_VALUE);
 240:Drivers/STM32G0xx_HAL_Driver/Src/stm32g0xx_hal_flash.c **** 
 241:Drivers/STM32G0xx_HAL_Driver/Src/stm32g0xx_hal_flash.c ****   if (status != HAL_OK)
 242:Drivers/STM32G0xx_HAL_Driver/Src/stm32g0xx_hal_flash.c ****   {
 243:Drivers/STM32G0xx_HAL_Driver/Src/stm32g0xx_hal_flash.c ****     /* Process Unlocked */
 244:Drivers/STM32G0xx_HAL_Driver/Src/stm32g0xx_hal_flash.c ****     __HAL_UNLOCK(&pFlash);
 245:Drivers/STM32G0xx_HAL_Driver/Src/stm32g0xx_hal_flash.c ****   }
 246:Drivers/STM32G0xx_HAL_Driver/Src/stm32g0xx_hal_flash.c ****   else
 247:Drivers/STM32G0xx_HAL_Driver/Src/stm32g0xx_hal_flash.c ****   {
 248:Drivers/STM32G0xx_HAL_Driver/Src/stm32g0xx_hal_flash.c ****     /* Set internal variables used by the IRQ handler */
 249:Drivers/STM32G0xx_HAL_Driver/Src/stm32g0xx_hal_flash.c ****     pFlash.ProcedureOnGoing = TypeProgram;
 250:Drivers/STM32G0xx_HAL_Driver/Src/stm32g0xx_hal_flash.c ****     pFlash.Address = Address;
 251:Drivers/STM32G0xx_HAL_Driver/Src/stm32g0xx_hal_flash.c **** 
 252:Drivers/STM32G0xx_HAL_Driver/Src/stm32g0xx_hal_flash.c ****     /* Enable End of Operation and Error interrupts */
 253:Drivers/STM32G0xx_HAL_Driver/Src/stm32g0xx_hal_flash.c ****     __HAL_FLASH_ENABLE_IT(FLASH_IT_EOP | FLASH_IT_OPERR | FLASH_IT_ECCC);
 254:Drivers/STM32G0xx_HAL_Driver/Src/stm32g0xx_hal_flash.c **** 
 255:Drivers/STM32G0xx_HAL_Driver/Src/stm32g0xx_hal_flash.c ****     if (TypeProgram == FLASH_TYPEPROGRAM_DOUBLEWORD)
 256:Drivers/STM32G0xx_HAL_Driver/Src/stm32g0xx_hal_flash.c ****     {
 257:Drivers/STM32G0xx_HAL_Driver/Src/stm32g0xx_hal_flash.c ****       /* Check the parameters */
 258:Drivers/STM32G0xx_HAL_Driver/Src/stm32g0xx_hal_flash.c ****       assert_param(IS_FLASH_PROGRAM_ADDRESS(Address));
 259:Drivers/STM32G0xx_HAL_Driver/Src/stm32g0xx_hal_flash.c **** 
 260:Drivers/STM32G0xx_HAL_Driver/Src/stm32g0xx_hal_flash.c ****       /* Program double-word (64-bit) at a specified address */
ARM GAS  /var/folders/cw/6cmm0b_n7yj10n1wx8hfx52r0000gn/T//cchk5TpI.s 			page 6


 261:Drivers/STM32G0xx_HAL_Driver/Src/stm32g0xx_hal_flash.c ****       FLASH_Program_DoubleWord(Address, Data);
 262:Drivers/STM32G0xx_HAL_Driver/Src/stm32g0xx_hal_flash.c ****     }
 263:Drivers/STM32G0xx_HAL_Driver/Src/stm32g0xx_hal_flash.c ****     else
 264:Drivers/STM32G0xx_HAL_Driver/Src/stm32g0xx_hal_flash.c ****     {
 265:Drivers/STM32G0xx_HAL_Driver/Src/stm32g0xx_hal_flash.c ****       /* Check the parameters */
 266:Drivers/STM32G0xx_HAL_Driver/Src/stm32g0xx_hal_flash.c ****       assert_param(IS_FLASH_FAST_PROGRAM_ADDRESS(Address));
 267:Drivers/STM32G0xx_HAL_Driver/Src/stm32g0xx_hal_flash.c **** 
 268:Drivers/STM32G0xx_HAL_Driver/Src/stm32g0xx_hal_flash.c ****       /* Fast program a 32 row double-word (64-bit) at a specified address */
 269:Drivers/STM32G0xx_HAL_Driver/Src/stm32g0xx_hal_flash.c ****       FLASH_Program_Fast(Address, (uint32_t)Data);
 270:Drivers/STM32G0xx_HAL_Driver/Src/stm32g0xx_hal_flash.c ****     }
 271:Drivers/STM32G0xx_HAL_Driver/Src/stm32g0xx_hal_flash.c ****   }
 272:Drivers/STM32G0xx_HAL_Driver/Src/stm32g0xx_hal_flash.c **** 
 273:Drivers/STM32G0xx_HAL_Driver/Src/stm32g0xx_hal_flash.c ****   /* return status */
 274:Drivers/STM32G0xx_HAL_Driver/Src/stm32g0xx_hal_flash.c ****   return status;
 275:Drivers/STM32G0xx_HAL_Driver/Src/stm32g0xx_hal_flash.c **** }
 276:Drivers/STM32G0xx_HAL_Driver/Src/stm32g0xx_hal_flash.c **** 
 277:Drivers/STM32G0xx_HAL_Driver/Src/stm32g0xx_hal_flash.c **** /**
 278:Drivers/STM32G0xx_HAL_Driver/Src/stm32g0xx_hal_flash.c ****   * @brief Handle FLASH interrupt request.
 279:Drivers/STM32G0xx_HAL_Driver/Src/stm32g0xx_hal_flash.c ****   * @retval None
 280:Drivers/STM32G0xx_HAL_Driver/Src/stm32g0xx_hal_flash.c ****   */
 281:Drivers/STM32G0xx_HAL_Driver/Src/stm32g0xx_hal_flash.c **** void HAL_FLASH_IRQHandler(void)
 282:Drivers/STM32G0xx_HAL_Driver/Src/stm32g0xx_hal_flash.c **** {
 283:Drivers/STM32G0xx_HAL_Driver/Src/stm32g0xx_hal_flash.c ****   uint32_t param = 0xFFFFFFFFU;
 284:Drivers/STM32G0xx_HAL_Driver/Src/stm32g0xx_hal_flash.c ****   uint32_t error;
 285:Drivers/STM32G0xx_HAL_Driver/Src/stm32g0xx_hal_flash.c **** 
 286:Drivers/STM32G0xx_HAL_Driver/Src/stm32g0xx_hal_flash.c ****   /* Save flash errors. Only ECC detection can be checked here as ECCC
 287:Drivers/STM32G0xx_HAL_Driver/Src/stm32g0xx_hal_flash.c ****      generates NMI */
 288:Drivers/STM32G0xx_HAL_Driver/Src/stm32g0xx_hal_flash.c ****   error = (FLASH->SR & FLASH_FLAG_SR_ERROR);
 289:Drivers/STM32G0xx_HAL_Driver/Src/stm32g0xx_hal_flash.c ****   error |= (FLASH->ECCR & FLASH_FLAG_ECCC);
 290:Drivers/STM32G0xx_HAL_Driver/Src/stm32g0xx_hal_flash.c **** 
 291:Drivers/STM32G0xx_HAL_Driver/Src/stm32g0xx_hal_flash.c ****   CLEAR_BIT(FLASH->CR, pFlash.ProcedureOnGoing);
 292:Drivers/STM32G0xx_HAL_Driver/Src/stm32g0xx_hal_flash.c **** 
 293:Drivers/STM32G0xx_HAL_Driver/Src/stm32g0xx_hal_flash.c ****   /* A] Set parameter for user or error callbacks */
 294:Drivers/STM32G0xx_HAL_Driver/Src/stm32g0xx_hal_flash.c ****   /* check operation was a program or erase */
 295:Drivers/STM32G0xx_HAL_Driver/Src/stm32g0xx_hal_flash.c ****   if ((pFlash.ProcedureOnGoing & (FLASH_TYPEPROGRAM_DOUBLEWORD | FLASH_TYPEPROGRAM_FAST)) != 0x00U)
 296:Drivers/STM32G0xx_HAL_Driver/Src/stm32g0xx_hal_flash.c ****   {
 297:Drivers/STM32G0xx_HAL_Driver/Src/stm32g0xx_hal_flash.c ****     /* return adress being programmed */
 298:Drivers/STM32G0xx_HAL_Driver/Src/stm32g0xx_hal_flash.c ****     param = pFlash.Address;
 299:Drivers/STM32G0xx_HAL_Driver/Src/stm32g0xx_hal_flash.c ****   }
 300:Drivers/STM32G0xx_HAL_Driver/Src/stm32g0xx_hal_flash.c ****   else if ((pFlash.ProcedureOnGoing & (FLASH_TYPEERASE_MASS | FLASH_TYPEERASE_PAGES)) != 0x00U)
 301:Drivers/STM32G0xx_HAL_Driver/Src/stm32g0xx_hal_flash.c ****   {
 302:Drivers/STM32G0xx_HAL_Driver/Src/stm32g0xx_hal_flash.c ****     /* return page number being erased (0 for mass erase) */
 303:Drivers/STM32G0xx_HAL_Driver/Src/stm32g0xx_hal_flash.c ****     param = pFlash.Page;
 304:Drivers/STM32G0xx_HAL_Driver/Src/stm32g0xx_hal_flash.c ****   }
 305:Drivers/STM32G0xx_HAL_Driver/Src/stm32g0xx_hal_flash.c ****   else
 306:Drivers/STM32G0xx_HAL_Driver/Src/stm32g0xx_hal_flash.c ****   {
 307:Drivers/STM32G0xx_HAL_Driver/Src/stm32g0xx_hal_flash.c ****     /* Nothing to do */
 308:Drivers/STM32G0xx_HAL_Driver/Src/stm32g0xx_hal_flash.c ****   }
 309:Drivers/STM32G0xx_HAL_Driver/Src/stm32g0xx_hal_flash.c **** 
 310:Drivers/STM32G0xx_HAL_Driver/Src/stm32g0xx_hal_flash.c ****   /* B] Check errors */
 311:Drivers/STM32G0xx_HAL_Driver/Src/stm32g0xx_hal_flash.c ****   if (error != 0x00U)
 312:Drivers/STM32G0xx_HAL_Driver/Src/stm32g0xx_hal_flash.c ****   {
 313:Drivers/STM32G0xx_HAL_Driver/Src/stm32g0xx_hal_flash.c ****     /*Save the error code*/
 314:Drivers/STM32G0xx_HAL_Driver/Src/stm32g0xx_hal_flash.c ****     pFlash.ErrorCode |= error;
 315:Drivers/STM32G0xx_HAL_Driver/Src/stm32g0xx_hal_flash.c **** 
 316:Drivers/STM32G0xx_HAL_Driver/Src/stm32g0xx_hal_flash.c ****     /* clear error flags */
 317:Drivers/STM32G0xx_HAL_Driver/Src/stm32g0xx_hal_flash.c ****     __HAL_FLASH_CLEAR_FLAG(error);
ARM GAS  /var/folders/cw/6cmm0b_n7yj10n1wx8hfx52r0000gn/T//cchk5TpI.s 			page 7


 318:Drivers/STM32G0xx_HAL_Driver/Src/stm32g0xx_hal_flash.c **** 
 319:Drivers/STM32G0xx_HAL_Driver/Src/stm32g0xx_hal_flash.c ****     /*Stop the procedure ongoing*/
 320:Drivers/STM32G0xx_HAL_Driver/Src/stm32g0xx_hal_flash.c ****     pFlash.ProcedureOnGoing = FLASH_TYPENONE;
 321:Drivers/STM32G0xx_HAL_Driver/Src/stm32g0xx_hal_flash.c **** 
 322:Drivers/STM32G0xx_HAL_Driver/Src/stm32g0xx_hal_flash.c ****     /* Error callback */
 323:Drivers/STM32G0xx_HAL_Driver/Src/stm32g0xx_hal_flash.c ****     HAL_FLASH_OperationErrorCallback(param);
 324:Drivers/STM32G0xx_HAL_Driver/Src/stm32g0xx_hal_flash.c ****   }
 325:Drivers/STM32G0xx_HAL_Driver/Src/stm32g0xx_hal_flash.c **** 
 326:Drivers/STM32G0xx_HAL_Driver/Src/stm32g0xx_hal_flash.c ****   /* C] Check FLASH End of Operation flag */
 327:Drivers/STM32G0xx_HAL_Driver/Src/stm32g0xx_hal_flash.c ****   if (__HAL_FLASH_GET_FLAG(FLASH_FLAG_EOP) != 0x00U)
 328:Drivers/STM32G0xx_HAL_Driver/Src/stm32g0xx_hal_flash.c ****   {
 329:Drivers/STM32G0xx_HAL_Driver/Src/stm32g0xx_hal_flash.c ****     /* Clear FLASH End of Operation pending bit */
 330:Drivers/STM32G0xx_HAL_Driver/Src/stm32g0xx_hal_flash.c ****     __HAL_FLASH_CLEAR_FLAG(FLASH_FLAG_EOP);
 331:Drivers/STM32G0xx_HAL_Driver/Src/stm32g0xx_hal_flash.c **** 
 332:Drivers/STM32G0xx_HAL_Driver/Src/stm32g0xx_hal_flash.c ****     if (pFlash.ProcedureOnGoing == FLASH_TYPEERASE_PAGES)
 333:Drivers/STM32G0xx_HAL_Driver/Src/stm32g0xx_hal_flash.c ****     {
 334:Drivers/STM32G0xx_HAL_Driver/Src/stm32g0xx_hal_flash.c ****       /* Nb of pages to erased can be decreased */
 335:Drivers/STM32G0xx_HAL_Driver/Src/stm32g0xx_hal_flash.c ****       pFlash.NbPagesToErase--;
 336:Drivers/STM32G0xx_HAL_Driver/Src/stm32g0xx_hal_flash.c **** 
 337:Drivers/STM32G0xx_HAL_Driver/Src/stm32g0xx_hal_flash.c ****       /* Check if there are still pages to erase*/
 338:Drivers/STM32G0xx_HAL_Driver/Src/stm32g0xx_hal_flash.c ****       if (pFlash.NbPagesToErase != 0x00U)
 339:Drivers/STM32G0xx_HAL_Driver/Src/stm32g0xx_hal_flash.c ****       {
 340:Drivers/STM32G0xx_HAL_Driver/Src/stm32g0xx_hal_flash.c ****         /* Increment page number */
 341:Drivers/STM32G0xx_HAL_Driver/Src/stm32g0xx_hal_flash.c ****         pFlash.Page++;
 342:Drivers/STM32G0xx_HAL_Driver/Src/stm32g0xx_hal_flash.c ****         FLASH_PageErase(pFlash.Page);
 343:Drivers/STM32G0xx_HAL_Driver/Src/stm32g0xx_hal_flash.c ****       }
 344:Drivers/STM32G0xx_HAL_Driver/Src/stm32g0xx_hal_flash.c ****       else
 345:Drivers/STM32G0xx_HAL_Driver/Src/stm32g0xx_hal_flash.c ****       {
 346:Drivers/STM32G0xx_HAL_Driver/Src/stm32g0xx_hal_flash.c ****         /* No more pages to erase: stop erase pages procedure */
 347:Drivers/STM32G0xx_HAL_Driver/Src/stm32g0xx_hal_flash.c ****         pFlash.ProcedureOnGoing = FLASH_TYPENONE;
 348:Drivers/STM32G0xx_HAL_Driver/Src/stm32g0xx_hal_flash.c ****       }
 349:Drivers/STM32G0xx_HAL_Driver/Src/stm32g0xx_hal_flash.c ****     }
 350:Drivers/STM32G0xx_HAL_Driver/Src/stm32g0xx_hal_flash.c ****     else
 351:Drivers/STM32G0xx_HAL_Driver/Src/stm32g0xx_hal_flash.c ****     {
 352:Drivers/STM32G0xx_HAL_Driver/Src/stm32g0xx_hal_flash.c ****       /*Stop the ongoing procedure */
 353:Drivers/STM32G0xx_HAL_Driver/Src/stm32g0xx_hal_flash.c ****       pFlash.ProcedureOnGoing = FLASH_TYPENONE;
 354:Drivers/STM32G0xx_HAL_Driver/Src/stm32g0xx_hal_flash.c ****     }
 355:Drivers/STM32G0xx_HAL_Driver/Src/stm32g0xx_hal_flash.c **** 
 356:Drivers/STM32G0xx_HAL_Driver/Src/stm32g0xx_hal_flash.c ****     /* User callback */
 357:Drivers/STM32G0xx_HAL_Driver/Src/stm32g0xx_hal_flash.c ****     HAL_FLASH_EndOfOperationCallback(param);
 358:Drivers/STM32G0xx_HAL_Driver/Src/stm32g0xx_hal_flash.c ****   }
 359:Drivers/STM32G0xx_HAL_Driver/Src/stm32g0xx_hal_flash.c **** 
 360:Drivers/STM32G0xx_HAL_Driver/Src/stm32g0xx_hal_flash.c ****   if (pFlash.ProcedureOnGoing == FLASH_TYPENONE)
 361:Drivers/STM32G0xx_HAL_Driver/Src/stm32g0xx_hal_flash.c ****   {
 362:Drivers/STM32G0xx_HAL_Driver/Src/stm32g0xx_hal_flash.c ****     /* Disable End of Operation and Error interrupts */
 363:Drivers/STM32G0xx_HAL_Driver/Src/stm32g0xx_hal_flash.c ****     __HAL_FLASH_DISABLE_IT(FLASH_IT_EOP | FLASH_IT_OPERR | FLASH_IT_ECCC);
 364:Drivers/STM32G0xx_HAL_Driver/Src/stm32g0xx_hal_flash.c **** 
 365:Drivers/STM32G0xx_HAL_Driver/Src/stm32g0xx_hal_flash.c ****     /* Process Unlocked */
 366:Drivers/STM32G0xx_HAL_Driver/Src/stm32g0xx_hal_flash.c ****     __HAL_UNLOCK(&pFlash);
 367:Drivers/STM32G0xx_HAL_Driver/Src/stm32g0xx_hal_flash.c ****   }
 368:Drivers/STM32G0xx_HAL_Driver/Src/stm32g0xx_hal_flash.c **** }
 369:Drivers/STM32G0xx_HAL_Driver/Src/stm32g0xx_hal_flash.c **** 
 370:Drivers/STM32G0xx_HAL_Driver/Src/stm32g0xx_hal_flash.c **** /**
 371:Drivers/STM32G0xx_HAL_Driver/Src/stm32g0xx_hal_flash.c ****   * @brief  FLASH end of operation interrupt callback.
 372:Drivers/STM32G0xx_HAL_Driver/Src/stm32g0xx_hal_flash.c ****   * @param  ReturnValue The value saved in this parameter depends on the ongoing procedure
 373:Drivers/STM32G0xx_HAL_Driver/Src/stm32g0xx_hal_flash.c ****   *                  Mass Erase: 0
 374:Drivers/STM32G0xx_HAL_Driver/Src/stm32g0xx_hal_flash.c ****   *                  Page Erase: Page which has been erased
ARM GAS  /var/folders/cw/6cmm0b_n7yj10n1wx8hfx52r0000gn/T//cchk5TpI.s 			page 8


 375:Drivers/STM32G0xx_HAL_Driver/Src/stm32g0xx_hal_flash.c ****   *                  Program: Address which was selected for data program
 376:Drivers/STM32G0xx_HAL_Driver/Src/stm32g0xx_hal_flash.c ****   * @retval None
 377:Drivers/STM32G0xx_HAL_Driver/Src/stm32g0xx_hal_flash.c ****   */
 378:Drivers/STM32G0xx_HAL_Driver/Src/stm32g0xx_hal_flash.c **** __weak void HAL_FLASH_EndOfOperationCallback(uint32_t ReturnValue)
 379:Drivers/STM32G0xx_HAL_Driver/Src/stm32g0xx_hal_flash.c **** {
 380:Drivers/STM32G0xx_HAL_Driver/Src/stm32g0xx_hal_flash.c ****   /* Prevent unused argument(s) compilation warning */
 381:Drivers/STM32G0xx_HAL_Driver/Src/stm32g0xx_hal_flash.c ****   UNUSED(ReturnValue);
 382:Drivers/STM32G0xx_HAL_Driver/Src/stm32g0xx_hal_flash.c **** 
 383:Drivers/STM32G0xx_HAL_Driver/Src/stm32g0xx_hal_flash.c ****   /* NOTE : This function should not be modified, when the callback is needed,
 384:Drivers/STM32G0xx_HAL_Driver/Src/stm32g0xx_hal_flash.c ****             the HAL_FLASH_EndOfOperationCallback could be implemented in the user file
 385:Drivers/STM32G0xx_HAL_Driver/Src/stm32g0xx_hal_flash.c ****    */
 386:Drivers/STM32G0xx_HAL_Driver/Src/stm32g0xx_hal_flash.c **** }
 387:Drivers/STM32G0xx_HAL_Driver/Src/stm32g0xx_hal_flash.c **** 
 388:Drivers/STM32G0xx_HAL_Driver/Src/stm32g0xx_hal_flash.c **** /**
 389:Drivers/STM32G0xx_HAL_Driver/Src/stm32g0xx_hal_flash.c ****   * @brief  FLASH operation error interrupt callback.
 390:Drivers/STM32G0xx_HAL_Driver/Src/stm32g0xx_hal_flash.c ****   * @param  ReturnValue The value saved in this parameter depends on the ongoing procedure
 391:Drivers/STM32G0xx_HAL_Driver/Src/stm32g0xx_hal_flash.c ****   *                 Mass Erase: 0
 392:Drivers/STM32G0xx_HAL_Driver/Src/stm32g0xx_hal_flash.c ****   *                 Page Erase: Page number which returned an error
 393:Drivers/STM32G0xx_HAL_Driver/Src/stm32g0xx_hal_flash.c ****   *                 Program: Address which was selected for data program
 394:Drivers/STM32G0xx_HAL_Driver/Src/stm32g0xx_hal_flash.c ****   * @retval None
 395:Drivers/STM32G0xx_HAL_Driver/Src/stm32g0xx_hal_flash.c ****   */
 396:Drivers/STM32G0xx_HAL_Driver/Src/stm32g0xx_hal_flash.c **** __weak void HAL_FLASH_OperationErrorCallback(uint32_t ReturnValue)
 397:Drivers/STM32G0xx_HAL_Driver/Src/stm32g0xx_hal_flash.c **** {
 398:Drivers/STM32G0xx_HAL_Driver/Src/stm32g0xx_hal_flash.c ****   /* Prevent unused argument(s) compilation warning */
 399:Drivers/STM32G0xx_HAL_Driver/Src/stm32g0xx_hal_flash.c ****   UNUSED(ReturnValue);
 400:Drivers/STM32G0xx_HAL_Driver/Src/stm32g0xx_hal_flash.c **** 
 401:Drivers/STM32G0xx_HAL_Driver/Src/stm32g0xx_hal_flash.c ****   /* NOTE : This function should not be modified, when the callback is needed,
 402:Drivers/STM32G0xx_HAL_Driver/Src/stm32g0xx_hal_flash.c ****             the HAL_FLASH_OperationErrorCallback could be implemented in the user file
 403:Drivers/STM32G0xx_HAL_Driver/Src/stm32g0xx_hal_flash.c ****    */
 404:Drivers/STM32G0xx_HAL_Driver/Src/stm32g0xx_hal_flash.c **** }
 405:Drivers/STM32G0xx_HAL_Driver/Src/stm32g0xx_hal_flash.c **** 
 406:Drivers/STM32G0xx_HAL_Driver/Src/stm32g0xx_hal_flash.c **** /**
 407:Drivers/STM32G0xx_HAL_Driver/Src/stm32g0xx_hal_flash.c ****   * @}
 408:Drivers/STM32G0xx_HAL_Driver/Src/stm32g0xx_hal_flash.c ****   */
 409:Drivers/STM32G0xx_HAL_Driver/Src/stm32g0xx_hal_flash.c **** 
 410:Drivers/STM32G0xx_HAL_Driver/Src/stm32g0xx_hal_flash.c **** /** @defgroup FLASH_Exported_Functions_Group2 Peripheral Control functions
 411:Drivers/STM32G0xx_HAL_Driver/Src/stm32g0xx_hal_flash.c ****  *  @brief   Management functions
 412:Drivers/STM32G0xx_HAL_Driver/Src/stm32g0xx_hal_flash.c ****  *
 413:Drivers/STM32G0xx_HAL_Driver/Src/stm32g0xx_hal_flash.c **** @verbatim
 414:Drivers/STM32G0xx_HAL_Driver/Src/stm32g0xx_hal_flash.c ****  ===============================================================================
 415:Drivers/STM32G0xx_HAL_Driver/Src/stm32g0xx_hal_flash.c ****                       ##### Peripheral Control functions #####
 416:Drivers/STM32G0xx_HAL_Driver/Src/stm32g0xx_hal_flash.c ****  ===============================================================================
 417:Drivers/STM32G0xx_HAL_Driver/Src/stm32g0xx_hal_flash.c ****     [..]
 418:Drivers/STM32G0xx_HAL_Driver/Src/stm32g0xx_hal_flash.c ****     This subsection provides a set of functions allowing to control the FLASH
 419:Drivers/STM32G0xx_HAL_Driver/Src/stm32g0xx_hal_flash.c ****     memory operations.
 420:Drivers/STM32G0xx_HAL_Driver/Src/stm32g0xx_hal_flash.c **** 
 421:Drivers/STM32G0xx_HAL_Driver/Src/stm32g0xx_hal_flash.c **** @endverbatim
 422:Drivers/STM32G0xx_HAL_Driver/Src/stm32g0xx_hal_flash.c ****   * @{
 423:Drivers/STM32G0xx_HAL_Driver/Src/stm32g0xx_hal_flash.c ****   */
 424:Drivers/STM32G0xx_HAL_Driver/Src/stm32g0xx_hal_flash.c **** 
 425:Drivers/STM32G0xx_HAL_Driver/Src/stm32g0xx_hal_flash.c **** /**
 426:Drivers/STM32G0xx_HAL_Driver/Src/stm32g0xx_hal_flash.c ****   * @brief  Unlock the FLASH control register access.
 427:Drivers/STM32G0xx_HAL_Driver/Src/stm32g0xx_hal_flash.c ****   * @retval HAL Status
 428:Drivers/STM32G0xx_HAL_Driver/Src/stm32g0xx_hal_flash.c ****   */
 429:Drivers/STM32G0xx_HAL_Driver/Src/stm32g0xx_hal_flash.c **** HAL_StatusTypeDef HAL_FLASH_Unlock(void)
 430:Drivers/STM32G0xx_HAL_Driver/Src/stm32g0xx_hal_flash.c **** {
 431:Drivers/STM32G0xx_HAL_Driver/Src/stm32g0xx_hal_flash.c ****   HAL_StatusTypeDef status = HAL_OK;
ARM GAS  /var/folders/cw/6cmm0b_n7yj10n1wx8hfx52r0000gn/T//cchk5TpI.s 			page 9


 432:Drivers/STM32G0xx_HAL_Driver/Src/stm32g0xx_hal_flash.c **** 
 433:Drivers/STM32G0xx_HAL_Driver/Src/stm32g0xx_hal_flash.c ****   if (READ_BIT(FLASH->CR, FLASH_CR_LOCK) != 0x00U)
 434:Drivers/STM32G0xx_HAL_Driver/Src/stm32g0xx_hal_flash.c ****   {
 435:Drivers/STM32G0xx_HAL_Driver/Src/stm32g0xx_hal_flash.c ****     /* Authorize the FLASH Registers access */
 436:Drivers/STM32G0xx_HAL_Driver/Src/stm32g0xx_hal_flash.c ****     WRITE_REG(FLASH->KEYR, FLASH_KEY1);
 437:Drivers/STM32G0xx_HAL_Driver/Src/stm32g0xx_hal_flash.c ****     WRITE_REG(FLASH->KEYR, FLASH_KEY2);
 438:Drivers/STM32G0xx_HAL_Driver/Src/stm32g0xx_hal_flash.c **** 
 439:Drivers/STM32G0xx_HAL_Driver/Src/stm32g0xx_hal_flash.c ****     /* verify Flash is unlock */
 440:Drivers/STM32G0xx_HAL_Driver/Src/stm32g0xx_hal_flash.c ****     if (READ_BIT(FLASH->CR, FLASH_CR_LOCK) != 0x00U)
 441:Drivers/STM32G0xx_HAL_Driver/Src/stm32g0xx_hal_flash.c ****     {
 442:Drivers/STM32G0xx_HAL_Driver/Src/stm32g0xx_hal_flash.c ****       status = HAL_ERROR;
 443:Drivers/STM32G0xx_HAL_Driver/Src/stm32g0xx_hal_flash.c ****     }
 444:Drivers/STM32G0xx_HAL_Driver/Src/stm32g0xx_hal_flash.c ****   }
 445:Drivers/STM32G0xx_HAL_Driver/Src/stm32g0xx_hal_flash.c **** 
 446:Drivers/STM32G0xx_HAL_Driver/Src/stm32g0xx_hal_flash.c ****   return status;
 447:Drivers/STM32G0xx_HAL_Driver/Src/stm32g0xx_hal_flash.c **** }
 448:Drivers/STM32G0xx_HAL_Driver/Src/stm32g0xx_hal_flash.c **** 
 449:Drivers/STM32G0xx_HAL_Driver/Src/stm32g0xx_hal_flash.c **** /**
 450:Drivers/STM32G0xx_HAL_Driver/Src/stm32g0xx_hal_flash.c ****   * @brief  Lock the FLASH control register access.
 451:Drivers/STM32G0xx_HAL_Driver/Src/stm32g0xx_hal_flash.c ****   * @retval HAL Status
 452:Drivers/STM32G0xx_HAL_Driver/Src/stm32g0xx_hal_flash.c ****   */
 453:Drivers/STM32G0xx_HAL_Driver/Src/stm32g0xx_hal_flash.c **** HAL_StatusTypeDef HAL_FLASH_Lock(void)
 454:Drivers/STM32G0xx_HAL_Driver/Src/stm32g0xx_hal_flash.c **** {
 455:Drivers/STM32G0xx_HAL_Driver/Src/stm32g0xx_hal_flash.c ****   HAL_StatusTypeDef status = HAL_ERROR;
 456:Drivers/STM32G0xx_HAL_Driver/Src/stm32g0xx_hal_flash.c **** 
 457:Drivers/STM32G0xx_HAL_Driver/Src/stm32g0xx_hal_flash.c ****   /* Set the LOCK Bit to lock the FLASH Registers access */
 458:Drivers/STM32G0xx_HAL_Driver/Src/stm32g0xx_hal_flash.c ****   SET_BIT(FLASH->CR, FLASH_CR_LOCK);
 459:Drivers/STM32G0xx_HAL_Driver/Src/stm32g0xx_hal_flash.c **** 
 460:Drivers/STM32G0xx_HAL_Driver/Src/stm32g0xx_hal_flash.c ****   /* verify Flash is locked */
 461:Drivers/STM32G0xx_HAL_Driver/Src/stm32g0xx_hal_flash.c ****   if (READ_BIT(FLASH->CR, FLASH_CR_LOCK) != 0x00u)
 462:Drivers/STM32G0xx_HAL_Driver/Src/stm32g0xx_hal_flash.c ****   {
 463:Drivers/STM32G0xx_HAL_Driver/Src/stm32g0xx_hal_flash.c ****     status = HAL_OK;
 464:Drivers/STM32G0xx_HAL_Driver/Src/stm32g0xx_hal_flash.c ****   }
 465:Drivers/STM32G0xx_HAL_Driver/Src/stm32g0xx_hal_flash.c **** 
 466:Drivers/STM32G0xx_HAL_Driver/Src/stm32g0xx_hal_flash.c ****   return status;
 467:Drivers/STM32G0xx_HAL_Driver/Src/stm32g0xx_hal_flash.c **** }
 468:Drivers/STM32G0xx_HAL_Driver/Src/stm32g0xx_hal_flash.c **** 
 469:Drivers/STM32G0xx_HAL_Driver/Src/stm32g0xx_hal_flash.c **** /**
 470:Drivers/STM32G0xx_HAL_Driver/Src/stm32g0xx_hal_flash.c ****   * @brief  Unlock the FLASH Option Bytes Registers access.
 471:Drivers/STM32G0xx_HAL_Driver/Src/stm32g0xx_hal_flash.c ****   * @retval HAL Status
 472:Drivers/STM32G0xx_HAL_Driver/Src/stm32g0xx_hal_flash.c ****   */
 473:Drivers/STM32G0xx_HAL_Driver/Src/stm32g0xx_hal_flash.c **** HAL_StatusTypeDef HAL_FLASH_OB_Unlock(void)
 474:Drivers/STM32G0xx_HAL_Driver/Src/stm32g0xx_hal_flash.c **** {
 475:Drivers/STM32G0xx_HAL_Driver/Src/stm32g0xx_hal_flash.c ****   HAL_StatusTypeDef status = HAL_ERROR;
 476:Drivers/STM32G0xx_HAL_Driver/Src/stm32g0xx_hal_flash.c **** 
 477:Drivers/STM32G0xx_HAL_Driver/Src/stm32g0xx_hal_flash.c ****   if (READ_BIT(FLASH->CR, FLASH_CR_OPTLOCK) != 0x00U)
 478:Drivers/STM32G0xx_HAL_Driver/Src/stm32g0xx_hal_flash.c ****   {
 479:Drivers/STM32G0xx_HAL_Driver/Src/stm32g0xx_hal_flash.c ****     /* Authorizes the Option Byte register programming */
 480:Drivers/STM32G0xx_HAL_Driver/Src/stm32g0xx_hal_flash.c ****     WRITE_REG(FLASH->OPTKEYR, FLASH_OPTKEY1);
 481:Drivers/STM32G0xx_HAL_Driver/Src/stm32g0xx_hal_flash.c ****     WRITE_REG(FLASH->OPTKEYR, FLASH_OPTKEY2);
 482:Drivers/STM32G0xx_HAL_Driver/Src/stm32g0xx_hal_flash.c **** 
 483:Drivers/STM32G0xx_HAL_Driver/Src/stm32g0xx_hal_flash.c ****     /* verify option bytes are unlocked */
 484:Drivers/STM32G0xx_HAL_Driver/Src/stm32g0xx_hal_flash.c ****     if (READ_BIT(FLASH->CR, FLASH_CR_OPTLOCK) == 0x00U)
 485:Drivers/STM32G0xx_HAL_Driver/Src/stm32g0xx_hal_flash.c ****     {
 486:Drivers/STM32G0xx_HAL_Driver/Src/stm32g0xx_hal_flash.c ****       status = HAL_OK;
 487:Drivers/STM32G0xx_HAL_Driver/Src/stm32g0xx_hal_flash.c ****     }
 488:Drivers/STM32G0xx_HAL_Driver/Src/stm32g0xx_hal_flash.c ****   }
ARM GAS  /var/folders/cw/6cmm0b_n7yj10n1wx8hfx52r0000gn/T//cchk5TpI.s 			page 10


 489:Drivers/STM32G0xx_HAL_Driver/Src/stm32g0xx_hal_flash.c **** 
 490:Drivers/STM32G0xx_HAL_Driver/Src/stm32g0xx_hal_flash.c ****   return status;
 491:Drivers/STM32G0xx_HAL_Driver/Src/stm32g0xx_hal_flash.c **** }
 492:Drivers/STM32G0xx_HAL_Driver/Src/stm32g0xx_hal_flash.c **** 
 493:Drivers/STM32G0xx_HAL_Driver/Src/stm32g0xx_hal_flash.c **** /**
 494:Drivers/STM32G0xx_HAL_Driver/Src/stm32g0xx_hal_flash.c ****   * @brief  Lock the FLASH Option Bytes Registers access.
 495:Drivers/STM32G0xx_HAL_Driver/Src/stm32g0xx_hal_flash.c ****   * @retval HAL Status
 496:Drivers/STM32G0xx_HAL_Driver/Src/stm32g0xx_hal_flash.c ****   */
 497:Drivers/STM32G0xx_HAL_Driver/Src/stm32g0xx_hal_flash.c **** HAL_StatusTypeDef HAL_FLASH_OB_Lock(void)
 498:Drivers/STM32G0xx_HAL_Driver/Src/stm32g0xx_hal_flash.c **** {
 499:Drivers/STM32G0xx_HAL_Driver/Src/stm32g0xx_hal_flash.c ****   HAL_StatusTypeDef status = HAL_ERROR;
 500:Drivers/STM32G0xx_HAL_Driver/Src/stm32g0xx_hal_flash.c **** 
 501:Drivers/STM32G0xx_HAL_Driver/Src/stm32g0xx_hal_flash.c ****   /* Set the OPTLOCK Bit to lock the FLASH Option Byte Registers access */
 502:Drivers/STM32G0xx_HAL_Driver/Src/stm32g0xx_hal_flash.c ****   SET_BIT(FLASH->CR, FLASH_CR_OPTLOCK);
 503:Drivers/STM32G0xx_HAL_Driver/Src/stm32g0xx_hal_flash.c **** 
 504:Drivers/STM32G0xx_HAL_Driver/Src/stm32g0xx_hal_flash.c ****   /* verify option bytes are locked */
 505:Drivers/STM32G0xx_HAL_Driver/Src/stm32g0xx_hal_flash.c ****   if (READ_BIT(FLASH->CR, FLASH_CR_OPTLOCK) != 0x00u)
 506:Drivers/STM32G0xx_HAL_Driver/Src/stm32g0xx_hal_flash.c ****   {
 507:Drivers/STM32G0xx_HAL_Driver/Src/stm32g0xx_hal_flash.c ****     status = HAL_OK;
 508:Drivers/STM32G0xx_HAL_Driver/Src/stm32g0xx_hal_flash.c ****   }
 509:Drivers/STM32G0xx_HAL_Driver/Src/stm32g0xx_hal_flash.c **** 
 510:Drivers/STM32G0xx_HAL_Driver/Src/stm32g0xx_hal_flash.c ****   return status;
 511:Drivers/STM32G0xx_HAL_Driver/Src/stm32g0xx_hal_flash.c **** }
 512:Drivers/STM32G0xx_HAL_Driver/Src/stm32g0xx_hal_flash.c **** 
 513:Drivers/STM32G0xx_HAL_Driver/Src/stm32g0xx_hal_flash.c **** /**
 514:Drivers/STM32G0xx_HAL_Driver/Src/stm32g0xx_hal_flash.c ****   * @brief  Launch the option byte loading.
 515:Drivers/STM32G0xx_HAL_Driver/Src/stm32g0xx_hal_flash.c ****   * @retval HAL Status
 516:Drivers/STM32G0xx_HAL_Driver/Src/stm32g0xx_hal_flash.c ****   */
 517:Drivers/STM32G0xx_HAL_Driver/Src/stm32g0xx_hal_flash.c **** HAL_StatusTypeDef HAL_FLASH_OB_Launch(void)
 518:Drivers/STM32G0xx_HAL_Driver/Src/stm32g0xx_hal_flash.c **** {
 519:Drivers/STM32G0xx_HAL_Driver/Src/stm32g0xx_hal_flash.c ****   /* Set the bit to force the option byte reloading */
 520:Drivers/STM32G0xx_HAL_Driver/Src/stm32g0xx_hal_flash.c ****   SET_BIT(FLASH->CR, FLASH_CR_OBL_LAUNCH);
 521:Drivers/STM32G0xx_HAL_Driver/Src/stm32g0xx_hal_flash.c **** 
 522:Drivers/STM32G0xx_HAL_Driver/Src/stm32g0xx_hal_flash.c ****   /* We should not reach here : Option byte launch generates Option byte reset
 523:Drivers/STM32G0xx_HAL_Driver/Src/stm32g0xx_hal_flash.c ****      so return error */
 524:Drivers/STM32G0xx_HAL_Driver/Src/stm32g0xx_hal_flash.c ****   return HAL_ERROR;
 525:Drivers/STM32G0xx_HAL_Driver/Src/stm32g0xx_hal_flash.c **** }
 526:Drivers/STM32G0xx_HAL_Driver/Src/stm32g0xx_hal_flash.c **** 
 527:Drivers/STM32G0xx_HAL_Driver/Src/stm32g0xx_hal_flash.c **** /**
 528:Drivers/STM32G0xx_HAL_Driver/Src/stm32g0xx_hal_flash.c ****   * @}
 529:Drivers/STM32G0xx_HAL_Driver/Src/stm32g0xx_hal_flash.c ****   */
 530:Drivers/STM32G0xx_HAL_Driver/Src/stm32g0xx_hal_flash.c **** 
 531:Drivers/STM32G0xx_HAL_Driver/Src/stm32g0xx_hal_flash.c **** /** @defgroup FLASH_Exported_Functions_Group3 Peripheral State and Errors functions
 532:Drivers/STM32G0xx_HAL_Driver/Src/stm32g0xx_hal_flash.c ****  *  @brief   Peripheral Errors functions
 533:Drivers/STM32G0xx_HAL_Driver/Src/stm32g0xx_hal_flash.c ****  *
 534:Drivers/STM32G0xx_HAL_Driver/Src/stm32g0xx_hal_flash.c **** @verbatim
 535:Drivers/STM32G0xx_HAL_Driver/Src/stm32g0xx_hal_flash.c ****  ===============================================================================
 536:Drivers/STM32G0xx_HAL_Driver/Src/stm32g0xx_hal_flash.c ****                 ##### Peripheral Errors functions #####
 537:Drivers/STM32G0xx_HAL_Driver/Src/stm32g0xx_hal_flash.c ****  ===============================================================================
 538:Drivers/STM32G0xx_HAL_Driver/Src/stm32g0xx_hal_flash.c ****     [..]
 539:Drivers/STM32G0xx_HAL_Driver/Src/stm32g0xx_hal_flash.c ****     This subsection permits to get in run-time Errors of the FLASH peripheral.
 540:Drivers/STM32G0xx_HAL_Driver/Src/stm32g0xx_hal_flash.c **** 
 541:Drivers/STM32G0xx_HAL_Driver/Src/stm32g0xx_hal_flash.c **** @endverbatim
 542:Drivers/STM32G0xx_HAL_Driver/Src/stm32g0xx_hal_flash.c ****   * @{
 543:Drivers/STM32G0xx_HAL_Driver/Src/stm32g0xx_hal_flash.c ****   */
 544:Drivers/STM32G0xx_HAL_Driver/Src/stm32g0xx_hal_flash.c **** 
 545:Drivers/STM32G0xx_HAL_Driver/Src/stm32g0xx_hal_flash.c **** /**
ARM GAS  /var/folders/cw/6cmm0b_n7yj10n1wx8hfx52r0000gn/T//cchk5TpI.s 			page 11


 546:Drivers/STM32G0xx_HAL_Driver/Src/stm32g0xx_hal_flash.c ****   * @brief  Get the specific FLASH error flag.
 547:Drivers/STM32G0xx_HAL_Driver/Src/stm32g0xx_hal_flash.c ****   * @retval FLASH_ErrorCode The returned value can be
 548:Drivers/STM32G0xx_HAL_Driver/Src/stm32g0xx_hal_flash.c ****   *            @arg @ref HAL_FLASH_ERROR_NONE No error set
 549:Drivers/STM32G0xx_HAL_Driver/Src/stm32g0xx_hal_flash.c ****   *            @arg @ref HAL_FLASH_ERROR_OP FLASH Operation error
 550:Drivers/STM32G0xx_HAL_Driver/Src/stm32g0xx_hal_flash.c ****   *            @arg @ref HAL_FLASH_ERROR_PROG FLASH Programming error
 551:Drivers/STM32G0xx_HAL_Driver/Src/stm32g0xx_hal_flash.c ****   *            @arg @ref HAL_FLASH_ERROR_WRP FLASH Write protection error
 552:Drivers/STM32G0xx_HAL_Driver/Src/stm32g0xx_hal_flash.c ****   *            @arg @ref HAL_FLASH_ERROR_PGA FLASH Programming alignment error
 553:Drivers/STM32G0xx_HAL_Driver/Src/stm32g0xx_hal_flash.c ****   *            @arg @ref HAL_FLASH_ERROR_SIZ FLASH Size error
 554:Drivers/STM32G0xx_HAL_Driver/Src/stm32g0xx_hal_flash.c ****   *            @arg @ref HAL_FLASH_ERROR_PGS FLASH Programming sequence error
 555:Drivers/STM32G0xx_HAL_Driver/Src/stm32g0xx_hal_flash.c ****   *            @arg @ref HAL_FLASH_ERROR_MIS FLASH Fast programming data miss error
 556:Drivers/STM32G0xx_HAL_Driver/Src/stm32g0xx_hal_flash.c ****   *            @arg @ref HAL_FLASH_ERROR_FAST FLASH Fast programming error
 557:Drivers/STM32G0xx_HAL_Driver/Src/stm32g0xx_hal_flash.c ****   *            @arg @ref HAL_FLASH_ERROR_RD FLASH Read Protection error (PCROP)(*)
 558:Drivers/STM32G0xx_HAL_Driver/Src/stm32g0xx_hal_flash.c ****   *            @arg @ref HAL_FLASH_ERROR_OPTV FLASH Option validity error
 559:Drivers/STM32G0xx_HAL_Driver/Src/stm32g0xx_hal_flash.c ****   *            @arg @ref HAL_FLASH_ERROR_ECCD FLASH two ECC errors have been detected
 560:Drivers/STM32G0xx_HAL_Driver/Src/stm32g0xx_hal_flash.c ****   * @note (*) availability depends on devices
 561:Drivers/STM32G0xx_HAL_Driver/Src/stm32g0xx_hal_flash.c ****   */
 562:Drivers/STM32G0xx_HAL_Driver/Src/stm32g0xx_hal_flash.c **** uint32_t HAL_FLASH_GetError(void)
 563:Drivers/STM32G0xx_HAL_Driver/Src/stm32g0xx_hal_flash.c **** {
 564:Drivers/STM32G0xx_HAL_Driver/Src/stm32g0xx_hal_flash.c ****   return pFlash.ErrorCode;
 565:Drivers/STM32G0xx_HAL_Driver/Src/stm32g0xx_hal_flash.c **** }
 566:Drivers/STM32G0xx_HAL_Driver/Src/stm32g0xx_hal_flash.c **** 
 567:Drivers/STM32G0xx_HAL_Driver/Src/stm32g0xx_hal_flash.c **** /**
 568:Drivers/STM32G0xx_HAL_Driver/Src/stm32g0xx_hal_flash.c ****   * @}
 569:Drivers/STM32G0xx_HAL_Driver/Src/stm32g0xx_hal_flash.c ****   */
 570:Drivers/STM32G0xx_HAL_Driver/Src/stm32g0xx_hal_flash.c **** 
 571:Drivers/STM32G0xx_HAL_Driver/Src/stm32g0xx_hal_flash.c **** /**
 572:Drivers/STM32G0xx_HAL_Driver/Src/stm32g0xx_hal_flash.c ****   * @}
 573:Drivers/STM32G0xx_HAL_Driver/Src/stm32g0xx_hal_flash.c ****   */
 574:Drivers/STM32G0xx_HAL_Driver/Src/stm32g0xx_hal_flash.c **** 
 575:Drivers/STM32G0xx_HAL_Driver/Src/stm32g0xx_hal_flash.c **** /* Private functions ---------------------------------------------------------*/
 576:Drivers/STM32G0xx_HAL_Driver/Src/stm32g0xx_hal_flash.c **** 
 577:Drivers/STM32G0xx_HAL_Driver/Src/stm32g0xx_hal_flash.c **** /** @addtogroup FLASH_Private_Functions
 578:Drivers/STM32G0xx_HAL_Driver/Src/stm32g0xx_hal_flash.c ****   * @{
 579:Drivers/STM32G0xx_HAL_Driver/Src/stm32g0xx_hal_flash.c ****   */
 580:Drivers/STM32G0xx_HAL_Driver/Src/stm32g0xx_hal_flash.c **** 
 581:Drivers/STM32G0xx_HAL_Driver/Src/stm32g0xx_hal_flash.c **** /**
 582:Drivers/STM32G0xx_HAL_Driver/Src/stm32g0xx_hal_flash.c ****   * @brief  Wait for a FLASH operation to complete.
 583:Drivers/STM32G0xx_HAL_Driver/Src/stm32g0xx_hal_flash.c ****   * @param  Timeout maximum flash operation timeout
 584:Drivers/STM32G0xx_HAL_Driver/Src/stm32g0xx_hal_flash.c ****   * @retval HAL_StatusTypeDef HAL Status
 585:Drivers/STM32G0xx_HAL_Driver/Src/stm32g0xx_hal_flash.c ****   */
 586:Drivers/STM32G0xx_HAL_Driver/Src/stm32g0xx_hal_flash.c **** HAL_StatusTypeDef FLASH_WaitForLastOperation(uint32_t Timeout)
 587:Drivers/STM32G0xx_HAL_Driver/Src/stm32g0xx_hal_flash.c **** {
 588:Drivers/STM32G0xx_HAL_Driver/Src/stm32g0xx_hal_flash.c ****   uint32_t error;
 589:Drivers/STM32G0xx_HAL_Driver/Src/stm32g0xx_hal_flash.c ****   uint32_t eccerr;
 590:Drivers/STM32G0xx_HAL_Driver/Src/stm32g0xx_hal_flash.c ****   /* Wait for the FLASH operation to complete by polling on BUSY flag to be reset.
 591:Drivers/STM32G0xx_HAL_Driver/Src/stm32g0xx_hal_flash.c ****      Even if the FLASH operation fails, the BUSY flag will be reset and an error
 592:Drivers/STM32G0xx_HAL_Driver/Src/stm32g0xx_hal_flash.c ****      flag will be set */
 593:Drivers/STM32G0xx_HAL_Driver/Src/stm32g0xx_hal_flash.c ****   uint32_t timeout = HAL_GetTick() + Timeout;
 594:Drivers/STM32G0xx_HAL_Driver/Src/stm32g0xx_hal_flash.c **** 
 595:Drivers/STM32G0xx_HAL_Driver/Src/stm32g0xx_hal_flash.c ****   /* Wait if any operation is ongoing */
 596:Drivers/STM32G0xx_HAL_Driver/Src/stm32g0xx_hal_flash.c ****   while (__HAL_FLASH_GET_FLAG(FLASH_FLAG_BSY) != 0x00U)
 597:Drivers/STM32G0xx_HAL_Driver/Src/stm32g0xx_hal_flash.c ****   {
 598:Drivers/STM32G0xx_HAL_Driver/Src/stm32g0xx_hal_flash.c ****     if (HAL_GetTick() >= timeout)
 599:Drivers/STM32G0xx_HAL_Driver/Src/stm32g0xx_hal_flash.c ****     {
 600:Drivers/STM32G0xx_HAL_Driver/Src/stm32g0xx_hal_flash.c ****       return HAL_TIMEOUT;
 601:Drivers/STM32G0xx_HAL_Driver/Src/stm32g0xx_hal_flash.c ****     }
 602:Drivers/STM32G0xx_HAL_Driver/Src/stm32g0xx_hal_flash.c ****   }
ARM GAS  /var/folders/cw/6cmm0b_n7yj10n1wx8hfx52r0000gn/T//cchk5TpI.s 			page 12


 603:Drivers/STM32G0xx_HAL_Driver/Src/stm32g0xx_hal_flash.c **** 
 604:Drivers/STM32G0xx_HAL_Driver/Src/stm32g0xx_hal_flash.c ****   /* check flash errors. Only ECC correction can be checked here as ECCD
 605:Drivers/STM32G0xx_HAL_Driver/Src/stm32g0xx_hal_flash.c ****       generates NMI */
 606:Drivers/STM32G0xx_HAL_Driver/Src/stm32g0xx_hal_flash.c ****   error = (FLASH->SR & FLASH_FLAG_SR_ERROR);
 607:Drivers/STM32G0xx_HAL_Driver/Src/stm32g0xx_hal_flash.c **** 
 608:Drivers/STM32G0xx_HAL_Driver/Src/stm32g0xx_hal_flash.c ****   /* Clear SR register */
 609:Drivers/STM32G0xx_HAL_Driver/Src/stm32g0xx_hal_flash.c ****   FLASH->SR = FLASH_FLAG_SR_CLEAR;
 610:Drivers/STM32G0xx_HAL_Driver/Src/stm32g0xx_hal_flash.c **** 
 611:Drivers/STM32G0xx_HAL_Driver/Src/stm32g0xx_hal_flash.c ****   /* Update error with ECC error value */
 612:Drivers/STM32G0xx_HAL_Driver/Src/stm32g0xx_hal_flash.c ****   eccerr = (FLASH->ECCR & FLASH_FLAG_ECCC);
 613:Drivers/STM32G0xx_HAL_Driver/Src/stm32g0xx_hal_flash.c **** 
 614:Drivers/STM32G0xx_HAL_Driver/Src/stm32g0xx_hal_flash.c ****   if(eccerr != 0x00u)
 615:Drivers/STM32G0xx_HAL_Driver/Src/stm32g0xx_hal_flash.c ****   {
 616:Drivers/STM32G0xx_HAL_Driver/Src/stm32g0xx_hal_flash.c ****     FLASH->ECCR |= eccerr;
 617:Drivers/STM32G0xx_HAL_Driver/Src/stm32g0xx_hal_flash.c ****     error |= eccerr;
 618:Drivers/STM32G0xx_HAL_Driver/Src/stm32g0xx_hal_flash.c ****   }
 619:Drivers/STM32G0xx_HAL_Driver/Src/stm32g0xx_hal_flash.c **** 
 620:Drivers/STM32G0xx_HAL_Driver/Src/stm32g0xx_hal_flash.c ****   if (error != 0x00U)
 621:Drivers/STM32G0xx_HAL_Driver/Src/stm32g0xx_hal_flash.c ****   {
 622:Drivers/STM32G0xx_HAL_Driver/Src/stm32g0xx_hal_flash.c ****     /*Save the error code*/
 623:Drivers/STM32G0xx_HAL_Driver/Src/stm32g0xx_hal_flash.c ****     pFlash.ErrorCode = error;
 624:Drivers/STM32G0xx_HAL_Driver/Src/stm32g0xx_hal_flash.c **** 
 625:Drivers/STM32G0xx_HAL_Driver/Src/stm32g0xx_hal_flash.c ****     return HAL_ERROR;
 626:Drivers/STM32G0xx_HAL_Driver/Src/stm32g0xx_hal_flash.c ****   }
 627:Drivers/STM32G0xx_HAL_Driver/Src/stm32g0xx_hal_flash.c **** 
 628:Drivers/STM32G0xx_HAL_Driver/Src/stm32g0xx_hal_flash.c ****   /* Wait for control register to be written */
 629:Drivers/STM32G0xx_HAL_Driver/Src/stm32g0xx_hal_flash.c ****   timeout = HAL_GetTick() + Timeout;
 630:Drivers/STM32G0xx_HAL_Driver/Src/stm32g0xx_hal_flash.c **** 
 631:Drivers/STM32G0xx_HAL_Driver/Src/stm32g0xx_hal_flash.c ****   while (__HAL_FLASH_GET_FLAG(FLASH_FLAG_CFGBSY) != 0x00U)
 632:Drivers/STM32G0xx_HAL_Driver/Src/stm32g0xx_hal_flash.c ****   {
 633:Drivers/STM32G0xx_HAL_Driver/Src/stm32g0xx_hal_flash.c ****     if (HAL_GetTick() >= timeout)
 634:Drivers/STM32G0xx_HAL_Driver/Src/stm32g0xx_hal_flash.c ****     {
 635:Drivers/STM32G0xx_HAL_Driver/Src/stm32g0xx_hal_flash.c ****       return HAL_TIMEOUT;
 636:Drivers/STM32G0xx_HAL_Driver/Src/stm32g0xx_hal_flash.c ****     }
 637:Drivers/STM32G0xx_HAL_Driver/Src/stm32g0xx_hal_flash.c ****   }
 638:Drivers/STM32G0xx_HAL_Driver/Src/stm32g0xx_hal_flash.c **** 
 639:Drivers/STM32G0xx_HAL_Driver/Src/stm32g0xx_hal_flash.c ****   return HAL_OK;
 640:Drivers/STM32G0xx_HAL_Driver/Src/stm32g0xx_hal_flash.c **** }
 641:Drivers/STM32G0xx_HAL_Driver/Src/stm32g0xx_hal_flash.c **** 
 642:Drivers/STM32G0xx_HAL_Driver/Src/stm32g0xx_hal_flash.c **** /**
 643:Drivers/STM32G0xx_HAL_Driver/Src/stm32g0xx_hal_flash.c ****   * @brief  Program double-word (64-bit) at a specified address.
 644:Drivers/STM32G0xx_HAL_Driver/Src/stm32g0xx_hal_flash.c ****   * @param  Address Specifies the address to be programmed.
 645:Drivers/STM32G0xx_HAL_Driver/Src/stm32g0xx_hal_flash.c ****   * @param  Data Specifies the data to be programmed.
 646:Drivers/STM32G0xx_HAL_Driver/Src/stm32g0xx_hal_flash.c ****   * @retval None
 647:Drivers/STM32G0xx_HAL_Driver/Src/stm32g0xx_hal_flash.c ****   */
 648:Drivers/STM32G0xx_HAL_Driver/Src/stm32g0xx_hal_flash.c **** static void FLASH_Program_DoubleWord(uint32_t Address, uint64_t Data)
 649:Drivers/STM32G0xx_HAL_Driver/Src/stm32g0xx_hal_flash.c **** {
  27              		.loc 1 649 1 view -0
  28              		.cfi_startproc
  29              		@ args = 0, pretend = 0, frame = 0
  30              		@ frame_needed = 0, uses_anonymous_args = 0
  31              		.loc 1 649 1 is_stmt 0 view .LVU1
  32 0000 30B5     		push	{r4, r5, lr}
  33              	.LCFI0:
  34              		.cfi_def_cfa_offset 12
  35              		.cfi_offset 4, -12
  36              		.cfi_offset 5, -8
ARM GAS  /var/folders/cw/6cmm0b_n7yj10n1wx8hfx52r0000gn/T//cchk5TpI.s 			page 13


  37              		.cfi_offset 14, -4
 650:Drivers/STM32G0xx_HAL_Driver/Src/stm32g0xx_hal_flash.c ****   /* Set PG bit */
 651:Drivers/STM32G0xx_HAL_Driver/Src/stm32g0xx_hal_flash.c ****   SET_BIT(FLASH->CR, FLASH_CR_PG);
  38              		.loc 1 651 3 is_stmt 1 view .LVU2
  39 0002 054C     		ldr	r4, .L2
  40 0004 6169     		ldr	r1, [r4, #20]
  41 0006 0125     		movs	r5, #1
  42 0008 2943     		orrs	r1, r5
  43 000a 6161     		str	r1, [r4, #20]
 652:Drivers/STM32G0xx_HAL_Driver/Src/stm32g0xx_hal_flash.c **** 
 653:Drivers/STM32G0xx_HAL_Driver/Src/stm32g0xx_hal_flash.c ****   /* Program first word */
 654:Drivers/STM32G0xx_HAL_Driver/Src/stm32g0xx_hal_flash.c ****   *(uint32_t *)Address = (uint32_t)Data;
  44              		.loc 1 654 3 view .LVU3
  45              		.loc 1 654 24 is_stmt 0 view .LVU4
  46 000c 0260     		str	r2, [r0]
 655:Drivers/STM32G0xx_HAL_Driver/Src/stm32g0xx_hal_flash.c **** 
 656:Drivers/STM32G0xx_HAL_Driver/Src/stm32g0xx_hal_flash.c ****   /* Barrier to ensure programming is performed in 2 steps, in right order
 657:Drivers/STM32G0xx_HAL_Driver/Src/stm32g0xx_hal_flash.c ****     (independently of compiler optimization behavior) */
 658:Drivers/STM32G0xx_HAL_Driver/Src/stm32g0xx_hal_flash.c ****   __ISB();
  47              		.loc 1 658 3 is_stmt 1 view .LVU5
  48              	.LBB10:
  49              	.LBI10:
  50              		.file 2 "Drivers/CMSIS/Include/cmsis_gcc.h"
   1:Drivers/CMSIS/Include/cmsis_gcc.h **** /**************************************************************************//**
   2:Drivers/CMSIS/Include/cmsis_gcc.h ****  * @file     cmsis_gcc.h
   3:Drivers/CMSIS/Include/cmsis_gcc.h ****  * @brief    CMSIS compiler GCC header file
   4:Drivers/CMSIS/Include/cmsis_gcc.h ****  * @version  V5.0.4
   5:Drivers/CMSIS/Include/cmsis_gcc.h ****  * @date     09. April 2018
   6:Drivers/CMSIS/Include/cmsis_gcc.h ****  ******************************************************************************/
   7:Drivers/CMSIS/Include/cmsis_gcc.h **** /*
   8:Drivers/CMSIS/Include/cmsis_gcc.h ****  * Copyright (c) 2009-2018 Arm Limited. All rights reserved.
   9:Drivers/CMSIS/Include/cmsis_gcc.h ****  *
  10:Drivers/CMSIS/Include/cmsis_gcc.h ****  * SPDX-License-Identifier: Apache-2.0
  11:Drivers/CMSIS/Include/cmsis_gcc.h ****  *
  12:Drivers/CMSIS/Include/cmsis_gcc.h ****  * Licensed under the Apache License, Version 2.0 (the License); you may
  13:Drivers/CMSIS/Include/cmsis_gcc.h ****  * not use this file except in compliance with the License.
  14:Drivers/CMSIS/Include/cmsis_gcc.h ****  * You may obtain a copy of the License at
  15:Drivers/CMSIS/Include/cmsis_gcc.h ****  *
  16:Drivers/CMSIS/Include/cmsis_gcc.h ****  * www.apache.org/licenses/LICENSE-2.0
  17:Drivers/CMSIS/Include/cmsis_gcc.h ****  *
  18:Drivers/CMSIS/Include/cmsis_gcc.h ****  * Unless required by applicable law or agreed to in writing, software
  19:Drivers/CMSIS/Include/cmsis_gcc.h ****  * distributed under the License is distributed on an AS IS BASIS, WITHOUT
  20:Drivers/CMSIS/Include/cmsis_gcc.h ****  * WARRANTIES OR CONDITIONS OF ANY KIND, either express or implied.
  21:Drivers/CMSIS/Include/cmsis_gcc.h ****  * See the License for the specific language governing permissions and
  22:Drivers/CMSIS/Include/cmsis_gcc.h ****  * limitations under the License.
  23:Drivers/CMSIS/Include/cmsis_gcc.h ****  */
  24:Drivers/CMSIS/Include/cmsis_gcc.h **** 
  25:Drivers/CMSIS/Include/cmsis_gcc.h **** #ifndef __CMSIS_GCC_H
  26:Drivers/CMSIS/Include/cmsis_gcc.h **** #define __CMSIS_GCC_H
  27:Drivers/CMSIS/Include/cmsis_gcc.h **** 
  28:Drivers/CMSIS/Include/cmsis_gcc.h **** /* ignore some GCC warnings */
  29:Drivers/CMSIS/Include/cmsis_gcc.h **** #pragma GCC diagnostic push
  30:Drivers/CMSIS/Include/cmsis_gcc.h **** #pragma GCC diagnostic ignored "-Wsign-conversion"
  31:Drivers/CMSIS/Include/cmsis_gcc.h **** #pragma GCC diagnostic ignored "-Wconversion"
  32:Drivers/CMSIS/Include/cmsis_gcc.h **** #pragma GCC diagnostic ignored "-Wunused-parameter"
  33:Drivers/CMSIS/Include/cmsis_gcc.h **** 
  34:Drivers/CMSIS/Include/cmsis_gcc.h **** /* Fallback for __has_builtin */
ARM GAS  /var/folders/cw/6cmm0b_n7yj10n1wx8hfx52r0000gn/T//cchk5TpI.s 			page 14


  35:Drivers/CMSIS/Include/cmsis_gcc.h **** #ifndef __has_builtin
  36:Drivers/CMSIS/Include/cmsis_gcc.h ****   #define __has_builtin(x) (0)
  37:Drivers/CMSIS/Include/cmsis_gcc.h **** #endif
  38:Drivers/CMSIS/Include/cmsis_gcc.h **** 
  39:Drivers/CMSIS/Include/cmsis_gcc.h **** /* CMSIS compiler specific defines */
  40:Drivers/CMSIS/Include/cmsis_gcc.h **** #ifndef   __ASM
  41:Drivers/CMSIS/Include/cmsis_gcc.h ****   #define __ASM                                  __asm
  42:Drivers/CMSIS/Include/cmsis_gcc.h **** #endif
  43:Drivers/CMSIS/Include/cmsis_gcc.h **** #ifndef   __INLINE
  44:Drivers/CMSIS/Include/cmsis_gcc.h ****   #define __INLINE                               inline
  45:Drivers/CMSIS/Include/cmsis_gcc.h **** #endif
  46:Drivers/CMSIS/Include/cmsis_gcc.h **** #ifndef   __STATIC_INLINE
  47:Drivers/CMSIS/Include/cmsis_gcc.h ****   #define __STATIC_INLINE                        static inline
  48:Drivers/CMSIS/Include/cmsis_gcc.h **** #endif
  49:Drivers/CMSIS/Include/cmsis_gcc.h **** #ifndef   __STATIC_FORCEINLINE                 
  50:Drivers/CMSIS/Include/cmsis_gcc.h ****   #define __STATIC_FORCEINLINE                   __attribute__((always_inline)) static inline
  51:Drivers/CMSIS/Include/cmsis_gcc.h **** #endif                                           
  52:Drivers/CMSIS/Include/cmsis_gcc.h **** #ifndef   __NO_RETURN
  53:Drivers/CMSIS/Include/cmsis_gcc.h ****   #define __NO_RETURN                            __attribute__((__noreturn__))
  54:Drivers/CMSIS/Include/cmsis_gcc.h **** #endif
  55:Drivers/CMSIS/Include/cmsis_gcc.h **** #ifndef   __USED
  56:Drivers/CMSIS/Include/cmsis_gcc.h ****   #define __USED                                 __attribute__((used))
  57:Drivers/CMSIS/Include/cmsis_gcc.h **** #endif
  58:Drivers/CMSIS/Include/cmsis_gcc.h **** #ifndef   __WEAK
  59:Drivers/CMSIS/Include/cmsis_gcc.h ****   #define __WEAK                                 __attribute__((weak))
  60:Drivers/CMSIS/Include/cmsis_gcc.h **** #endif
  61:Drivers/CMSIS/Include/cmsis_gcc.h **** #ifndef   __PACKED
  62:Drivers/CMSIS/Include/cmsis_gcc.h ****   #define __PACKED                               __attribute__((packed, aligned(1)))
  63:Drivers/CMSIS/Include/cmsis_gcc.h **** #endif
  64:Drivers/CMSIS/Include/cmsis_gcc.h **** #ifndef   __PACKED_STRUCT
  65:Drivers/CMSIS/Include/cmsis_gcc.h ****   #define __PACKED_STRUCT                        struct __attribute__((packed, aligned(1)))
  66:Drivers/CMSIS/Include/cmsis_gcc.h **** #endif
  67:Drivers/CMSIS/Include/cmsis_gcc.h **** #ifndef   __PACKED_UNION
  68:Drivers/CMSIS/Include/cmsis_gcc.h ****   #define __PACKED_UNION                         union __attribute__((packed, aligned(1)))
  69:Drivers/CMSIS/Include/cmsis_gcc.h **** #endif
  70:Drivers/CMSIS/Include/cmsis_gcc.h **** #ifndef   __UNALIGNED_UINT32        /* deprecated */
  71:Drivers/CMSIS/Include/cmsis_gcc.h ****   #pragma GCC diagnostic push
  72:Drivers/CMSIS/Include/cmsis_gcc.h ****   #pragma GCC diagnostic ignored "-Wpacked"
  73:Drivers/CMSIS/Include/cmsis_gcc.h ****   #pragma GCC diagnostic ignored "-Wattributes"
  74:Drivers/CMSIS/Include/cmsis_gcc.h ****   struct __attribute__((packed)) T_UINT32 { uint32_t v; };
  75:Drivers/CMSIS/Include/cmsis_gcc.h ****   #pragma GCC diagnostic pop
  76:Drivers/CMSIS/Include/cmsis_gcc.h ****   #define __UNALIGNED_UINT32(x)                  (((struct T_UINT32 *)(x))->v)
  77:Drivers/CMSIS/Include/cmsis_gcc.h **** #endif
  78:Drivers/CMSIS/Include/cmsis_gcc.h **** #ifndef   __UNALIGNED_UINT16_WRITE
  79:Drivers/CMSIS/Include/cmsis_gcc.h ****   #pragma GCC diagnostic push
  80:Drivers/CMSIS/Include/cmsis_gcc.h ****   #pragma GCC diagnostic ignored "-Wpacked"
  81:Drivers/CMSIS/Include/cmsis_gcc.h ****   #pragma GCC diagnostic ignored "-Wattributes"
  82:Drivers/CMSIS/Include/cmsis_gcc.h ****   __PACKED_STRUCT T_UINT16_WRITE { uint16_t v; };
  83:Drivers/CMSIS/Include/cmsis_gcc.h ****   #pragma GCC diagnostic pop
  84:Drivers/CMSIS/Include/cmsis_gcc.h ****   #define __UNALIGNED_UINT16_WRITE(addr, val)    (void)((((struct T_UINT16_WRITE *)(void *)(addr))-
  85:Drivers/CMSIS/Include/cmsis_gcc.h **** #endif
  86:Drivers/CMSIS/Include/cmsis_gcc.h **** #ifndef   __UNALIGNED_UINT16_READ
  87:Drivers/CMSIS/Include/cmsis_gcc.h ****   #pragma GCC diagnostic push
  88:Drivers/CMSIS/Include/cmsis_gcc.h ****   #pragma GCC diagnostic ignored "-Wpacked"
  89:Drivers/CMSIS/Include/cmsis_gcc.h ****   #pragma GCC diagnostic ignored "-Wattributes"
  90:Drivers/CMSIS/Include/cmsis_gcc.h ****   __PACKED_STRUCT T_UINT16_READ { uint16_t v; };
  91:Drivers/CMSIS/Include/cmsis_gcc.h ****   #pragma GCC diagnostic pop
ARM GAS  /var/folders/cw/6cmm0b_n7yj10n1wx8hfx52r0000gn/T//cchk5TpI.s 			page 15


  92:Drivers/CMSIS/Include/cmsis_gcc.h ****   #define __UNALIGNED_UINT16_READ(addr)          (((const struct T_UINT16_READ *)(const void *)(add
  93:Drivers/CMSIS/Include/cmsis_gcc.h **** #endif
  94:Drivers/CMSIS/Include/cmsis_gcc.h **** #ifndef   __UNALIGNED_UINT32_WRITE
  95:Drivers/CMSIS/Include/cmsis_gcc.h ****   #pragma GCC diagnostic push
  96:Drivers/CMSIS/Include/cmsis_gcc.h ****   #pragma GCC diagnostic ignored "-Wpacked"
  97:Drivers/CMSIS/Include/cmsis_gcc.h ****   #pragma GCC diagnostic ignored "-Wattributes"
  98:Drivers/CMSIS/Include/cmsis_gcc.h ****   __PACKED_STRUCT T_UINT32_WRITE { uint32_t v; };
  99:Drivers/CMSIS/Include/cmsis_gcc.h ****   #pragma GCC diagnostic pop
 100:Drivers/CMSIS/Include/cmsis_gcc.h ****   #define __UNALIGNED_UINT32_WRITE(addr, val)    (void)((((struct T_UINT32_WRITE *)(void *)(addr))-
 101:Drivers/CMSIS/Include/cmsis_gcc.h **** #endif
 102:Drivers/CMSIS/Include/cmsis_gcc.h **** #ifndef   __UNALIGNED_UINT32_READ
 103:Drivers/CMSIS/Include/cmsis_gcc.h ****   #pragma GCC diagnostic push
 104:Drivers/CMSIS/Include/cmsis_gcc.h ****   #pragma GCC diagnostic ignored "-Wpacked"
 105:Drivers/CMSIS/Include/cmsis_gcc.h ****   #pragma GCC diagnostic ignored "-Wattributes"
 106:Drivers/CMSIS/Include/cmsis_gcc.h ****   __PACKED_STRUCT T_UINT32_READ { uint32_t v; };
 107:Drivers/CMSIS/Include/cmsis_gcc.h ****   #pragma GCC diagnostic pop
 108:Drivers/CMSIS/Include/cmsis_gcc.h ****   #define __UNALIGNED_UINT32_READ(addr)          (((const struct T_UINT32_READ *)(const void *)(add
 109:Drivers/CMSIS/Include/cmsis_gcc.h **** #endif
 110:Drivers/CMSIS/Include/cmsis_gcc.h **** #ifndef   __ALIGNED
 111:Drivers/CMSIS/Include/cmsis_gcc.h ****   #define __ALIGNED(x)                           __attribute__((aligned(x)))
 112:Drivers/CMSIS/Include/cmsis_gcc.h **** #endif
 113:Drivers/CMSIS/Include/cmsis_gcc.h **** #ifndef   __RESTRICT
 114:Drivers/CMSIS/Include/cmsis_gcc.h ****   #define __RESTRICT                             __restrict
 115:Drivers/CMSIS/Include/cmsis_gcc.h **** #endif
 116:Drivers/CMSIS/Include/cmsis_gcc.h **** 
 117:Drivers/CMSIS/Include/cmsis_gcc.h **** 
 118:Drivers/CMSIS/Include/cmsis_gcc.h **** /* ###########################  Core Function Access  ########################### */
 119:Drivers/CMSIS/Include/cmsis_gcc.h **** /** \ingroup  CMSIS_Core_FunctionInterface
 120:Drivers/CMSIS/Include/cmsis_gcc.h ****     \defgroup CMSIS_Core_RegAccFunctions CMSIS Core Register Access Functions
 121:Drivers/CMSIS/Include/cmsis_gcc.h ****   @{
 122:Drivers/CMSIS/Include/cmsis_gcc.h ****  */
 123:Drivers/CMSIS/Include/cmsis_gcc.h **** 
 124:Drivers/CMSIS/Include/cmsis_gcc.h **** /**
 125:Drivers/CMSIS/Include/cmsis_gcc.h ****   \brief   Enable IRQ Interrupts
 126:Drivers/CMSIS/Include/cmsis_gcc.h ****   \details Enables IRQ interrupts by clearing the I-bit in the CPSR.
 127:Drivers/CMSIS/Include/cmsis_gcc.h ****            Can only be executed in Privileged modes.
 128:Drivers/CMSIS/Include/cmsis_gcc.h ****  */
 129:Drivers/CMSIS/Include/cmsis_gcc.h **** __STATIC_FORCEINLINE void __enable_irq(void)
 130:Drivers/CMSIS/Include/cmsis_gcc.h **** {
 131:Drivers/CMSIS/Include/cmsis_gcc.h ****   __ASM volatile ("cpsie i" : : : "memory");
 132:Drivers/CMSIS/Include/cmsis_gcc.h **** }
 133:Drivers/CMSIS/Include/cmsis_gcc.h **** 
 134:Drivers/CMSIS/Include/cmsis_gcc.h **** 
 135:Drivers/CMSIS/Include/cmsis_gcc.h **** /**
 136:Drivers/CMSIS/Include/cmsis_gcc.h ****   \brief   Disable IRQ Interrupts
 137:Drivers/CMSIS/Include/cmsis_gcc.h ****   \details Disables IRQ interrupts by setting the I-bit in the CPSR.
 138:Drivers/CMSIS/Include/cmsis_gcc.h ****            Can only be executed in Privileged modes.
 139:Drivers/CMSIS/Include/cmsis_gcc.h ****  */
 140:Drivers/CMSIS/Include/cmsis_gcc.h **** __STATIC_FORCEINLINE void __disable_irq(void)
 141:Drivers/CMSIS/Include/cmsis_gcc.h **** {
 142:Drivers/CMSIS/Include/cmsis_gcc.h ****   __ASM volatile ("cpsid i" : : : "memory");
 143:Drivers/CMSIS/Include/cmsis_gcc.h **** }
 144:Drivers/CMSIS/Include/cmsis_gcc.h **** 
 145:Drivers/CMSIS/Include/cmsis_gcc.h **** 
 146:Drivers/CMSIS/Include/cmsis_gcc.h **** /**
 147:Drivers/CMSIS/Include/cmsis_gcc.h ****   \brief   Get Control Register
 148:Drivers/CMSIS/Include/cmsis_gcc.h ****   \details Returns the content of the Control Register.
ARM GAS  /var/folders/cw/6cmm0b_n7yj10n1wx8hfx52r0000gn/T//cchk5TpI.s 			page 16


 149:Drivers/CMSIS/Include/cmsis_gcc.h ****   \return               Control Register value
 150:Drivers/CMSIS/Include/cmsis_gcc.h ****  */
 151:Drivers/CMSIS/Include/cmsis_gcc.h **** __STATIC_FORCEINLINE uint32_t __get_CONTROL(void)
 152:Drivers/CMSIS/Include/cmsis_gcc.h **** {
 153:Drivers/CMSIS/Include/cmsis_gcc.h ****   uint32_t result;
 154:Drivers/CMSIS/Include/cmsis_gcc.h **** 
 155:Drivers/CMSIS/Include/cmsis_gcc.h ****   __ASM volatile ("MRS %0, control" : "=r" (result) );
 156:Drivers/CMSIS/Include/cmsis_gcc.h ****   return(result);
 157:Drivers/CMSIS/Include/cmsis_gcc.h **** }
 158:Drivers/CMSIS/Include/cmsis_gcc.h **** 
 159:Drivers/CMSIS/Include/cmsis_gcc.h **** 
 160:Drivers/CMSIS/Include/cmsis_gcc.h **** #if (defined (__ARM_FEATURE_CMSE ) && (__ARM_FEATURE_CMSE == 3))
 161:Drivers/CMSIS/Include/cmsis_gcc.h **** /**
 162:Drivers/CMSIS/Include/cmsis_gcc.h ****   \brief   Get Control Register (non-secure)
 163:Drivers/CMSIS/Include/cmsis_gcc.h ****   \details Returns the content of the non-secure Control Register when in secure mode.
 164:Drivers/CMSIS/Include/cmsis_gcc.h ****   \return               non-secure Control Register value
 165:Drivers/CMSIS/Include/cmsis_gcc.h ****  */
 166:Drivers/CMSIS/Include/cmsis_gcc.h **** __STATIC_FORCEINLINE uint32_t __TZ_get_CONTROL_NS(void)
 167:Drivers/CMSIS/Include/cmsis_gcc.h **** {
 168:Drivers/CMSIS/Include/cmsis_gcc.h ****   uint32_t result;
 169:Drivers/CMSIS/Include/cmsis_gcc.h **** 
 170:Drivers/CMSIS/Include/cmsis_gcc.h ****   __ASM volatile ("MRS %0, control_ns" : "=r" (result) );
 171:Drivers/CMSIS/Include/cmsis_gcc.h ****   return(result);
 172:Drivers/CMSIS/Include/cmsis_gcc.h **** }
 173:Drivers/CMSIS/Include/cmsis_gcc.h **** #endif
 174:Drivers/CMSIS/Include/cmsis_gcc.h **** 
 175:Drivers/CMSIS/Include/cmsis_gcc.h **** 
 176:Drivers/CMSIS/Include/cmsis_gcc.h **** /**
 177:Drivers/CMSIS/Include/cmsis_gcc.h ****   \brief   Set Control Register
 178:Drivers/CMSIS/Include/cmsis_gcc.h ****   \details Writes the given value to the Control Register.
 179:Drivers/CMSIS/Include/cmsis_gcc.h ****   \param [in]    control  Control Register value to set
 180:Drivers/CMSIS/Include/cmsis_gcc.h ****  */
 181:Drivers/CMSIS/Include/cmsis_gcc.h **** __STATIC_FORCEINLINE void __set_CONTROL(uint32_t control)
 182:Drivers/CMSIS/Include/cmsis_gcc.h **** {
 183:Drivers/CMSIS/Include/cmsis_gcc.h ****   __ASM volatile ("MSR control, %0" : : "r" (control) : "memory");
 184:Drivers/CMSIS/Include/cmsis_gcc.h **** }
 185:Drivers/CMSIS/Include/cmsis_gcc.h **** 
 186:Drivers/CMSIS/Include/cmsis_gcc.h **** 
 187:Drivers/CMSIS/Include/cmsis_gcc.h **** #if (defined (__ARM_FEATURE_CMSE ) && (__ARM_FEATURE_CMSE == 3))
 188:Drivers/CMSIS/Include/cmsis_gcc.h **** /**
 189:Drivers/CMSIS/Include/cmsis_gcc.h ****   \brief   Set Control Register (non-secure)
 190:Drivers/CMSIS/Include/cmsis_gcc.h ****   \details Writes the given value to the non-secure Control Register when in secure state.
 191:Drivers/CMSIS/Include/cmsis_gcc.h ****   \param [in]    control  Control Register value to set
 192:Drivers/CMSIS/Include/cmsis_gcc.h ****  */
 193:Drivers/CMSIS/Include/cmsis_gcc.h **** __STATIC_FORCEINLINE void __TZ_set_CONTROL_NS(uint32_t control)
 194:Drivers/CMSIS/Include/cmsis_gcc.h **** {
 195:Drivers/CMSIS/Include/cmsis_gcc.h ****   __ASM volatile ("MSR control_ns, %0" : : "r" (control) : "memory");
 196:Drivers/CMSIS/Include/cmsis_gcc.h **** }
 197:Drivers/CMSIS/Include/cmsis_gcc.h **** #endif
 198:Drivers/CMSIS/Include/cmsis_gcc.h **** 
 199:Drivers/CMSIS/Include/cmsis_gcc.h **** 
 200:Drivers/CMSIS/Include/cmsis_gcc.h **** /**
 201:Drivers/CMSIS/Include/cmsis_gcc.h ****   \brief   Get IPSR Register
 202:Drivers/CMSIS/Include/cmsis_gcc.h ****   \details Returns the content of the IPSR Register.
 203:Drivers/CMSIS/Include/cmsis_gcc.h ****   \return               IPSR Register value
 204:Drivers/CMSIS/Include/cmsis_gcc.h ****  */
 205:Drivers/CMSIS/Include/cmsis_gcc.h **** __STATIC_FORCEINLINE uint32_t __get_IPSR(void)
ARM GAS  /var/folders/cw/6cmm0b_n7yj10n1wx8hfx52r0000gn/T//cchk5TpI.s 			page 17


 206:Drivers/CMSIS/Include/cmsis_gcc.h **** {
 207:Drivers/CMSIS/Include/cmsis_gcc.h ****   uint32_t result;
 208:Drivers/CMSIS/Include/cmsis_gcc.h **** 
 209:Drivers/CMSIS/Include/cmsis_gcc.h ****   __ASM volatile ("MRS %0, ipsr" : "=r" (result) );
 210:Drivers/CMSIS/Include/cmsis_gcc.h ****   return(result);
 211:Drivers/CMSIS/Include/cmsis_gcc.h **** }
 212:Drivers/CMSIS/Include/cmsis_gcc.h **** 
 213:Drivers/CMSIS/Include/cmsis_gcc.h **** 
 214:Drivers/CMSIS/Include/cmsis_gcc.h **** /**
 215:Drivers/CMSIS/Include/cmsis_gcc.h ****   \brief   Get APSR Register
 216:Drivers/CMSIS/Include/cmsis_gcc.h ****   \details Returns the content of the APSR Register.
 217:Drivers/CMSIS/Include/cmsis_gcc.h ****   \return               APSR Register value
 218:Drivers/CMSIS/Include/cmsis_gcc.h ****  */
 219:Drivers/CMSIS/Include/cmsis_gcc.h **** __STATIC_FORCEINLINE uint32_t __get_APSR(void)
 220:Drivers/CMSIS/Include/cmsis_gcc.h **** {
 221:Drivers/CMSIS/Include/cmsis_gcc.h ****   uint32_t result;
 222:Drivers/CMSIS/Include/cmsis_gcc.h **** 
 223:Drivers/CMSIS/Include/cmsis_gcc.h ****   __ASM volatile ("MRS %0, apsr" : "=r" (result) );
 224:Drivers/CMSIS/Include/cmsis_gcc.h ****   return(result);
 225:Drivers/CMSIS/Include/cmsis_gcc.h **** }
 226:Drivers/CMSIS/Include/cmsis_gcc.h **** 
 227:Drivers/CMSIS/Include/cmsis_gcc.h **** 
 228:Drivers/CMSIS/Include/cmsis_gcc.h **** /**
 229:Drivers/CMSIS/Include/cmsis_gcc.h ****   \brief   Get xPSR Register
 230:Drivers/CMSIS/Include/cmsis_gcc.h ****   \details Returns the content of the xPSR Register.
 231:Drivers/CMSIS/Include/cmsis_gcc.h ****   \return               xPSR Register value
 232:Drivers/CMSIS/Include/cmsis_gcc.h ****  */
 233:Drivers/CMSIS/Include/cmsis_gcc.h **** __STATIC_FORCEINLINE uint32_t __get_xPSR(void)
 234:Drivers/CMSIS/Include/cmsis_gcc.h **** {
 235:Drivers/CMSIS/Include/cmsis_gcc.h ****   uint32_t result;
 236:Drivers/CMSIS/Include/cmsis_gcc.h **** 
 237:Drivers/CMSIS/Include/cmsis_gcc.h ****   __ASM volatile ("MRS %0, xpsr" : "=r" (result) );
 238:Drivers/CMSIS/Include/cmsis_gcc.h ****   return(result);
 239:Drivers/CMSIS/Include/cmsis_gcc.h **** }
 240:Drivers/CMSIS/Include/cmsis_gcc.h **** 
 241:Drivers/CMSIS/Include/cmsis_gcc.h **** 
 242:Drivers/CMSIS/Include/cmsis_gcc.h **** /**
 243:Drivers/CMSIS/Include/cmsis_gcc.h ****   \brief   Get Process Stack Pointer
 244:Drivers/CMSIS/Include/cmsis_gcc.h ****   \details Returns the current value of the Process Stack Pointer (PSP).
 245:Drivers/CMSIS/Include/cmsis_gcc.h ****   \return               PSP Register value
 246:Drivers/CMSIS/Include/cmsis_gcc.h ****  */
 247:Drivers/CMSIS/Include/cmsis_gcc.h **** __STATIC_FORCEINLINE uint32_t __get_PSP(void)
 248:Drivers/CMSIS/Include/cmsis_gcc.h **** {
 249:Drivers/CMSIS/Include/cmsis_gcc.h ****   uint32_t result;
 250:Drivers/CMSIS/Include/cmsis_gcc.h **** 
 251:Drivers/CMSIS/Include/cmsis_gcc.h ****   __ASM volatile ("MRS %0, psp"  : "=r" (result) );
 252:Drivers/CMSIS/Include/cmsis_gcc.h ****   return(result);
 253:Drivers/CMSIS/Include/cmsis_gcc.h **** }
 254:Drivers/CMSIS/Include/cmsis_gcc.h **** 
 255:Drivers/CMSIS/Include/cmsis_gcc.h **** 
 256:Drivers/CMSIS/Include/cmsis_gcc.h **** #if (defined (__ARM_FEATURE_CMSE ) && (__ARM_FEATURE_CMSE == 3))
 257:Drivers/CMSIS/Include/cmsis_gcc.h **** /**
 258:Drivers/CMSIS/Include/cmsis_gcc.h ****   \brief   Get Process Stack Pointer (non-secure)
 259:Drivers/CMSIS/Include/cmsis_gcc.h ****   \details Returns the current value of the non-secure Process Stack Pointer (PSP) when in secure s
 260:Drivers/CMSIS/Include/cmsis_gcc.h ****   \return               PSP Register value
 261:Drivers/CMSIS/Include/cmsis_gcc.h ****  */
 262:Drivers/CMSIS/Include/cmsis_gcc.h **** __STATIC_FORCEINLINE uint32_t __TZ_get_PSP_NS(void)
ARM GAS  /var/folders/cw/6cmm0b_n7yj10n1wx8hfx52r0000gn/T//cchk5TpI.s 			page 18


 263:Drivers/CMSIS/Include/cmsis_gcc.h **** {
 264:Drivers/CMSIS/Include/cmsis_gcc.h ****   uint32_t result;
 265:Drivers/CMSIS/Include/cmsis_gcc.h **** 
 266:Drivers/CMSIS/Include/cmsis_gcc.h ****   __ASM volatile ("MRS %0, psp_ns"  : "=r" (result) );
 267:Drivers/CMSIS/Include/cmsis_gcc.h ****   return(result);
 268:Drivers/CMSIS/Include/cmsis_gcc.h **** }
 269:Drivers/CMSIS/Include/cmsis_gcc.h **** #endif
 270:Drivers/CMSIS/Include/cmsis_gcc.h **** 
 271:Drivers/CMSIS/Include/cmsis_gcc.h **** 
 272:Drivers/CMSIS/Include/cmsis_gcc.h **** /**
 273:Drivers/CMSIS/Include/cmsis_gcc.h ****   \brief   Set Process Stack Pointer
 274:Drivers/CMSIS/Include/cmsis_gcc.h ****   \details Assigns the given value to the Process Stack Pointer (PSP).
 275:Drivers/CMSIS/Include/cmsis_gcc.h ****   \param [in]    topOfProcStack  Process Stack Pointer value to set
 276:Drivers/CMSIS/Include/cmsis_gcc.h ****  */
 277:Drivers/CMSIS/Include/cmsis_gcc.h **** __STATIC_FORCEINLINE void __set_PSP(uint32_t topOfProcStack)
 278:Drivers/CMSIS/Include/cmsis_gcc.h **** {
 279:Drivers/CMSIS/Include/cmsis_gcc.h ****   __ASM volatile ("MSR psp, %0" : : "r" (topOfProcStack) : );
 280:Drivers/CMSIS/Include/cmsis_gcc.h **** }
 281:Drivers/CMSIS/Include/cmsis_gcc.h **** 
 282:Drivers/CMSIS/Include/cmsis_gcc.h **** 
 283:Drivers/CMSIS/Include/cmsis_gcc.h **** #if (defined (__ARM_FEATURE_CMSE ) && (__ARM_FEATURE_CMSE == 3))
 284:Drivers/CMSIS/Include/cmsis_gcc.h **** /**
 285:Drivers/CMSIS/Include/cmsis_gcc.h ****   \brief   Set Process Stack Pointer (non-secure)
 286:Drivers/CMSIS/Include/cmsis_gcc.h ****   \details Assigns the given value to the non-secure Process Stack Pointer (PSP) when in secure sta
 287:Drivers/CMSIS/Include/cmsis_gcc.h ****   \param [in]    topOfProcStack  Process Stack Pointer value to set
 288:Drivers/CMSIS/Include/cmsis_gcc.h ****  */
 289:Drivers/CMSIS/Include/cmsis_gcc.h **** __STATIC_FORCEINLINE void __TZ_set_PSP_NS(uint32_t topOfProcStack)
 290:Drivers/CMSIS/Include/cmsis_gcc.h **** {
 291:Drivers/CMSIS/Include/cmsis_gcc.h ****   __ASM volatile ("MSR psp_ns, %0" : : "r" (topOfProcStack) : );
 292:Drivers/CMSIS/Include/cmsis_gcc.h **** }
 293:Drivers/CMSIS/Include/cmsis_gcc.h **** #endif
 294:Drivers/CMSIS/Include/cmsis_gcc.h **** 
 295:Drivers/CMSIS/Include/cmsis_gcc.h **** 
 296:Drivers/CMSIS/Include/cmsis_gcc.h **** /**
 297:Drivers/CMSIS/Include/cmsis_gcc.h ****   \brief   Get Main Stack Pointer
 298:Drivers/CMSIS/Include/cmsis_gcc.h ****   \details Returns the current value of the Main Stack Pointer (MSP).
 299:Drivers/CMSIS/Include/cmsis_gcc.h ****   \return               MSP Register value
 300:Drivers/CMSIS/Include/cmsis_gcc.h ****  */
 301:Drivers/CMSIS/Include/cmsis_gcc.h **** __STATIC_FORCEINLINE uint32_t __get_MSP(void)
 302:Drivers/CMSIS/Include/cmsis_gcc.h **** {
 303:Drivers/CMSIS/Include/cmsis_gcc.h ****   uint32_t result;
 304:Drivers/CMSIS/Include/cmsis_gcc.h **** 
 305:Drivers/CMSIS/Include/cmsis_gcc.h ****   __ASM volatile ("MRS %0, msp" : "=r" (result) );
 306:Drivers/CMSIS/Include/cmsis_gcc.h ****   return(result);
 307:Drivers/CMSIS/Include/cmsis_gcc.h **** }
 308:Drivers/CMSIS/Include/cmsis_gcc.h **** 
 309:Drivers/CMSIS/Include/cmsis_gcc.h **** 
 310:Drivers/CMSIS/Include/cmsis_gcc.h **** #if (defined (__ARM_FEATURE_CMSE ) && (__ARM_FEATURE_CMSE == 3))
 311:Drivers/CMSIS/Include/cmsis_gcc.h **** /**
 312:Drivers/CMSIS/Include/cmsis_gcc.h ****   \brief   Get Main Stack Pointer (non-secure)
 313:Drivers/CMSIS/Include/cmsis_gcc.h ****   \details Returns the current value of the non-secure Main Stack Pointer (MSP) when in secure stat
 314:Drivers/CMSIS/Include/cmsis_gcc.h ****   \return               MSP Register value
 315:Drivers/CMSIS/Include/cmsis_gcc.h ****  */
 316:Drivers/CMSIS/Include/cmsis_gcc.h **** __STATIC_FORCEINLINE uint32_t __TZ_get_MSP_NS(void)
 317:Drivers/CMSIS/Include/cmsis_gcc.h **** {
 318:Drivers/CMSIS/Include/cmsis_gcc.h ****   uint32_t result;
 319:Drivers/CMSIS/Include/cmsis_gcc.h **** 
ARM GAS  /var/folders/cw/6cmm0b_n7yj10n1wx8hfx52r0000gn/T//cchk5TpI.s 			page 19


 320:Drivers/CMSIS/Include/cmsis_gcc.h ****   __ASM volatile ("MRS %0, msp_ns" : "=r" (result) );
 321:Drivers/CMSIS/Include/cmsis_gcc.h ****   return(result);
 322:Drivers/CMSIS/Include/cmsis_gcc.h **** }
 323:Drivers/CMSIS/Include/cmsis_gcc.h **** #endif
 324:Drivers/CMSIS/Include/cmsis_gcc.h **** 
 325:Drivers/CMSIS/Include/cmsis_gcc.h **** 
 326:Drivers/CMSIS/Include/cmsis_gcc.h **** /**
 327:Drivers/CMSIS/Include/cmsis_gcc.h ****   \brief   Set Main Stack Pointer
 328:Drivers/CMSIS/Include/cmsis_gcc.h ****   \details Assigns the given value to the Main Stack Pointer (MSP).
 329:Drivers/CMSIS/Include/cmsis_gcc.h ****   \param [in]    topOfMainStack  Main Stack Pointer value to set
 330:Drivers/CMSIS/Include/cmsis_gcc.h ****  */
 331:Drivers/CMSIS/Include/cmsis_gcc.h **** __STATIC_FORCEINLINE void __set_MSP(uint32_t topOfMainStack)
 332:Drivers/CMSIS/Include/cmsis_gcc.h **** {
 333:Drivers/CMSIS/Include/cmsis_gcc.h ****   __ASM volatile ("MSR msp, %0" : : "r" (topOfMainStack) : );
 334:Drivers/CMSIS/Include/cmsis_gcc.h **** }
 335:Drivers/CMSIS/Include/cmsis_gcc.h **** 
 336:Drivers/CMSIS/Include/cmsis_gcc.h **** 
 337:Drivers/CMSIS/Include/cmsis_gcc.h **** #if (defined (__ARM_FEATURE_CMSE ) && (__ARM_FEATURE_CMSE == 3))
 338:Drivers/CMSIS/Include/cmsis_gcc.h **** /**
 339:Drivers/CMSIS/Include/cmsis_gcc.h ****   \brief   Set Main Stack Pointer (non-secure)
 340:Drivers/CMSIS/Include/cmsis_gcc.h ****   \details Assigns the given value to the non-secure Main Stack Pointer (MSP) when in secure state.
 341:Drivers/CMSIS/Include/cmsis_gcc.h ****   \param [in]    topOfMainStack  Main Stack Pointer value to set
 342:Drivers/CMSIS/Include/cmsis_gcc.h ****  */
 343:Drivers/CMSIS/Include/cmsis_gcc.h **** __STATIC_FORCEINLINE void __TZ_set_MSP_NS(uint32_t topOfMainStack)
 344:Drivers/CMSIS/Include/cmsis_gcc.h **** {
 345:Drivers/CMSIS/Include/cmsis_gcc.h ****   __ASM volatile ("MSR msp_ns, %0" : : "r" (topOfMainStack) : );
 346:Drivers/CMSIS/Include/cmsis_gcc.h **** }
 347:Drivers/CMSIS/Include/cmsis_gcc.h **** #endif
 348:Drivers/CMSIS/Include/cmsis_gcc.h **** 
 349:Drivers/CMSIS/Include/cmsis_gcc.h **** 
 350:Drivers/CMSIS/Include/cmsis_gcc.h **** #if (defined (__ARM_FEATURE_CMSE ) && (__ARM_FEATURE_CMSE == 3))
 351:Drivers/CMSIS/Include/cmsis_gcc.h **** /**
 352:Drivers/CMSIS/Include/cmsis_gcc.h ****   \brief   Get Stack Pointer (non-secure)
 353:Drivers/CMSIS/Include/cmsis_gcc.h ****   \details Returns the current value of the non-secure Stack Pointer (SP) when in secure state.
 354:Drivers/CMSIS/Include/cmsis_gcc.h ****   \return               SP Register value
 355:Drivers/CMSIS/Include/cmsis_gcc.h ****  */
 356:Drivers/CMSIS/Include/cmsis_gcc.h **** __STATIC_FORCEINLINE uint32_t __TZ_get_SP_NS(void)
 357:Drivers/CMSIS/Include/cmsis_gcc.h **** {
 358:Drivers/CMSIS/Include/cmsis_gcc.h ****   uint32_t result;
 359:Drivers/CMSIS/Include/cmsis_gcc.h **** 
 360:Drivers/CMSIS/Include/cmsis_gcc.h ****   __ASM volatile ("MRS %0, sp_ns" : "=r" (result) );
 361:Drivers/CMSIS/Include/cmsis_gcc.h ****   return(result);
 362:Drivers/CMSIS/Include/cmsis_gcc.h **** }
 363:Drivers/CMSIS/Include/cmsis_gcc.h **** 
 364:Drivers/CMSIS/Include/cmsis_gcc.h **** 
 365:Drivers/CMSIS/Include/cmsis_gcc.h **** /**
 366:Drivers/CMSIS/Include/cmsis_gcc.h ****   \brief   Set Stack Pointer (non-secure)
 367:Drivers/CMSIS/Include/cmsis_gcc.h ****   \details Assigns the given value to the non-secure Stack Pointer (SP) when in secure state.
 368:Drivers/CMSIS/Include/cmsis_gcc.h ****   \param [in]    topOfStack  Stack Pointer value to set
 369:Drivers/CMSIS/Include/cmsis_gcc.h ****  */
 370:Drivers/CMSIS/Include/cmsis_gcc.h **** __STATIC_FORCEINLINE void __TZ_set_SP_NS(uint32_t topOfStack)
 371:Drivers/CMSIS/Include/cmsis_gcc.h **** {
 372:Drivers/CMSIS/Include/cmsis_gcc.h ****   __ASM volatile ("MSR sp_ns, %0" : : "r" (topOfStack) : );
 373:Drivers/CMSIS/Include/cmsis_gcc.h **** }
 374:Drivers/CMSIS/Include/cmsis_gcc.h **** #endif
 375:Drivers/CMSIS/Include/cmsis_gcc.h **** 
 376:Drivers/CMSIS/Include/cmsis_gcc.h **** 
ARM GAS  /var/folders/cw/6cmm0b_n7yj10n1wx8hfx52r0000gn/T//cchk5TpI.s 			page 20


 377:Drivers/CMSIS/Include/cmsis_gcc.h **** /**
 378:Drivers/CMSIS/Include/cmsis_gcc.h ****   \brief   Get Priority Mask
 379:Drivers/CMSIS/Include/cmsis_gcc.h ****   \details Returns the current state of the priority mask bit from the Priority Mask Register.
 380:Drivers/CMSIS/Include/cmsis_gcc.h ****   \return               Priority Mask value
 381:Drivers/CMSIS/Include/cmsis_gcc.h ****  */
 382:Drivers/CMSIS/Include/cmsis_gcc.h **** __STATIC_FORCEINLINE uint32_t __get_PRIMASK(void)
 383:Drivers/CMSIS/Include/cmsis_gcc.h **** {
 384:Drivers/CMSIS/Include/cmsis_gcc.h ****   uint32_t result;
 385:Drivers/CMSIS/Include/cmsis_gcc.h **** 
 386:Drivers/CMSIS/Include/cmsis_gcc.h ****   __ASM volatile ("MRS %0, primask" : "=r" (result) :: "memory");
 387:Drivers/CMSIS/Include/cmsis_gcc.h ****   return(result);
 388:Drivers/CMSIS/Include/cmsis_gcc.h **** }
 389:Drivers/CMSIS/Include/cmsis_gcc.h **** 
 390:Drivers/CMSIS/Include/cmsis_gcc.h **** 
 391:Drivers/CMSIS/Include/cmsis_gcc.h **** #if (defined (__ARM_FEATURE_CMSE ) && (__ARM_FEATURE_CMSE == 3))
 392:Drivers/CMSIS/Include/cmsis_gcc.h **** /**
 393:Drivers/CMSIS/Include/cmsis_gcc.h ****   \brief   Get Priority Mask (non-secure)
 394:Drivers/CMSIS/Include/cmsis_gcc.h ****   \details Returns the current state of the non-secure priority mask bit from the Priority Mask Reg
 395:Drivers/CMSIS/Include/cmsis_gcc.h ****   \return               Priority Mask value
 396:Drivers/CMSIS/Include/cmsis_gcc.h ****  */
 397:Drivers/CMSIS/Include/cmsis_gcc.h **** __STATIC_FORCEINLINE uint32_t __TZ_get_PRIMASK_NS(void)
 398:Drivers/CMSIS/Include/cmsis_gcc.h **** {
 399:Drivers/CMSIS/Include/cmsis_gcc.h ****   uint32_t result;
 400:Drivers/CMSIS/Include/cmsis_gcc.h **** 
 401:Drivers/CMSIS/Include/cmsis_gcc.h ****   __ASM volatile ("MRS %0, primask_ns" : "=r" (result) :: "memory");
 402:Drivers/CMSIS/Include/cmsis_gcc.h ****   return(result);
 403:Drivers/CMSIS/Include/cmsis_gcc.h **** }
 404:Drivers/CMSIS/Include/cmsis_gcc.h **** #endif
 405:Drivers/CMSIS/Include/cmsis_gcc.h **** 
 406:Drivers/CMSIS/Include/cmsis_gcc.h **** 
 407:Drivers/CMSIS/Include/cmsis_gcc.h **** /**
 408:Drivers/CMSIS/Include/cmsis_gcc.h ****   \brief   Set Priority Mask
 409:Drivers/CMSIS/Include/cmsis_gcc.h ****   \details Assigns the given value to the Priority Mask Register.
 410:Drivers/CMSIS/Include/cmsis_gcc.h ****   \param [in]    priMask  Priority Mask
 411:Drivers/CMSIS/Include/cmsis_gcc.h ****  */
 412:Drivers/CMSIS/Include/cmsis_gcc.h **** __STATIC_FORCEINLINE void __set_PRIMASK(uint32_t priMask)
 413:Drivers/CMSIS/Include/cmsis_gcc.h **** {
 414:Drivers/CMSIS/Include/cmsis_gcc.h ****   __ASM volatile ("MSR primask, %0" : : "r" (priMask) : "memory");
 415:Drivers/CMSIS/Include/cmsis_gcc.h **** }
 416:Drivers/CMSIS/Include/cmsis_gcc.h **** 
 417:Drivers/CMSIS/Include/cmsis_gcc.h **** 
 418:Drivers/CMSIS/Include/cmsis_gcc.h **** #if (defined (__ARM_FEATURE_CMSE ) && (__ARM_FEATURE_CMSE == 3))
 419:Drivers/CMSIS/Include/cmsis_gcc.h **** /**
 420:Drivers/CMSIS/Include/cmsis_gcc.h ****   \brief   Set Priority Mask (non-secure)
 421:Drivers/CMSIS/Include/cmsis_gcc.h ****   \details Assigns the given value to the non-secure Priority Mask Register when in secure state.
 422:Drivers/CMSIS/Include/cmsis_gcc.h ****   \param [in]    priMask  Priority Mask
 423:Drivers/CMSIS/Include/cmsis_gcc.h ****  */
 424:Drivers/CMSIS/Include/cmsis_gcc.h **** __STATIC_FORCEINLINE void __TZ_set_PRIMASK_NS(uint32_t priMask)
 425:Drivers/CMSIS/Include/cmsis_gcc.h **** {
 426:Drivers/CMSIS/Include/cmsis_gcc.h ****   __ASM volatile ("MSR primask_ns, %0" : : "r" (priMask) : "memory");
 427:Drivers/CMSIS/Include/cmsis_gcc.h **** }
 428:Drivers/CMSIS/Include/cmsis_gcc.h **** #endif
 429:Drivers/CMSIS/Include/cmsis_gcc.h **** 
 430:Drivers/CMSIS/Include/cmsis_gcc.h **** 
 431:Drivers/CMSIS/Include/cmsis_gcc.h **** #if ((defined (__ARM_ARCH_7M__      ) && (__ARM_ARCH_7M__      == 1)) || \
 432:Drivers/CMSIS/Include/cmsis_gcc.h ****      (defined (__ARM_ARCH_7EM__     ) && (__ARM_ARCH_7EM__     == 1)) || \
 433:Drivers/CMSIS/Include/cmsis_gcc.h ****      (defined (__ARM_ARCH_8M_MAIN__ ) && (__ARM_ARCH_8M_MAIN__ == 1))    )
ARM GAS  /var/folders/cw/6cmm0b_n7yj10n1wx8hfx52r0000gn/T//cchk5TpI.s 			page 21


 434:Drivers/CMSIS/Include/cmsis_gcc.h **** /**
 435:Drivers/CMSIS/Include/cmsis_gcc.h ****   \brief   Enable FIQ
 436:Drivers/CMSIS/Include/cmsis_gcc.h ****   \details Enables FIQ interrupts by clearing the F-bit in the CPSR.
 437:Drivers/CMSIS/Include/cmsis_gcc.h ****            Can only be executed in Privileged modes.
 438:Drivers/CMSIS/Include/cmsis_gcc.h ****  */
 439:Drivers/CMSIS/Include/cmsis_gcc.h **** __STATIC_FORCEINLINE void __enable_fault_irq(void)
 440:Drivers/CMSIS/Include/cmsis_gcc.h **** {
 441:Drivers/CMSIS/Include/cmsis_gcc.h ****   __ASM volatile ("cpsie f" : : : "memory");
 442:Drivers/CMSIS/Include/cmsis_gcc.h **** }
 443:Drivers/CMSIS/Include/cmsis_gcc.h **** 
 444:Drivers/CMSIS/Include/cmsis_gcc.h **** 
 445:Drivers/CMSIS/Include/cmsis_gcc.h **** /**
 446:Drivers/CMSIS/Include/cmsis_gcc.h ****   \brief   Disable FIQ
 447:Drivers/CMSIS/Include/cmsis_gcc.h ****   \details Disables FIQ interrupts by setting the F-bit in the CPSR.
 448:Drivers/CMSIS/Include/cmsis_gcc.h ****            Can only be executed in Privileged modes.
 449:Drivers/CMSIS/Include/cmsis_gcc.h ****  */
 450:Drivers/CMSIS/Include/cmsis_gcc.h **** __STATIC_FORCEINLINE void __disable_fault_irq(void)
 451:Drivers/CMSIS/Include/cmsis_gcc.h **** {
 452:Drivers/CMSIS/Include/cmsis_gcc.h ****   __ASM volatile ("cpsid f" : : : "memory");
 453:Drivers/CMSIS/Include/cmsis_gcc.h **** }
 454:Drivers/CMSIS/Include/cmsis_gcc.h **** 
 455:Drivers/CMSIS/Include/cmsis_gcc.h **** 
 456:Drivers/CMSIS/Include/cmsis_gcc.h **** /**
 457:Drivers/CMSIS/Include/cmsis_gcc.h ****   \brief   Get Base Priority
 458:Drivers/CMSIS/Include/cmsis_gcc.h ****   \details Returns the current value of the Base Priority register.
 459:Drivers/CMSIS/Include/cmsis_gcc.h ****   \return               Base Priority register value
 460:Drivers/CMSIS/Include/cmsis_gcc.h ****  */
 461:Drivers/CMSIS/Include/cmsis_gcc.h **** __STATIC_FORCEINLINE uint32_t __get_BASEPRI(void)
 462:Drivers/CMSIS/Include/cmsis_gcc.h **** {
 463:Drivers/CMSIS/Include/cmsis_gcc.h ****   uint32_t result;
 464:Drivers/CMSIS/Include/cmsis_gcc.h **** 
 465:Drivers/CMSIS/Include/cmsis_gcc.h ****   __ASM volatile ("MRS %0, basepri" : "=r" (result) );
 466:Drivers/CMSIS/Include/cmsis_gcc.h ****   return(result);
 467:Drivers/CMSIS/Include/cmsis_gcc.h **** }
 468:Drivers/CMSIS/Include/cmsis_gcc.h **** 
 469:Drivers/CMSIS/Include/cmsis_gcc.h **** 
 470:Drivers/CMSIS/Include/cmsis_gcc.h **** #if (defined (__ARM_FEATURE_CMSE ) && (__ARM_FEATURE_CMSE == 3))
 471:Drivers/CMSIS/Include/cmsis_gcc.h **** /**
 472:Drivers/CMSIS/Include/cmsis_gcc.h ****   \brief   Get Base Priority (non-secure)
 473:Drivers/CMSIS/Include/cmsis_gcc.h ****   \details Returns the current value of the non-secure Base Priority register when in secure state.
 474:Drivers/CMSIS/Include/cmsis_gcc.h ****   \return               Base Priority register value
 475:Drivers/CMSIS/Include/cmsis_gcc.h ****  */
 476:Drivers/CMSIS/Include/cmsis_gcc.h **** __STATIC_FORCEINLINE uint32_t __TZ_get_BASEPRI_NS(void)
 477:Drivers/CMSIS/Include/cmsis_gcc.h **** {
 478:Drivers/CMSIS/Include/cmsis_gcc.h ****   uint32_t result;
 479:Drivers/CMSIS/Include/cmsis_gcc.h **** 
 480:Drivers/CMSIS/Include/cmsis_gcc.h ****   __ASM volatile ("MRS %0, basepri_ns" : "=r" (result) );
 481:Drivers/CMSIS/Include/cmsis_gcc.h ****   return(result);
 482:Drivers/CMSIS/Include/cmsis_gcc.h **** }
 483:Drivers/CMSIS/Include/cmsis_gcc.h **** #endif
 484:Drivers/CMSIS/Include/cmsis_gcc.h **** 
 485:Drivers/CMSIS/Include/cmsis_gcc.h **** 
 486:Drivers/CMSIS/Include/cmsis_gcc.h **** /**
 487:Drivers/CMSIS/Include/cmsis_gcc.h ****   \brief   Set Base Priority
 488:Drivers/CMSIS/Include/cmsis_gcc.h ****   \details Assigns the given value to the Base Priority register.
 489:Drivers/CMSIS/Include/cmsis_gcc.h ****   \param [in]    basePri  Base Priority value to set
 490:Drivers/CMSIS/Include/cmsis_gcc.h ****  */
ARM GAS  /var/folders/cw/6cmm0b_n7yj10n1wx8hfx52r0000gn/T//cchk5TpI.s 			page 22


 491:Drivers/CMSIS/Include/cmsis_gcc.h **** __STATIC_FORCEINLINE void __set_BASEPRI(uint32_t basePri)
 492:Drivers/CMSIS/Include/cmsis_gcc.h **** {
 493:Drivers/CMSIS/Include/cmsis_gcc.h ****   __ASM volatile ("MSR basepri, %0" : : "r" (basePri) : "memory");
 494:Drivers/CMSIS/Include/cmsis_gcc.h **** }
 495:Drivers/CMSIS/Include/cmsis_gcc.h **** 
 496:Drivers/CMSIS/Include/cmsis_gcc.h **** 
 497:Drivers/CMSIS/Include/cmsis_gcc.h **** #if (defined (__ARM_FEATURE_CMSE ) && (__ARM_FEATURE_CMSE == 3))
 498:Drivers/CMSIS/Include/cmsis_gcc.h **** /**
 499:Drivers/CMSIS/Include/cmsis_gcc.h ****   \brief   Set Base Priority (non-secure)
 500:Drivers/CMSIS/Include/cmsis_gcc.h ****   \details Assigns the given value to the non-secure Base Priority register when in secure state.
 501:Drivers/CMSIS/Include/cmsis_gcc.h ****   \param [in]    basePri  Base Priority value to set
 502:Drivers/CMSIS/Include/cmsis_gcc.h ****  */
 503:Drivers/CMSIS/Include/cmsis_gcc.h **** __STATIC_FORCEINLINE void __TZ_set_BASEPRI_NS(uint32_t basePri)
 504:Drivers/CMSIS/Include/cmsis_gcc.h **** {
 505:Drivers/CMSIS/Include/cmsis_gcc.h ****   __ASM volatile ("MSR basepri_ns, %0" : : "r" (basePri) : "memory");
 506:Drivers/CMSIS/Include/cmsis_gcc.h **** }
 507:Drivers/CMSIS/Include/cmsis_gcc.h **** #endif
 508:Drivers/CMSIS/Include/cmsis_gcc.h **** 
 509:Drivers/CMSIS/Include/cmsis_gcc.h **** 
 510:Drivers/CMSIS/Include/cmsis_gcc.h **** /**
 511:Drivers/CMSIS/Include/cmsis_gcc.h ****   \brief   Set Base Priority with condition
 512:Drivers/CMSIS/Include/cmsis_gcc.h ****   \details Assigns the given value to the Base Priority register only if BASEPRI masking is disable
 513:Drivers/CMSIS/Include/cmsis_gcc.h ****            or the new value increases the BASEPRI priority level.
 514:Drivers/CMSIS/Include/cmsis_gcc.h ****   \param [in]    basePri  Base Priority value to set
 515:Drivers/CMSIS/Include/cmsis_gcc.h ****  */
 516:Drivers/CMSIS/Include/cmsis_gcc.h **** __STATIC_FORCEINLINE void __set_BASEPRI_MAX(uint32_t basePri)
 517:Drivers/CMSIS/Include/cmsis_gcc.h **** {
 518:Drivers/CMSIS/Include/cmsis_gcc.h ****   __ASM volatile ("MSR basepri_max, %0" : : "r" (basePri) : "memory");
 519:Drivers/CMSIS/Include/cmsis_gcc.h **** }
 520:Drivers/CMSIS/Include/cmsis_gcc.h **** 
 521:Drivers/CMSIS/Include/cmsis_gcc.h **** 
 522:Drivers/CMSIS/Include/cmsis_gcc.h **** /**
 523:Drivers/CMSIS/Include/cmsis_gcc.h ****   \brief   Get Fault Mask
 524:Drivers/CMSIS/Include/cmsis_gcc.h ****   \details Returns the current value of the Fault Mask register.
 525:Drivers/CMSIS/Include/cmsis_gcc.h ****   \return               Fault Mask register value
 526:Drivers/CMSIS/Include/cmsis_gcc.h ****  */
 527:Drivers/CMSIS/Include/cmsis_gcc.h **** __STATIC_FORCEINLINE uint32_t __get_FAULTMASK(void)
 528:Drivers/CMSIS/Include/cmsis_gcc.h **** {
 529:Drivers/CMSIS/Include/cmsis_gcc.h ****   uint32_t result;
 530:Drivers/CMSIS/Include/cmsis_gcc.h **** 
 531:Drivers/CMSIS/Include/cmsis_gcc.h ****   __ASM volatile ("MRS %0, faultmask" : "=r" (result) );
 532:Drivers/CMSIS/Include/cmsis_gcc.h ****   return(result);
 533:Drivers/CMSIS/Include/cmsis_gcc.h **** }
 534:Drivers/CMSIS/Include/cmsis_gcc.h **** 
 535:Drivers/CMSIS/Include/cmsis_gcc.h **** 
 536:Drivers/CMSIS/Include/cmsis_gcc.h **** #if (defined (__ARM_FEATURE_CMSE ) && (__ARM_FEATURE_CMSE == 3))
 537:Drivers/CMSIS/Include/cmsis_gcc.h **** /**
 538:Drivers/CMSIS/Include/cmsis_gcc.h ****   \brief   Get Fault Mask (non-secure)
 539:Drivers/CMSIS/Include/cmsis_gcc.h ****   \details Returns the current value of the non-secure Fault Mask register when in secure state.
 540:Drivers/CMSIS/Include/cmsis_gcc.h ****   \return               Fault Mask register value
 541:Drivers/CMSIS/Include/cmsis_gcc.h ****  */
 542:Drivers/CMSIS/Include/cmsis_gcc.h **** __STATIC_FORCEINLINE uint32_t __TZ_get_FAULTMASK_NS(void)
 543:Drivers/CMSIS/Include/cmsis_gcc.h **** {
 544:Drivers/CMSIS/Include/cmsis_gcc.h ****   uint32_t result;
 545:Drivers/CMSIS/Include/cmsis_gcc.h **** 
 546:Drivers/CMSIS/Include/cmsis_gcc.h ****   __ASM volatile ("MRS %0, faultmask_ns" : "=r" (result) );
 547:Drivers/CMSIS/Include/cmsis_gcc.h ****   return(result);
ARM GAS  /var/folders/cw/6cmm0b_n7yj10n1wx8hfx52r0000gn/T//cchk5TpI.s 			page 23


 548:Drivers/CMSIS/Include/cmsis_gcc.h **** }
 549:Drivers/CMSIS/Include/cmsis_gcc.h **** #endif
 550:Drivers/CMSIS/Include/cmsis_gcc.h **** 
 551:Drivers/CMSIS/Include/cmsis_gcc.h **** 
 552:Drivers/CMSIS/Include/cmsis_gcc.h **** /**
 553:Drivers/CMSIS/Include/cmsis_gcc.h ****   \brief   Set Fault Mask
 554:Drivers/CMSIS/Include/cmsis_gcc.h ****   \details Assigns the given value to the Fault Mask register.
 555:Drivers/CMSIS/Include/cmsis_gcc.h ****   \param [in]    faultMask  Fault Mask value to set
 556:Drivers/CMSIS/Include/cmsis_gcc.h ****  */
 557:Drivers/CMSIS/Include/cmsis_gcc.h **** __STATIC_FORCEINLINE void __set_FAULTMASK(uint32_t faultMask)
 558:Drivers/CMSIS/Include/cmsis_gcc.h **** {
 559:Drivers/CMSIS/Include/cmsis_gcc.h ****   __ASM volatile ("MSR faultmask, %0" : : "r" (faultMask) : "memory");
 560:Drivers/CMSIS/Include/cmsis_gcc.h **** }
 561:Drivers/CMSIS/Include/cmsis_gcc.h **** 
 562:Drivers/CMSIS/Include/cmsis_gcc.h **** 
 563:Drivers/CMSIS/Include/cmsis_gcc.h **** #if (defined (__ARM_FEATURE_CMSE ) && (__ARM_FEATURE_CMSE == 3))
 564:Drivers/CMSIS/Include/cmsis_gcc.h **** /**
 565:Drivers/CMSIS/Include/cmsis_gcc.h ****   \brief   Set Fault Mask (non-secure)
 566:Drivers/CMSIS/Include/cmsis_gcc.h ****   \details Assigns the given value to the non-secure Fault Mask register when in secure state.
 567:Drivers/CMSIS/Include/cmsis_gcc.h ****   \param [in]    faultMask  Fault Mask value to set
 568:Drivers/CMSIS/Include/cmsis_gcc.h ****  */
 569:Drivers/CMSIS/Include/cmsis_gcc.h **** __STATIC_FORCEINLINE void __TZ_set_FAULTMASK_NS(uint32_t faultMask)
 570:Drivers/CMSIS/Include/cmsis_gcc.h **** {
 571:Drivers/CMSIS/Include/cmsis_gcc.h ****   __ASM volatile ("MSR faultmask_ns, %0" : : "r" (faultMask) : "memory");
 572:Drivers/CMSIS/Include/cmsis_gcc.h **** }
 573:Drivers/CMSIS/Include/cmsis_gcc.h **** #endif
 574:Drivers/CMSIS/Include/cmsis_gcc.h **** 
 575:Drivers/CMSIS/Include/cmsis_gcc.h **** #endif /* ((defined (__ARM_ARCH_7M__      ) && (__ARM_ARCH_7M__      == 1)) || \
 576:Drivers/CMSIS/Include/cmsis_gcc.h ****            (defined (__ARM_ARCH_7EM__     ) && (__ARM_ARCH_7EM__     == 1)) || \
 577:Drivers/CMSIS/Include/cmsis_gcc.h ****            (defined (__ARM_ARCH_8M_MAIN__ ) && (__ARM_ARCH_8M_MAIN__ == 1))    ) */
 578:Drivers/CMSIS/Include/cmsis_gcc.h **** 
 579:Drivers/CMSIS/Include/cmsis_gcc.h **** 
 580:Drivers/CMSIS/Include/cmsis_gcc.h **** #if ((defined (__ARM_ARCH_8M_MAIN__ ) && (__ARM_ARCH_8M_MAIN__ == 1)) || \
 581:Drivers/CMSIS/Include/cmsis_gcc.h ****      (defined (__ARM_ARCH_8M_BASE__ ) && (__ARM_ARCH_8M_BASE__ == 1))    )
 582:Drivers/CMSIS/Include/cmsis_gcc.h **** 
 583:Drivers/CMSIS/Include/cmsis_gcc.h **** /**
 584:Drivers/CMSIS/Include/cmsis_gcc.h ****   \brief   Get Process Stack Pointer Limit
 585:Drivers/CMSIS/Include/cmsis_gcc.h ****   Devices without ARMv8-M Main Extensions (i.e. Cortex-M23) lack the non-secure
 586:Drivers/CMSIS/Include/cmsis_gcc.h ****   Stack Pointer Limit register hence zero is returned always in non-secure
 587:Drivers/CMSIS/Include/cmsis_gcc.h ****   mode.
 588:Drivers/CMSIS/Include/cmsis_gcc.h ****   
 589:Drivers/CMSIS/Include/cmsis_gcc.h ****   \details Returns the current value of the Process Stack Pointer Limit (PSPLIM).
 590:Drivers/CMSIS/Include/cmsis_gcc.h ****   \return               PSPLIM Register value
 591:Drivers/CMSIS/Include/cmsis_gcc.h ****  */
 592:Drivers/CMSIS/Include/cmsis_gcc.h **** __STATIC_FORCEINLINE uint32_t __get_PSPLIM(void)
 593:Drivers/CMSIS/Include/cmsis_gcc.h **** {
 594:Drivers/CMSIS/Include/cmsis_gcc.h **** #if (!(defined (__ARM_ARCH_8M_MAIN__ ) && (__ARM_ARCH_8M_MAIN__ == 1)) && \
 595:Drivers/CMSIS/Include/cmsis_gcc.h ****     (!defined (__ARM_FEATURE_CMSE) || (__ARM_FEATURE_CMSE < 3)))
 596:Drivers/CMSIS/Include/cmsis_gcc.h ****     // without main extensions, the non-secure PSPLIM is RAZ/WI
 597:Drivers/CMSIS/Include/cmsis_gcc.h ****   return 0U;
 598:Drivers/CMSIS/Include/cmsis_gcc.h **** #else
 599:Drivers/CMSIS/Include/cmsis_gcc.h ****   uint32_t result;
 600:Drivers/CMSIS/Include/cmsis_gcc.h ****   __ASM volatile ("MRS %0, psplim"  : "=r" (result) );
 601:Drivers/CMSIS/Include/cmsis_gcc.h ****   return result;
 602:Drivers/CMSIS/Include/cmsis_gcc.h **** #endif
 603:Drivers/CMSIS/Include/cmsis_gcc.h **** }
 604:Drivers/CMSIS/Include/cmsis_gcc.h **** 
ARM GAS  /var/folders/cw/6cmm0b_n7yj10n1wx8hfx52r0000gn/T//cchk5TpI.s 			page 24


 605:Drivers/CMSIS/Include/cmsis_gcc.h **** #if (defined (__ARM_FEATURE_CMSE) && (__ARM_FEATURE_CMSE == 3))
 606:Drivers/CMSIS/Include/cmsis_gcc.h **** /**
 607:Drivers/CMSIS/Include/cmsis_gcc.h ****   \brief   Get Process Stack Pointer Limit (non-secure)
 608:Drivers/CMSIS/Include/cmsis_gcc.h ****   Devices without ARMv8-M Main Extensions (i.e. Cortex-M23) lack the non-secure
 609:Drivers/CMSIS/Include/cmsis_gcc.h ****   Stack Pointer Limit register hence zero is returned always.
 610:Drivers/CMSIS/Include/cmsis_gcc.h **** 
 611:Drivers/CMSIS/Include/cmsis_gcc.h ****   \details Returns the current value of the non-secure Process Stack Pointer Limit (PSPLIM) when in
 612:Drivers/CMSIS/Include/cmsis_gcc.h ****   \return               PSPLIM Register value
 613:Drivers/CMSIS/Include/cmsis_gcc.h ****  */
 614:Drivers/CMSIS/Include/cmsis_gcc.h **** __STATIC_FORCEINLINE uint32_t __TZ_get_PSPLIM_NS(void)
 615:Drivers/CMSIS/Include/cmsis_gcc.h **** {
 616:Drivers/CMSIS/Include/cmsis_gcc.h **** #if (!(defined (__ARM_ARCH_8M_MAIN__ ) && (__ARM_ARCH_8M_MAIN__ == 1)))
 617:Drivers/CMSIS/Include/cmsis_gcc.h ****   // without main extensions, the non-secure PSPLIM is RAZ/WI
 618:Drivers/CMSIS/Include/cmsis_gcc.h ****   return 0U;
 619:Drivers/CMSIS/Include/cmsis_gcc.h **** #else
 620:Drivers/CMSIS/Include/cmsis_gcc.h ****   uint32_t result;
 621:Drivers/CMSIS/Include/cmsis_gcc.h ****   __ASM volatile ("MRS %0, psplim_ns"  : "=r" (result) );
 622:Drivers/CMSIS/Include/cmsis_gcc.h ****   return result;
 623:Drivers/CMSIS/Include/cmsis_gcc.h **** #endif
 624:Drivers/CMSIS/Include/cmsis_gcc.h **** }
 625:Drivers/CMSIS/Include/cmsis_gcc.h **** #endif
 626:Drivers/CMSIS/Include/cmsis_gcc.h **** 
 627:Drivers/CMSIS/Include/cmsis_gcc.h **** 
 628:Drivers/CMSIS/Include/cmsis_gcc.h **** /**
 629:Drivers/CMSIS/Include/cmsis_gcc.h ****   \brief   Set Process Stack Pointer Limit
 630:Drivers/CMSIS/Include/cmsis_gcc.h ****   Devices without ARMv8-M Main Extensions (i.e. Cortex-M23) lack the non-secure
 631:Drivers/CMSIS/Include/cmsis_gcc.h ****   Stack Pointer Limit register hence the write is silently ignored in non-secure
 632:Drivers/CMSIS/Include/cmsis_gcc.h ****   mode.
 633:Drivers/CMSIS/Include/cmsis_gcc.h ****   
 634:Drivers/CMSIS/Include/cmsis_gcc.h ****   \details Assigns the given value to the Process Stack Pointer Limit (PSPLIM).
 635:Drivers/CMSIS/Include/cmsis_gcc.h ****   \param [in]    ProcStackPtrLimit  Process Stack Pointer Limit value to set
 636:Drivers/CMSIS/Include/cmsis_gcc.h ****  */
 637:Drivers/CMSIS/Include/cmsis_gcc.h **** __STATIC_FORCEINLINE void __set_PSPLIM(uint32_t ProcStackPtrLimit)
 638:Drivers/CMSIS/Include/cmsis_gcc.h **** {
 639:Drivers/CMSIS/Include/cmsis_gcc.h **** #if (!(defined (__ARM_ARCH_8M_MAIN__ ) && (__ARM_ARCH_8M_MAIN__ == 1)) && \
 640:Drivers/CMSIS/Include/cmsis_gcc.h ****     (!defined (__ARM_FEATURE_CMSE) || (__ARM_FEATURE_CMSE < 3)))
 641:Drivers/CMSIS/Include/cmsis_gcc.h ****   // without main extensions, the non-secure PSPLIM is RAZ/WI
 642:Drivers/CMSIS/Include/cmsis_gcc.h ****   (void)ProcStackPtrLimit;
 643:Drivers/CMSIS/Include/cmsis_gcc.h **** #else
 644:Drivers/CMSIS/Include/cmsis_gcc.h ****   __ASM volatile ("MSR psplim, %0" : : "r" (ProcStackPtrLimit));
 645:Drivers/CMSIS/Include/cmsis_gcc.h **** #endif
 646:Drivers/CMSIS/Include/cmsis_gcc.h **** }
 647:Drivers/CMSIS/Include/cmsis_gcc.h **** 
 648:Drivers/CMSIS/Include/cmsis_gcc.h **** 
 649:Drivers/CMSIS/Include/cmsis_gcc.h **** #if (defined (__ARM_FEATURE_CMSE  ) && (__ARM_FEATURE_CMSE   == 3))
 650:Drivers/CMSIS/Include/cmsis_gcc.h **** /**
 651:Drivers/CMSIS/Include/cmsis_gcc.h ****   \brief   Set Process Stack Pointer (non-secure)
 652:Drivers/CMSIS/Include/cmsis_gcc.h ****   Devices without ARMv8-M Main Extensions (i.e. Cortex-M23) lack the non-secure
 653:Drivers/CMSIS/Include/cmsis_gcc.h ****   Stack Pointer Limit register hence the write is silently ignored.
 654:Drivers/CMSIS/Include/cmsis_gcc.h **** 
 655:Drivers/CMSIS/Include/cmsis_gcc.h ****   \details Assigns the given value to the non-secure Process Stack Pointer Limit (PSPLIM) when in s
 656:Drivers/CMSIS/Include/cmsis_gcc.h ****   \param [in]    ProcStackPtrLimit  Process Stack Pointer Limit value to set
 657:Drivers/CMSIS/Include/cmsis_gcc.h ****  */
 658:Drivers/CMSIS/Include/cmsis_gcc.h **** __STATIC_FORCEINLINE void __TZ_set_PSPLIM_NS(uint32_t ProcStackPtrLimit)
 659:Drivers/CMSIS/Include/cmsis_gcc.h **** {
 660:Drivers/CMSIS/Include/cmsis_gcc.h **** #if (!(defined (__ARM_ARCH_8M_MAIN__ ) && (__ARM_ARCH_8M_MAIN__ == 1)))
 661:Drivers/CMSIS/Include/cmsis_gcc.h ****   // without main extensions, the non-secure PSPLIM is RAZ/WI
ARM GAS  /var/folders/cw/6cmm0b_n7yj10n1wx8hfx52r0000gn/T//cchk5TpI.s 			page 25


 662:Drivers/CMSIS/Include/cmsis_gcc.h ****   (void)ProcStackPtrLimit;
 663:Drivers/CMSIS/Include/cmsis_gcc.h **** #else
 664:Drivers/CMSIS/Include/cmsis_gcc.h ****   __ASM volatile ("MSR psplim_ns, %0\n" : : "r" (ProcStackPtrLimit));
 665:Drivers/CMSIS/Include/cmsis_gcc.h **** #endif
 666:Drivers/CMSIS/Include/cmsis_gcc.h **** }
 667:Drivers/CMSIS/Include/cmsis_gcc.h **** #endif
 668:Drivers/CMSIS/Include/cmsis_gcc.h **** 
 669:Drivers/CMSIS/Include/cmsis_gcc.h **** 
 670:Drivers/CMSIS/Include/cmsis_gcc.h **** /**
 671:Drivers/CMSIS/Include/cmsis_gcc.h ****   \brief   Get Main Stack Pointer Limit
 672:Drivers/CMSIS/Include/cmsis_gcc.h ****   Devices without ARMv8-M Main Extensions (i.e. Cortex-M23) lack the non-secure
 673:Drivers/CMSIS/Include/cmsis_gcc.h ****   Stack Pointer Limit register hence zero is returned always in non-secure
 674:Drivers/CMSIS/Include/cmsis_gcc.h ****   mode.
 675:Drivers/CMSIS/Include/cmsis_gcc.h **** 
 676:Drivers/CMSIS/Include/cmsis_gcc.h ****   \details Returns the current value of the Main Stack Pointer Limit (MSPLIM).
 677:Drivers/CMSIS/Include/cmsis_gcc.h ****   \return               MSPLIM Register value
 678:Drivers/CMSIS/Include/cmsis_gcc.h ****  */
 679:Drivers/CMSIS/Include/cmsis_gcc.h **** __STATIC_FORCEINLINE uint32_t __get_MSPLIM(void)
 680:Drivers/CMSIS/Include/cmsis_gcc.h **** {
 681:Drivers/CMSIS/Include/cmsis_gcc.h **** #if (!(defined (__ARM_ARCH_8M_MAIN__ ) && (__ARM_ARCH_8M_MAIN__ == 1)) && \
 682:Drivers/CMSIS/Include/cmsis_gcc.h ****     (!defined (__ARM_FEATURE_CMSE) || (__ARM_FEATURE_CMSE < 3)))
 683:Drivers/CMSIS/Include/cmsis_gcc.h ****   // without main extensions, the non-secure MSPLIM is RAZ/WI
 684:Drivers/CMSIS/Include/cmsis_gcc.h ****   return 0U;
 685:Drivers/CMSIS/Include/cmsis_gcc.h **** #else
 686:Drivers/CMSIS/Include/cmsis_gcc.h ****   uint32_t result;
 687:Drivers/CMSIS/Include/cmsis_gcc.h ****   __ASM volatile ("MRS %0, msplim" : "=r" (result) );
 688:Drivers/CMSIS/Include/cmsis_gcc.h ****   return result;
 689:Drivers/CMSIS/Include/cmsis_gcc.h **** #endif
 690:Drivers/CMSIS/Include/cmsis_gcc.h **** }
 691:Drivers/CMSIS/Include/cmsis_gcc.h **** 
 692:Drivers/CMSIS/Include/cmsis_gcc.h **** 
 693:Drivers/CMSIS/Include/cmsis_gcc.h **** #if (defined (__ARM_FEATURE_CMSE  ) && (__ARM_FEATURE_CMSE   == 3))
 694:Drivers/CMSIS/Include/cmsis_gcc.h **** /**
 695:Drivers/CMSIS/Include/cmsis_gcc.h ****   \brief   Get Main Stack Pointer Limit (non-secure)
 696:Drivers/CMSIS/Include/cmsis_gcc.h ****   Devices without ARMv8-M Main Extensions (i.e. Cortex-M23) lack the non-secure
 697:Drivers/CMSIS/Include/cmsis_gcc.h ****   Stack Pointer Limit register hence zero is returned always.
 698:Drivers/CMSIS/Include/cmsis_gcc.h **** 
 699:Drivers/CMSIS/Include/cmsis_gcc.h ****   \details Returns the current value of the non-secure Main Stack Pointer Limit(MSPLIM) when in sec
 700:Drivers/CMSIS/Include/cmsis_gcc.h ****   \return               MSPLIM Register value
 701:Drivers/CMSIS/Include/cmsis_gcc.h ****  */
 702:Drivers/CMSIS/Include/cmsis_gcc.h **** __STATIC_FORCEINLINE uint32_t __TZ_get_MSPLIM_NS(void)
 703:Drivers/CMSIS/Include/cmsis_gcc.h **** {
 704:Drivers/CMSIS/Include/cmsis_gcc.h **** #if (!(defined (__ARM_ARCH_8M_MAIN__ ) && (__ARM_ARCH_8M_MAIN__ == 1)))
 705:Drivers/CMSIS/Include/cmsis_gcc.h ****   // without main extensions, the non-secure MSPLIM is RAZ/WI
 706:Drivers/CMSIS/Include/cmsis_gcc.h ****   return 0U;
 707:Drivers/CMSIS/Include/cmsis_gcc.h **** #else
 708:Drivers/CMSIS/Include/cmsis_gcc.h ****   uint32_t result;
 709:Drivers/CMSIS/Include/cmsis_gcc.h ****   __ASM volatile ("MRS %0, msplim_ns" : "=r" (result) );
 710:Drivers/CMSIS/Include/cmsis_gcc.h ****   return result;
 711:Drivers/CMSIS/Include/cmsis_gcc.h **** #endif
 712:Drivers/CMSIS/Include/cmsis_gcc.h **** }
 713:Drivers/CMSIS/Include/cmsis_gcc.h **** #endif
 714:Drivers/CMSIS/Include/cmsis_gcc.h **** 
 715:Drivers/CMSIS/Include/cmsis_gcc.h **** 
 716:Drivers/CMSIS/Include/cmsis_gcc.h **** /**
 717:Drivers/CMSIS/Include/cmsis_gcc.h ****   \brief   Set Main Stack Pointer Limit
 718:Drivers/CMSIS/Include/cmsis_gcc.h ****   Devices without ARMv8-M Main Extensions (i.e. Cortex-M23) lack the non-secure
ARM GAS  /var/folders/cw/6cmm0b_n7yj10n1wx8hfx52r0000gn/T//cchk5TpI.s 			page 26


 719:Drivers/CMSIS/Include/cmsis_gcc.h ****   Stack Pointer Limit register hence the write is silently ignored in non-secure
 720:Drivers/CMSIS/Include/cmsis_gcc.h ****   mode.
 721:Drivers/CMSIS/Include/cmsis_gcc.h **** 
 722:Drivers/CMSIS/Include/cmsis_gcc.h ****   \details Assigns the given value to the Main Stack Pointer Limit (MSPLIM).
 723:Drivers/CMSIS/Include/cmsis_gcc.h ****   \param [in]    MainStackPtrLimit  Main Stack Pointer Limit value to set
 724:Drivers/CMSIS/Include/cmsis_gcc.h ****  */
 725:Drivers/CMSIS/Include/cmsis_gcc.h **** __STATIC_FORCEINLINE void __set_MSPLIM(uint32_t MainStackPtrLimit)
 726:Drivers/CMSIS/Include/cmsis_gcc.h **** {
 727:Drivers/CMSIS/Include/cmsis_gcc.h **** #if (!(defined (__ARM_ARCH_8M_MAIN__ ) && (__ARM_ARCH_8M_MAIN__ == 1)) && \
 728:Drivers/CMSIS/Include/cmsis_gcc.h ****     (!defined (__ARM_FEATURE_CMSE) || (__ARM_FEATURE_CMSE < 3)))
 729:Drivers/CMSIS/Include/cmsis_gcc.h ****   // without main extensions, the non-secure MSPLIM is RAZ/WI
 730:Drivers/CMSIS/Include/cmsis_gcc.h ****   (void)MainStackPtrLimit;
 731:Drivers/CMSIS/Include/cmsis_gcc.h **** #else
 732:Drivers/CMSIS/Include/cmsis_gcc.h ****   __ASM volatile ("MSR msplim, %0" : : "r" (MainStackPtrLimit));
 733:Drivers/CMSIS/Include/cmsis_gcc.h **** #endif
 734:Drivers/CMSIS/Include/cmsis_gcc.h **** }
 735:Drivers/CMSIS/Include/cmsis_gcc.h **** 
 736:Drivers/CMSIS/Include/cmsis_gcc.h **** 
 737:Drivers/CMSIS/Include/cmsis_gcc.h **** #if (defined (__ARM_FEATURE_CMSE  ) && (__ARM_FEATURE_CMSE   == 3))
 738:Drivers/CMSIS/Include/cmsis_gcc.h **** /**
 739:Drivers/CMSIS/Include/cmsis_gcc.h ****   \brief   Set Main Stack Pointer Limit (non-secure)
 740:Drivers/CMSIS/Include/cmsis_gcc.h ****   Devices without ARMv8-M Main Extensions (i.e. Cortex-M23) lack the non-secure
 741:Drivers/CMSIS/Include/cmsis_gcc.h ****   Stack Pointer Limit register hence the write is silently ignored.
 742:Drivers/CMSIS/Include/cmsis_gcc.h **** 
 743:Drivers/CMSIS/Include/cmsis_gcc.h ****   \details Assigns the given value to the non-secure Main Stack Pointer Limit (MSPLIM) when in secu
 744:Drivers/CMSIS/Include/cmsis_gcc.h ****   \param [in]    MainStackPtrLimit  Main Stack Pointer value to set
 745:Drivers/CMSIS/Include/cmsis_gcc.h ****  */
 746:Drivers/CMSIS/Include/cmsis_gcc.h **** __STATIC_FORCEINLINE void __TZ_set_MSPLIM_NS(uint32_t MainStackPtrLimit)
 747:Drivers/CMSIS/Include/cmsis_gcc.h **** {
 748:Drivers/CMSIS/Include/cmsis_gcc.h **** #if (!(defined (__ARM_ARCH_8M_MAIN__ ) && (__ARM_ARCH_8M_MAIN__ == 1)))
 749:Drivers/CMSIS/Include/cmsis_gcc.h ****   // without main extensions, the non-secure MSPLIM is RAZ/WI
 750:Drivers/CMSIS/Include/cmsis_gcc.h ****   (void)MainStackPtrLimit;
 751:Drivers/CMSIS/Include/cmsis_gcc.h **** #else
 752:Drivers/CMSIS/Include/cmsis_gcc.h ****   __ASM volatile ("MSR msplim_ns, %0" : : "r" (MainStackPtrLimit));
 753:Drivers/CMSIS/Include/cmsis_gcc.h **** #endif
 754:Drivers/CMSIS/Include/cmsis_gcc.h **** }
 755:Drivers/CMSIS/Include/cmsis_gcc.h **** #endif
 756:Drivers/CMSIS/Include/cmsis_gcc.h **** 
 757:Drivers/CMSIS/Include/cmsis_gcc.h **** #endif /* ((defined (__ARM_ARCH_8M_MAIN__ ) && (__ARM_ARCH_8M_MAIN__ == 1)) || \
 758:Drivers/CMSIS/Include/cmsis_gcc.h ****            (defined (__ARM_ARCH_8M_BASE__ ) && (__ARM_ARCH_8M_BASE__ == 1))    ) */
 759:Drivers/CMSIS/Include/cmsis_gcc.h **** 
 760:Drivers/CMSIS/Include/cmsis_gcc.h **** 
 761:Drivers/CMSIS/Include/cmsis_gcc.h **** /**
 762:Drivers/CMSIS/Include/cmsis_gcc.h ****   \brief   Get FPSCR
 763:Drivers/CMSIS/Include/cmsis_gcc.h ****   \details Returns the current value of the Floating Point Status/Control register.
 764:Drivers/CMSIS/Include/cmsis_gcc.h ****   \return               Floating Point Status/Control register value
 765:Drivers/CMSIS/Include/cmsis_gcc.h ****  */
 766:Drivers/CMSIS/Include/cmsis_gcc.h **** __STATIC_FORCEINLINE uint32_t __get_FPSCR(void)
 767:Drivers/CMSIS/Include/cmsis_gcc.h **** {
 768:Drivers/CMSIS/Include/cmsis_gcc.h **** #if ((defined (__FPU_PRESENT) && (__FPU_PRESENT == 1U)) && \
 769:Drivers/CMSIS/Include/cmsis_gcc.h ****      (defined (__FPU_USED   ) && (__FPU_USED    == 1U))     )
 770:Drivers/CMSIS/Include/cmsis_gcc.h **** #if __has_builtin(__builtin_arm_get_fpscr) 
 771:Drivers/CMSIS/Include/cmsis_gcc.h **** // Re-enable using built-in when GCC has been fixed
 772:Drivers/CMSIS/Include/cmsis_gcc.h **** // || (__GNUC__ > 7) || (__GNUC__ == 7 && __GNUC_MINOR__ >= 2)
 773:Drivers/CMSIS/Include/cmsis_gcc.h ****   /* see https://gcc.gnu.org/ml/gcc-patches/2017-04/msg00443.html */
 774:Drivers/CMSIS/Include/cmsis_gcc.h ****   return __builtin_arm_get_fpscr();
 775:Drivers/CMSIS/Include/cmsis_gcc.h **** #else
ARM GAS  /var/folders/cw/6cmm0b_n7yj10n1wx8hfx52r0000gn/T//cchk5TpI.s 			page 27


 776:Drivers/CMSIS/Include/cmsis_gcc.h ****   uint32_t result;
 777:Drivers/CMSIS/Include/cmsis_gcc.h **** 
 778:Drivers/CMSIS/Include/cmsis_gcc.h ****   __ASM volatile ("VMRS %0, fpscr" : "=r" (result) );
 779:Drivers/CMSIS/Include/cmsis_gcc.h ****   return(result);
 780:Drivers/CMSIS/Include/cmsis_gcc.h **** #endif
 781:Drivers/CMSIS/Include/cmsis_gcc.h **** #else
 782:Drivers/CMSIS/Include/cmsis_gcc.h ****   return(0U);
 783:Drivers/CMSIS/Include/cmsis_gcc.h **** #endif
 784:Drivers/CMSIS/Include/cmsis_gcc.h **** }
 785:Drivers/CMSIS/Include/cmsis_gcc.h **** 
 786:Drivers/CMSIS/Include/cmsis_gcc.h **** 
 787:Drivers/CMSIS/Include/cmsis_gcc.h **** /**
 788:Drivers/CMSIS/Include/cmsis_gcc.h ****   \brief   Set FPSCR
 789:Drivers/CMSIS/Include/cmsis_gcc.h ****   \details Assigns the given value to the Floating Point Status/Control register.
 790:Drivers/CMSIS/Include/cmsis_gcc.h ****   \param [in]    fpscr  Floating Point Status/Control value to set
 791:Drivers/CMSIS/Include/cmsis_gcc.h ****  */
 792:Drivers/CMSIS/Include/cmsis_gcc.h **** __STATIC_FORCEINLINE void __set_FPSCR(uint32_t fpscr)
 793:Drivers/CMSIS/Include/cmsis_gcc.h **** {
 794:Drivers/CMSIS/Include/cmsis_gcc.h **** #if ((defined (__FPU_PRESENT) && (__FPU_PRESENT == 1U)) && \
 795:Drivers/CMSIS/Include/cmsis_gcc.h ****      (defined (__FPU_USED   ) && (__FPU_USED    == 1U))     )
 796:Drivers/CMSIS/Include/cmsis_gcc.h **** #if __has_builtin(__builtin_arm_set_fpscr)
 797:Drivers/CMSIS/Include/cmsis_gcc.h **** // Re-enable using built-in when GCC has been fixed
 798:Drivers/CMSIS/Include/cmsis_gcc.h **** // || (__GNUC__ > 7) || (__GNUC__ == 7 && __GNUC_MINOR__ >= 2)
 799:Drivers/CMSIS/Include/cmsis_gcc.h ****   /* see https://gcc.gnu.org/ml/gcc-patches/2017-04/msg00443.html */
 800:Drivers/CMSIS/Include/cmsis_gcc.h ****   __builtin_arm_set_fpscr(fpscr);
 801:Drivers/CMSIS/Include/cmsis_gcc.h **** #else
 802:Drivers/CMSIS/Include/cmsis_gcc.h ****   __ASM volatile ("VMSR fpscr, %0" : : "r" (fpscr) : "vfpcc", "memory");
 803:Drivers/CMSIS/Include/cmsis_gcc.h **** #endif
 804:Drivers/CMSIS/Include/cmsis_gcc.h **** #else
 805:Drivers/CMSIS/Include/cmsis_gcc.h ****   (void)fpscr;
 806:Drivers/CMSIS/Include/cmsis_gcc.h **** #endif
 807:Drivers/CMSIS/Include/cmsis_gcc.h **** }
 808:Drivers/CMSIS/Include/cmsis_gcc.h **** 
 809:Drivers/CMSIS/Include/cmsis_gcc.h **** 
 810:Drivers/CMSIS/Include/cmsis_gcc.h **** /*@} end of CMSIS_Core_RegAccFunctions */
 811:Drivers/CMSIS/Include/cmsis_gcc.h **** 
 812:Drivers/CMSIS/Include/cmsis_gcc.h **** 
 813:Drivers/CMSIS/Include/cmsis_gcc.h **** /* ##########################  Core Instruction Access  ######################### */
 814:Drivers/CMSIS/Include/cmsis_gcc.h **** /** \defgroup CMSIS_Core_InstructionInterface CMSIS Core Instruction Interface
 815:Drivers/CMSIS/Include/cmsis_gcc.h ****   Access to dedicated instructions
 816:Drivers/CMSIS/Include/cmsis_gcc.h ****   @{
 817:Drivers/CMSIS/Include/cmsis_gcc.h **** */
 818:Drivers/CMSIS/Include/cmsis_gcc.h **** 
 819:Drivers/CMSIS/Include/cmsis_gcc.h **** /* Define macros for porting to both thumb1 and thumb2.
 820:Drivers/CMSIS/Include/cmsis_gcc.h ****  * For thumb1, use low register (r0-r7), specified by constraint "l"
 821:Drivers/CMSIS/Include/cmsis_gcc.h ****  * Otherwise, use general registers, specified by constraint "r" */
 822:Drivers/CMSIS/Include/cmsis_gcc.h **** #if defined (__thumb__) && !defined (__thumb2__)
 823:Drivers/CMSIS/Include/cmsis_gcc.h **** #define __CMSIS_GCC_OUT_REG(r) "=l" (r)
 824:Drivers/CMSIS/Include/cmsis_gcc.h **** #define __CMSIS_GCC_RW_REG(r) "+l" (r)
 825:Drivers/CMSIS/Include/cmsis_gcc.h **** #define __CMSIS_GCC_USE_REG(r) "l" (r)
 826:Drivers/CMSIS/Include/cmsis_gcc.h **** #else
 827:Drivers/CMSIS/Include/cmsis_gcc.h **** #define __CMSIS_GCC_OUT_REG(r) "=r" (r)
 828:Drivers/CMSIS/Include/cmsis_gcc.h **** #define __CMSIS_GCC_RW_REG(r) "+r" (r)
 829:Drivers/CMSIS/Include/cmsis_gcc.h **** #define __CMSIS_GCC_USE_REG(r) "r" (r)
 830:Drivers/CMSIS/Include/cmsis_gcc.h **** #endif
 831:Drivers/CMSIS/Include/cmsis_gcc.h **** 
 832:Drivers/CMSIS/Include/cmsis_gcc.h **** /**
ARM GAS  /var/folders/cw/6cmm0b_n7yj10n1wx8hfx52r0000gn/T//cchk5TpI.s 			page 28


 833:Drivers/CMSIS/Include/cmsis_gcc.h ****   \brief   No Operation
 834:Drivers/CMSIS/Include/cmsis_gcc.h ****   \details No Operation does nothing. This instruction can be used for code alignment purposes.
 835:Drivers/CMSIS/Include/cmsis_gcc.h ****  */
 836:Drivers/CMSIS/Include/cmsis_gcc.h **** #define __NOP()                             __ASM volatile ("nop")
 837:Drivers/CMSIS/Include/cmsis_gcc.h **** 
 838:Drivers/CMSIS/Include/cmsis_gcc.h **** /**
 839:Drivers/CMSIS/Include/cmsis_gcc.h ****   \brief   Wait For Interrupt
 840:Drivers/CMSIS/Include/cmsis_gcc.h ****   \details Wait For Interrupt is a hint instruction that suspends execution until one of a number o
 841:Drivers/CMSIS/Include/cmsis_gcc.h ****  */
 842:Drivers/CMSIS/Include/cmsis_gcc.h **** #define __WFI()                             __ASM volatile ("wfi")
 843:Drivers/CMSIS/Include/cmsis_gcc.h **** 
 844:Drivers/CMSIS/Include/cmsis_gcc.h **** 
 845:Drivers/CMSIS/Include/cmsis_gcc.h **** /**
 846:Drivers/CMSIS/Include/cmsis_gcc.h ****   \brief   Wait For Event
 847:Drivers/CMSIS/Include/cmsis_gcc.h ****   \details Wait For Event is a hint instruction that permits the processor to enter
 848:Drivers/CMSIS/Include/cmsis_gcc.h ****            a low-power state until one of a number of events occurs.
 849:Drivers/CMSIS/Include/cmsis_gcc.h ****  */
 850:Drivers/CMSIS/Include/cmsis_gcc.h **** #define __WFE()                             __ASM volatile ("wfe")
 851:Drivers/CMSIS/Include/cmsis_gcc.h **** 
 852:Drivers/CMSIS/Include/cmsis_gcc.h **** 
 853:Drivers/CMSIS/Include/cmsis_gcc.h **** /**
 854:Drivers/CMSIS/Include/cmsis_gcc.h ****   \brief   Send Event
 855:Drivers/CMSIS/Include/cmsis_gcc.h ****   \details Send Event is a hint instruction. It causes an event to be signaled to the CPU.
 856:Drivers/CMSIS/Include/cmsis_gcc.h ****  */
 857:Drivers/CMSIS/Include/cmsis_gcc.h **** #define __SEV()                             __ASM volatile ("sev")
 858:Drivers/CMSIS/Include/cmsis_gcc.h **** 
 859:Drivers/CMSIS/Include/cmsis_gcc.h **** 
 860:Drivers/CMSIS/Include/cmsis_gcc.h **** /**
 861:Drivers/CMSIS/Include/cmsis_gcc.h ****   \brief   Instruction Synchronization Barrier
 862:Drivers/CMSIS/Include/cmsis_gcc.h ****   \details Instruction Synchronization Barrier flushes the pipeline in the processor,
 863:Drivers/CMSIS/Include/cmsis_gcc.h ****            so that all instructions following the ISB are fetched from cache or memory,
 864:Drivers/CMSIS/Include/cmsis_gcc.h ****            after the instruction has been completed.
 865:Drivers/CMSIS/Include/cmsis_gcc.h ****  */
 866:Drivers/CMSIS/Include/cmsis_gcc.h **** __STATIC_FORCEINLINE void __ISB(void)
  51              		.loc 2 866 27 view .LVU6
  52              	.LBB11:
 867:Drivers/CMSIS/Include/cmsis_gcc.h **** {
 868:Drivers/CMSIS/Include/cmsis_gcc.h ****   __ASM volatile ("isb 0xF":::"memory");
  53              		.loc 2 868 3 view .LVU7
  54              		.syntax divided
  55              	@ 868 "Drivers/CMSIS/Include/cmsis_gcc.h" 1
  56 000e BFF36F8F 		isb 0xF
  57              	@ 0 "" 2
  58              		.thumb
  59              		.syntax unified
  60              	.LBE11:
  61              	.LBE10:
 659:Drivers/STM32G0xx_HAL_Driver/Src/stm32g0xx_hal_flash.c **** 
 660:Drivers/STM32G0xx_HAL_Driver/Src/stm32g0xx_hal_flash.c ****   /* Program second word */
 661:Drivers/STM32G0xx_HAL_Driver/Src/stm32g0xx_hal_flash.c ****   *(uint32_t *)(Address + 4U) = (uint32_t)(Data >> 32U);
  62              		.loc 1 661 3 view .LVU8
  63              		.loc 1 661 31 is_stmt 0 view .LVU9
  64 0012 4360     		str	r3, [r0, #4]
 662:Drivers/STM32G0xx_HAL_Driver/Src/stm32g0xx_hal_flash.c **** }
  65              		.loc 1 662 1 view .LVU10
  66              		@ sp needed
  67 0014 30BD     		pop	{r4, r5, pc}
ARM GAS  /var/folders/cw/6cmm0b_n7yj10n1wx8hfx52r0000gn/T//cchk5TpI.s 			page 29


  68              	.L3:
  69 0016 C046     		.align	2
  70              	.L2:
  71 0018 00200240 		.word	1073881088
  72              		.cfi_endproc
  73              	.LFE170:
  75              		.section	.RamFunc,"ax",%progbits
  76              		.align	1
  77              		.syntax unified
  78              		.code	16
  79              		.thumb_func
  81              	FLASH_Program_Fast:
  82              	.LVL1:
  83              	.LFB171:
 663:Drivers/STM32G0xx_HAL_Driver/Src/stm32g0xx_hal_flash.c **** 
 664:Drivers/STM32G0xx_HAL_Driver/Src/stm32g0xx_hal_flash.c **** /**
 665:Drivers/STM32G0xx_HAL_Driver/Src/stm32g0xx_hal_flash.c ****   * @brief  Fast program a 32 row double-word (64-bit) at a specified address.
 666:Drivers/STM32G0xx_HAL_Driver/Src/stm32g0xx_hal_flash.c ****   * @param  Address Specifies the address to be programmed.
 667:Drivers/STM32G0xx_HAL_Driver/Src/stm32g0xx_hal_flash.c ****   * @param  DataAddress Specifies the address where the data are stored.
 668:Drivers/STM32G0xx_HAL_Driver/Src/stm32g0xx_hal_flash.c ****   * @retval None
 669:Drivers/STM32G0xx_HAL_Driver/Src/stm32g0xx_hal_flash.c ****   */
 670:Drivers/STM32G0xx_HAL_Driver/Src/stm32g0xx_hal_flash.c **** static __RAM_FUNC void FLASH_Program_Fast(uint32_t Address, uint32_t DataAddress)
 671:Drivers/STM32G0xx_HAL_Driver/Src/stm32g0xx_hal_flash.c **** {
  84              		.loc 1 671 1 is_stmt 1 view -0
  85              		.cfi_startproc
  86              		@ args = 0, pretend = 0, frame = 0
  87              		@ frame_needed = 0, uses_anonymous_args = 0
  88              		.loc 1 671 1 is_stmt 0 view .LVU12
  89 0000 10B5     		push	{r4, lr}
  90              	.LCFI1:
  91              		.cfi_def_cfa_offset 8
  92              		.cfi_offset 4, -8
  93              		.cfi_offset 14, -4
 672:Drivers/STM32G0xx_HAL_Driver/Src/stm32g0xx_hal_flash.c ****   uint8_t index = 0;
  94              		.loc 1 672 3 is_stmt 1 view .LVU13
  95              	.LVL2:
 673:Drivers/STM32G0xx_HAL_Driver/Src/stm32g0xx_hal_flash.c ****   uint32_t dest = Address;
  96              		.loc 1 673 3 view .LVU14
 674:Drivers/STM32G0xx_HAL_Driver/Src/stm32g0xx_hal_flash.c ****   uint32_t src = DataAddress;
  97              		.loc 1 674 3 view .LVU15
 675:Drivers/STM32G0xx_HAL_Driver/Src/stm32g0xx_hal_flash.c ****   uint32_t primask_bit;
  98              		.loc 1 675 3 view .LVU16
 676:Drivers/STM32G0xx_HAL_Driver/Src/stm32g0xx_hal_flash.c **** 
 677:Drivers/STM32G0xx_HAL_Driver/Src/stm32g0xx_hal_flash.c ****   /* Set FSTPG bit */
 678:Drivers/STM32G0xx_HAL_Driver/Src/stm32g0xx_hal_flash.c ****   SET_BIT(FLASH->CR, FLASH_CR_FSTPG);
  99              		.loc 1 678 3 view .LVU17
 100 0002 0C4A     		ldr	r2, .L9
 101 0004 5469     		ldr	r4, [r2, #20]
 102 0006 8023     		movs	r3, #128
 103 0008 DB02     		lsls	r3, r3, #11
 104 000a 2343     		orrs	r3, r4
 105 000c 5361     		str	r3, [r2, #20]
 679:Drivers/STM32G0xx_HAL_Driver/Src/stm32g0xx_hal_flash.c **** 
 680:Drivers/STM32G0xx_HAL_Driver/Src/stm32g0xx_hal_flash.c ****   /* Enter critical section: row programming should not be longer than 7 ms */
 681:Drivers/STM32G0xx_HAL_Driver/Src/stm32g0xx_hal_flash.c ****   primask_bit = __get_PRIMASK();
 106              		.loc 1 681 3 view .LVU18
 107              	.LBB12:
ARM GAS  /var/folders/cw/6cmm0b_n7yj10n1wx8hfx52r0000gn/T//cchk5TpI.s 			page 30


 108              	.LBI12:
 382:Drivers/CMSIS/Include/cmsis_gcc.h **** {
 109              		.loc 2 382 31 view .LVU19
 110              	.LBB13:
 384:Drivers/CMSIS/Include/cmsis_gcc.h **** 
 111              		.loc 2 384 3 view .LVU20
 386:Drivers/CMSIS/Include/cmsis_gcc.h ****   return(result);
 112              		.loc 2 386 3 view .LVU21
 113              		.syntax divided
 114              	@ 386 "Drivers/CMSIS/Include/cmsis_gcc.h" 1
 115 000e EFF31084 		MRS r4, primask
 116              	@ 0 "" 2
 117              	.LVL3:
 387:Drivers/CMSIS/Include/cmsis_gcc.h **** }
 118              		.loc 2 387 3 view .LVU22
 387:Drivers/CMSIS/Include/cmsis_gcc.h **** }
 119              		.loc 2 387 3 is_stmt 0 view .LVU23
 120              		.thumb
 121              		.syntax unified
 122              	.LBE13:
 123              	.LBE12:
 682:Drivers/STM32G0xx_HAL_Driver/Src/stm32g0xx_hal_flash.c ****   __disable_irq();
 124              		.loc 1 682 3 is_stmt 1 view .LVU24
 125              	.LBB14:
 126              	.LBI14:
 140:Drivers/CMSIS/Include/cmsis_gcc.h **** {
 127              		.loc 2 140 27 view .LVU25
 128              	.LBB15:
 142:Drivers/CMSIS/Include/cmsis_gcc.h **** }
 129              		.loc 2 142 3 view .LVU26
 130              		.syntax divided
 131              	@ 142 "Drivers/CMSIS/Include/cmsis_gcc.h" 1
 132 0012 72B6     		cpsid i
 133              	@ 0 "" 2
 134              		.thumb
 135              		.syntax unified
 136              	.LBE15:
 137              	.LBE14:
 672:Drivers/STM32G0xx_HAL_Driver/Src/stm32g0xx_hal_flash.c ****   uint32_t dest = Address;
 138              		.loc 1 672 11 is_stmt 0 view .LVU27
 139 0014 0023     		movs	r3, #0
 140              	.LBB17:
 141              	.LBB16:
 143:Drivers/CMSIS/Include/cmsis_gcc.h **** 
 142              		.loc 2 143 1 view .LVU28
 143 0016 03E0     		b	.L5
 144              	.LVL4:
 145              	.L6:
 143:Drivers/CMSIS/Include/cmsis_gcc.h **** 
 146              		.loc 2 143 1 view .LVU29
 147              	.LBE16:
 148              	.LBE17:
 683:Drivers/STM32G0xx_HAL_Driver/Src/stm32g0xx_hal_flash.c **** 
 684:Drivers/STM32G0xx_HAL_Driver/Src/stm32g0xx_hal_flash.c ****   /* Fast Program : 64 words */
 685:Drivers/STM32G0xx_HAL_Driver/Src/stm32g0xx_hal_flash.c ****   while (index < 64U)
 686:Drivers/STM32G0xx_HAL_Driver/Src/stm32g0xx_hal_flash.c ****   {
 687:Drivers/STM32G0xx_HAL_Driver/Src/stm32g0xx_hal_flash.c ****     *(uint32_t *)dest = *(uint32_t *)src;
ARM GAS  /var/folders/cw/6cmm0b_n7yj10n1wx8hfx52r0000gn/T//cchk5TpI.s 			page 31


 149              		.loc 1 687 5 is_stmt 1 view .LVU30
 150              		.loc 1 687 25 is_stmt 0 view .LVU31
 151 0018 04C9     		ldmia	r1!, {r2}
 152              	.LVL5:
 153              		.loc 1 687 23 view .LVU32
 154 001a 04C0     		stmia	r0!, {r2}
 155              	.LVL6:
 688:Drivers/STM32G0xx_HAL_Driver/Src/stm32g0xx_hal_flash.c ****     src += 4U;
 156              		.loc 1 688 5 is_stmt 1 view .LVU33
 689:Drivers/STM32G0xx_HAL_Driver/Src/stm32g0xx_hal_flash.c ****     dest += 4U;
 157              		.loc 1 689 5 view .LVU34
 690:Drivers/STM32G0xx_HAL_Driver/Src/stm32g0xx_hal_flash.c ****     index++;
 158              		.loc 1 690 5 view .LVU35
 159              		.loc 1 690 10 is_stmt 0 view .LVU36
 160 001c 0133     		adds	r3, r3, #1
 161              	.LVL7:
 162              		.loc 1 690 10 view .LVU37
 163 001e DBB2     		uxtb	r3, r3
 164              	.LVL8:
 165              	.L5:
 685:Drivers/STM32G0xx_HAL_Driver/Src/stm32g0xx_hal_flash.c ****   {
 166              		.loc 1 685 16 is_stmt 1 view .LVU38
 167 0020 3F2B     		cmp	r3, #63
 168 0022 F9D9     		bls	.L6
 169              	.LVL9:
 170              	.L7:
 691:Drivers/STM32G0xx_HAL_Driver/Src/stm32g0xx_hal_flash.c ****   }
 692:Drivers/STM32G0xx_HAL_Driver/Src/stm32g0xx_hal_flash.c **** 
 693:Drivers/STM32G0xx_HAL_Driver/Src/stm32g0xx_hal_flash.c ****   /* wait for BSY1 in order to be sure that flash operation is ended befoire
 694:Drivers/STM32G0xx_HAL_Driver/Src/stm32g0xx_hal_flash.c ****      allowing prefetch in flash. Timeout does not return status, as it will
 695:Drivers/STM32G0xx_HAL_Driver/Src/stm32g0xx_hal_flash.c ****      be anyway done later */
 696:Drivers/STM32G0xx_HAL_Driver/Src/stm32g0xx_hal_flash.c ****   while ((FLASH->SR & FLASH_SR_BSY1) != 0x00U)
 697:Drivers/STM32G0xx_HAL_Driver/Src/stm32g0xx_hal_flash.c ****   {
 698:Drivers/STM32G0xx_HAL_Driver/Src/stm32g0xx_hal_flash.c ****   }
 171              		.loc 1 698 3 discriminator 1 view .LVU39
 696:Drivers/STM32G0xx_HAL_Driver/Src/stm32g0xx_hal_flash.c ****   {
 172              		.loc 1 696 38 discriminator 1 view .LVU40
 696:Drivers/STM32G0xx_HAL_Driver/Src/stm32g0xx_hal_flash.c ****   {
 173              		.loc 1 696 16 is_stmt 0 discriminator 1 view .LVU41
 174 0024 034B     		ldr	r3, .L9
 175 0026 1B69     		ldr	r3, [r3, #16]
 696:Drivers/STM32G0xx_HAL_Driver/Src/stm32g0xx_hal_flash.c ****   {
 176              		.loc 1 696 38 discriminator 1 view .LVU42
 177 0028 DB03     		lsls	r3, r3, #15
 178 002a FBD4     		bmi	.L7
 699:Drivers/STM32G0xx_HAL_Driver/Src/stm32g0xx_hal_flash.c **** 
 700:Drivers/STM32G0xx_HAL_Driver/Src/stm32g0xx_hal_flash.c ****   /* Exit critical section: restore previous priority mask */
 701:Drivers/STM32G0xx_HAL_Driver/Src/stm32g0xx_hal_flash.c ****   __set_PRIMASK(primask_bit);
 179              		.loc 1 701 3 is_stmt 1 view .LVU43
 180              	.LBB18:
 181              	.LBI18:
 412:Drivers/CMSIS/Include/cmsis_gcc.h **** {
 182              		.loc 2 412 27 view .LVU44
 183              	.LBB19:
 414:Drivers/CMSIS/Include/cmsis_gcc.h **** }
 184              		.loc 2 414 3 view .LVU45
 185              		.syntax divided
ARM GAS  /var/folders/cw/6cmm0b_n7yj10n1wx8hfx52r0000gn/T//cchk5TpI.s 			page 32


 186              	@ 414 "Drivers/CMSIS/Include/cmsis_gcc.h" 1
 187 002c 84F31088 		MSR primask, r4
 188              	@ 0 "" 2
 189              		.thumb
 190              		.syntax unified
 191              	.LBE19:
 192              	.LBE18:
 702:Drivers/STM32G0xx_HAL_Driver/Src/stm32g0xx_hal_flash.c **** }
 193              		.loc 1 702 1 is_stmt 0 view .LVU46
 194              		@ sp needed
 195              	.LVL10:
 196              		.loc 1 702 1 view .LVU47
 197 0030 10BD     		pop	{r4, pc}
 198              	.L10:
 199 0032 C046     		.align	2
 200              	.L9:
 201 0034 00200240 		.word	1073881088
 202              		.cfi_endproc
 203              	.LFE171:
 205              		.section	.text.HAL_FLASH_EndOfOperationCallback,"ax",%progbits
 206              		.align	1
 207              		.weak	HAL_FLASH_EndOfOperationCallback
 208              		.syntax unified
 209              		.code	16
 210              		.thumb_func
 212              	HAL_FLASH_EndOfOperationCallback:
 213              	.LVL11:
 214              	.LFB161:
 379:Drivers/STM32G0xx_HAL_Driver/Src/stm32g0xx_hal_flash.c ****   /* Prevent unused argument(s) compilation warning */
 215              		.loc 1 379 1 is_stmt 1 view -0
 216              		.cfi_startproc
 217              		@ args = 0, pretend = 0, frame = 0
 218              		@ frame_needed = 0, uses_anonymous_args = 0
 219              		@ link register save eliminated.
 381:Drivers/STM32G0xx_HAL_Driver/Src/stm32g0xx_hal_flash.c **** 
 220              		.loc 1 381 3 view .LVU49
 386:Drivers/STM32G0xx_HAL_Driver/Src/stm32g0xx_hal_flash.c **** 
 221              		.loc 1 386 1 is_stmt 0 view .LVU50
 222              		@ sp needed
 223 0000 7047     		bx	lr
 224              		.cfi_endproc
 225              	.LFE161:
 227              		.section	.text.HAL_FLASH_OperationErrorCallback,"ax",%progbits
 228              		.align	1
 229              		.weak	HAL_FLASH_OperationErrorCallback
 230              		.syntax unified
 231              		.code	16
 232              		.thumb_func
 234              	HAL_FLASH_OperationErrorCallback:
 235              	.LVL12:
 236              	.LFB162:
 397:Drivers/STM32G0xx_HAL_Driver/Src/stm32g0xx_hal_flash.c ****   /* Prevent unused argument(s) compilation warning */
 237              		.loc 1 397 1 is_stmt 1 view -0
 238              		.cfi_startproc
 239              		@ args = 0, pretend = 0, frame = 0
 240              		@ frame_needed = 0, uses_anonymous_args = 0
 241              		@ link register save eliminated.
ARM GAS  /var/folders/cw/6cmm0b_n7yj10n1wx8hfx52r0000gn/T//cchk5TpI.s 			page 33


 399:Drivers/STM32G0xx_HAL_Driver/Src/stm32g0xx_hal_flash.c **** 
 242              		.loc 1 399 3 view .LVU52
 404:Drivers/STM32G0xx_HAL_Driver/Src/stm32g0xx_hal_flash.c **** 
 243              		.loc 1 404 1 is_stmt 0 view .LVU53
 244              		@ sp needed
 245 0000 7047     		bx	lr
 246              		.cfi_endproc
 247              	.LFE162:
 249              		.section	.text.HAL_FLASH_IRQHandler,"ax",%progbits
 250              		.align	1
 251              		.global	HAL_FLASH_IRQHandler
 252              		.syntax unified
 253              		.code	16
 254              		.thumb_func
 256              	HAL_FLASH_IRQHandler:
 257              	.LFB160:
 282:Drivers/STM32G0xx_HAL_Driver/Src/stm32g0xx_hal_flash.c ****   uint32_t param = 0xFFFFFFFFU;
 258              		.loc 1 282 1 is_stmt 1 view -0
 259              		.cfi_startproc
 260              		@ args = 0, pretend = 0, frame = 0
 261              		@ frame_needed = 0, uses_anonymous_args = 0
 262 0000 10B5     		push	{r4, lr}
 263              	.LCFI2:
 264              		.cfi_def_cfa_offset 8
 265              		.cfi_offset 4, -8
 266              		.cfi_offset 14, -4
 283:Drivers/STM32G0xx_HAL_Driver/Src/stm32g0xx_hal_flash.c ****   uint32_t error;
 267              		.loc 1 283 3 view .LVU55
 268              	.LVL13:
 284:Drivers/STM32G0xx_HAL_Driver/Src/stm32g0xx_hal_flash.c **** 
 269              		.loc 1 284 3 view .LVU56
 288:Drivers/STM32G0xx_HAL_Driver/Src/stm32g0xx_hal_flash.c ****   error |= (FLASH->ECCR & FLASH_FLAG_ECCC);
 270              		.loc 1 288 3 view .LVU57
 288:Drivers/STM32G0xx_HAL_Driver/Src/stm32g0xx_hal_flash.c ****   error |= (FLASH->ECCR & FLASH_FLAG_ECCC);
 271              		.loc 1 288 17 is_stmt 0 view .LVU58
 272 0002 354A     		ldr	r2, .L28
 273 0004 1369     		ldr	r3, [r2, #16]
 288:Drivers/STM32G0xx_HAL_Driver/Src/stm32g0xx_hal_flash.c ****   error |= (FLASH->ECCR & FLASH_FLAG_ECCC);
 274              		.loc 1 288 9 view .LVU59
 275 0006 3549     		ldr	r1, .L28+4
 276 0008 0B40     		ands	r3, r1
 277              	.LVL14:
 289:Drivers/STM32G0xx_HAL_Driver/Src/stm32g0xx_hal_flash.c **** 
 278              		.loc 1 289 3 is_stmt 1 view .LVU60
 289:Drivers/STM32G0xx_HAL_Driver/Src/stm32g0xx_hal_flash.c **** 
 279              		.loc 1 289 18 is_stmt 0 view .LVU61
 280 000a 9169     		ldr	r1, [r2, #24]
 289:Drivers/STM32G0xx_HAL_Driver/Src/stm32g0xx_hal_flash.c **** 
 281              		.loc 1 289 25 view .LVU62
 282 000c 8020     		movs	r0, #128
 283 000e C005     		lsls	r0, r0, #23
 284 0010 0140     		ands	r1, r0
 289:Drivers/STM32G0xx_HAL_Driver/Src/stm32g0xx_hal_flash.c **** 
 285              		.loc 1 289 9 view .LVU63
 286 0012 0B43     		orrs	r3, r1
 287              	.LVL15:
 291:Drivers/STM32G0xx_HAL_Driver/Src/stm32g0xx_hal_flash.c **** 
ARM GAS  /var/folders/cw/6cmm0b_n7yj10n1wx8hfx52r0000gn/T//cchk5TpI.s 			page 34


 288              		.loc 1 291 3 is_stmt 1 view .LVU64
 289 0014 5169     		ldr	r1, [r2, #20]
 290 0016 3248     		ldr	r0, .L28+8
 291 0018 8068     		ldr	r0, [r0, #8]
 292 001a 8143     		bics	r1, r0
 293 001c 5161     		str	r1, [r2, #20]
 295:Drivers/STM32G0xx_HAL_Driver/Src/stm32g0xx_hal_flash.c ****   {
 294              		.loc 1 295 3 view .LVU65
 295:Drivers/STM32G0xx_HAL_Driver/Src/stm32g0xx_hal_flash.c ****   {
 295              		.loc 1 295 32 is_stmt 0 view .LVU66
 296 001e 314A     		ldr	r2, .L28+12
 295:Drivers/STM32G0xx_HAL_Driver/Src/stm32g0xx_hal_flash.c ****   {
 297              		.loc 1 295 6 view .LVU67
 298 0020 1042     		tst	r0, r2
 299 0022 3FD0     		beq	.L14
 298:Drivers/STM32G0xx_HAL_Driver/Src/stm32g0xx_hal_flash.c ****   }
 300              		.loc 1 298 5 is_stmt 1 view .LVU68
 298:Drivers/STM32G0xx_HAL_Driver/Src/stm32g0xx_hal_flash.c ****   }
 301              		.loc 1 298 11 is_stmt 0 view .LVU69
 302 0024 2E4A     		ldr	r2, .L28+8
 303 0026 D468     		ldr	r4, [r2, #12]
 304              	.LVL16:
 305              	.L15:
 308:Drivers/STM32G0xx_HAL_Driver/Src/stm32g0xx_hal_flash.c **** 
 306              		.loc 1 308 3 is_stmt 1 view .LVU70
 311:Drivers/STM32G0xx_HAL_Driver/Src/stm32g0xx_hal_flash.c ****   {
 307              		.loc 1 311 3 view .LVU71
 311:Drivers/STM32G0xx_HAL_Driver/Src/stm32g0xx_hal_flash.c ****   {
 308              		.loc 1 311 6 is_stmt 0 view .LVU72
 309 0028 002B     		cmp	r3, #0
 310 002a 19D0     		beq	.L16
 314:Drivers/STM32G0xx_HAL_Driver/Src/stm32g0xx_hal_flash.c **** 
 311              		.loc 1 314 5 is_stmt 1 view .LVU73
 314:Drivers/STM32G0xx_HAL_Driver/Src/stm32g0xx_hal_flash.c **** 
 312              		.loc 1 314 11 is_stmt 0 view .LVU74
 313 002c 2C49     		ldr	r1, .L28+8
 314 002e 4A68     		ldr	r2, [r1, #4]
 314:Drivers/STM32G0xx_HAL_Driver/Src/stm32g0xx_hal_flash.c **** 
 315              		.loc 1 314 22 view .LVU75
 316 0030 1A43     		orrs	r2, r3
 317 0032 4A60     		str	r2, [r1, #4]
 317:Drivers/STM32G0xx_HAL_Driver/Src/stm32g0xx_hal_flash.c **** 
 318              		.loc 1 317 5 is_stmt 1 view .LVU76
 317:Drivers/STM32G0xx_HAL_Driver/Src/stm32g0xx_hal_flash.c **** 
 319              		.loc 1 317 5 view .LVU77
 320 0034 8022     		movs	r2, #128
 321 0036 D205     		lsls	r2, r2, #23
 322 0038 9342     		cmp	r3, r2
 323 003a 05D3     		bcc	.L17
 317:Drivers/STM32G0xx_HAL_Driver/Src/stm32g0xx_hal_flash.c **** 
 324              		.loc 1 317 5 discriminator 1 view .LVU78
 325 003c 2648     		ldr	r0, .L28
 326 003e 8269     		ldr	r2, [r0, #24]
 327 0040 990F     		lsrs	r1, r3, #30
 328 0042 8907     		lsls	r1, r1, #30
 329 0044 0A43     		orrs	r2, r1
 330 0046 8261     		str	r2, [r0, #24]
ARM GAS  /var/folders/cw/6cmm0b_n7yj10n1wx8hfx52r0000gn/T//cchk5TpI.s 			page 35


 331              	.L17:
 317:Drivers/STM32G0xx_HAL_Driver/Src/stm32g0xx_hal_flash.c **** 
 332              		.loc 1 317 5 discriminator 3 view .LVU79
 333 0048 9B00     		lsls	r3, r3, #2
 334              	.LVL17:
 317:Drivers/STM32G0xx_HAL_Driver/Src/stm32g0xx_hal_flash.c **** 
 335              		.loc 1 317 5 is_stmt 0 discriminator 3 view .LVU80
 336 004a 9A08     		lsrs	r2, r3, #2
 337 004c 002B     		cmp	r3, #0
 338 004e 01D0     		beq	.L18
 317:Drivers/STM32G0xx_HAL_Driver/Src/stm32g0xx_hal_flash.c **** 
 339              		.loc 1 317 5 is_stmt 1 discriminator 4 view .LVU81
 340 0050 214B     		ldr	r3, .L28
 341 0052 1A61     		str	r2, [r3, #16]
 342              	.L18:
 317:Drivers/STM32G0xx_HAL_Driver/Src/stm32g0xx_hal_flash.c **** 
 343              		.loc 1 317 5 discriminator 6 view .LVU82
 320:Drivers/STM32G0xx_HAL_Driver/Src/stm32g0xx_hal_flash.c **** 
 344              		.loc 1 320 5 discriminator 6 view .LVU83
 320:Drivers/STM32G0xx_HAL_Driver/Src/stm32g0xx_hal_flash.c **** 
 345              		.loc 1 320 29 is_stmt 0 discriminator 6 view .LVU84
 346 0054 224B     		ldr	r3, .L28+8
 347 0056 0022     		movs	r2, #0
 348 0058 9A60     		str	r2, [r3, #8]
 323:Drivers/STM32G0xx_HAL_Driver/Src/stm32g0xx_hal_flash.c ****   }
 349              		.loc 1 323 5 is_stmt 1 discriminator 6 view .LVU85
 350 005a 2000     		movs	r0, r4
 351 005c FFF7FEFF 		bl	HAL_FLASH_OperationErrorCallback
 352              	.LVL18:
 353              	.L16:
 327:Drivers/STM32G0xx_HAL_Driver/Src/stm32g0xx_hal_flash.c ****   {
 354              		.loc 1 327 3 view .LVU86
 327:Drivers/STM32G0xx_HAL_Driver/Src/stm32g0xx_hal_flash.c ****   {
 355              		.loc 1 327 7 is_stmt 0 view .LVU87
 356 0060 1D4B     		ldr	r3, .L28
 357 0062 1B69     		ldr	r3, [r3, #16]
 327:Drivers/STM32G0xx_HAL_Driver/Src/stm32g0xx_hal_flash.c ****   {
 358              		.loc 1 327 6 view .LVU88
 359 0064 DB07     		lsls	r3, r3, #31
 360 0066 0CD5     		bpl	.L19
 330:Drivers/STM32G0xx_HAL_Driver/Src/stm32g0xx_hal_flash.c **** 
 361              		.loc 1 330 5 is_stmt 1 discriminator 4 view .LVU89
 330:Drivers/STM32G0xx_HAL_Driver/Src/stm32g0xx_hal_flash.c **** 
 362              		.loc 1 330 5 discriminator 4 view .LVU90
 330:Drivers/STM32G0xx_HAL_Driver/Src/stm32g0xx_hal_flash.c **** 
 363              		.loc 1 330 5 discriminator 4 view .LVU91
 330:Drivers/STM32G0xx_HAL_Driver/Src/stm32g0xx_hal_flash.c **** 
 364              		.loc 1 330 5 discriminator 4 view .LVU92
 365 0068 1B4B     		ldr	r3, .L28
 366 006a 0122     		movs	r2, #1
 367 006c 1A61     		str	r2, [r3, #16]
 330:Drivers/STM32G0xx_HAL_Driver/Src/stm32g0xx_hal_flash.c **** 
 368              		.loc 1 330 5 discriminator 4 view .LVU93
 332:Drivers/STM32G0xx_HAL_Driver/Src/stm32g0xx_hal_flash.c ****     {
 369              		.loc 1 332 5 discriminator 4 view .LVU94
 332:Drivers/STM32G0xx_HAL_Driver/Src/stm32g0xx_hal_flash.c ****     {
 370              		.loc 1 332 15 is_stmt 0 discriminator 4 view .LVU95
ARM GAS  /var/folders/cw/6cmm0b_n7yj10n1wx8hfx52r0000gn/T//cchk5TpI.s 			page 36


 371 006e 1C4B     		ldr	r3, .L28+8
 372 0070 9B68     		ldr	r3, [r3, #8]
 332:Drivers/STM32G0xx_HAL_Driver/Src/stm32g0xx_hal_flash.c ****     {
 373              		.loc 1 332 8 discriminator 4 view .LVU96
 374 0072 022B     		cmp	r3, #2
 375 0074 1FD0     		beq	.L26
 353:Drivers/STM32G0xx_HAL_Driver/Src/stm32g0xx_hal_flash.c ****     }
 376              		.loc 1 353 7 is_stmt 1 view .LVU97
 353:Drivers/STM32G0xx_HAL_Driver/Src/stm32g0xx_hal_flash.c ****     }
 377              		.loc 1 353 31 is_stmt 0 view .LVU98
 378 0076 1A4B     		ldr	r3, .L28+8
 379 0078 0022     		movs	r2, #0
 380 007a 9A60     		str	r2, [r3, #8]
 381              	.L22:
 357:Drivers/STM32G0xx_HAL_Driver/Src/stm32g0xx_hal_flash.c ****   }
 382              		.loc 1 357 5 is_stmt 1 view .LVU99
 383 007c 2000     		movs	r0, r4
 384 007e FFF7FEFF 		bl	HAL_FLASH_EndOfOperationCallback
 385              	.LVL19:
 386              	.L19:
 360:Drivers/STM32G0xx_HAL_Driver/Src/stm32g0xx_hal_flash.c ****   {
 387              		.loc 1 360 3 view .LVU100
 360:Drivers/STM32G0xx_HAL_Driver/Src/stm32g0xx_hal_flash.c ****   {
 388              		.loc 1 360 13 is_stmt 0 view .LVU101
 389 0082 174B     		ldr	r3, .L28+8
 390 0084 9B68     		ldr	r3, [r3, #8]
 360:Drivers/STM32G0xx_HAL_Driver/Src/stm32g0xx_hal_flash.c ****   {
 391              		.loc 1 360 6 view .LVU102
 392 0086 002B     		cmp	r3, #0
 393 0088 0BD1     		bne	.L13
 363:Drivers/STM32G0xx_HAL_Driver/Src/stm32g0xx_hal_flash.c **** 
 394              		.loc 1 363 5 is_stmt 1 discriminator 1 view .LVU103
 363:Drivers/STM32G0xx_HAL_Driver/Src/stm32g0xx_hal_flash.c **** 
 395              		.loc 1 363 5 discriminator 1 view .LVU104
 363:Drivers/STM32G0xx_HAL_Driver/Src/stm32g0xx_hal_flash.c **** 
 396              		.loc 1 363 5 discriminator 1 view .LVU105
 397 008a 134B     		ldr	r3, .L28
 398 008c 9A69     		ldr	r2, [r3, #24]
 399 008e 1649     		ldr	r1, .L28+16
 400 0090 0A40     		ands	r2, r1
 401 0092 9A61     		str	r2, [r3, #24]
 363:Drivers/STM32G0xx_HAL_Driver/Src/stm32g0xx_hal_flash.c **** 
 402              		.loc 1 363 5 discriminator 1 view .LVU106
 363:Drivers/STM32G0xx_HAL_Driver/Src/stm32g0xx_hal_flash.c **** 
 403              		.loc 1 363 5 discriminator 1 view .LVU107
 404 0094 5A69     		ldr	r2, [r3, #20]
 405 0096 1549     		ldr	r1, .L28+20
 406 0098 0A40     		ands	r2, r1
 407 009a 5A61     		str	r2, [r3, #20]
 363:Drivers/STM32G0xx_HAL_Driver/Src/stm32g0xx_hal_flash.c **** 
 408              		.loc 1 363 5 discriminator 1 view .LVU108
 366:Drivers/STM32G0xx_HAL_Driver/Src/stm32g0xx_hal_flash.c ****   }
 409              		.loc 1 366 5 discriminator 1 view .LVU109
 366:Drivers/STM32G0xx_HAL_Driver/Src/stm32g0xx_hal_flash.c ****   }
 410              		.loc 1 366 5 discriminator 1 view .LVU110
 411 009c 104B     		ldr	r3, .L28+8
 412 009e 0022     		movs	r2, #0
ARM GAS  /var/folders/cw/6cmm0b_n7yj10n1wx8hfx52r0000gn/T//cchk5TpI.s 			page 37


 413 00a0 1A70     		strb	r2, [r3]
 366:Drivers/STM32G0xx_HAL_Driver/Src/stm32g0xx_hal_flash.c ****   }
 414              		.loc 1 366 5 discriminator 1 view .LVU111
 415              	.L13:
 368:Drivers/STM32G0xx_HAL_Driver/Src/stm32g0xx_hal_flash.c **** 
 416              		.loc 1 368 1 is_stmt 0 view .LVU112
 417              		@ sp needed
 418              	.LVL20:
 368:Drivers/STM32G0xx_HAL_Driver/Src/stm32g0xx_hal_flash.c **** 
 419              		.loc 1 368 1 view .LVU113
 420 00a2 10BD     		pop	{r4, pc}
 421              	.LVL21:
 422              	.L14:
 300:Drivers/STM32G0xx_HAL_Driver/Src/stm32g0xx_hal_flash.c ****   {
 423              		.loc 1 300 8 is_stmt 1 view .LVU114
 300:Drivers/STM32G0xx_HAL_Driver/Src/stm32g0xx_hal_flash.c ****   {
 424              		.loc 1 300 37 is_stmt 0 view .LVU115
 425 00a4 0622     		movs	r2, #6
 300:Drivers/STM32G0xx_HAL_Driver/Src/stm32g0xx_hal_flash.c ****   {
 426              		.loc 1 300 11 view .LVU116
 427 00a6 0242     		tst	r2, r0
 428 00a8 02D0     		beq	.L24
 303:Drivers/STM32G0xx_HAL_Driver/Src/stm32g0xx_hal_flash.c ****   }
 429              		.loc 1 303 5 is_stmt 1 view .LVU117
 303:Drivers/STM32G0xx_HAL_Driver/Src/stm32g0xx_hal_flash.c ****   }
 430              		.loc 1 303 11 is_stmt 0 view .LVU118
 431 00aa 0D4A     		ldr	r2, .L28+8
 432 00ac 1469     		ldr	r4, [r2, #16]
 433              	.LVL22:
 303:Drivers/STM32G0xx_HAL_Driver/Src/stm32g0xx_hal_flash.c ****   }
 434              		.loc 1 303 11 view .LVU119
 435 00ae BBE7     		b	.L15
 436              	.LVL23:
 437              	.L24:
 283:Drivers/STM32G0xx_HAL_Driver/Src/stm32g0xx_hal_flash.c ****   uint32_t error;
 438              		.loc 1 283 12 view .LVU120
 439 00b0 0124     		movs	r4, #1
 440 00b2 6442     		rsbs	r4, r4, #0
 441 00b4 B8E7     		b	.L15
 442              	.LVL24:
 443              	.L26:
 335:Drivers/STM32G0xx_HAL_Driver/Src/stm32g0xx_hal_flash.c **** 
 444              		.loc 1 335 7 is_stmt 1 view .LVU121
 335:Drivers/STM32G0xx_HAL_Driver/Src/stm32g0xx_hal_flash.c **** 
 445              		.loc 1 335 13 is_stmt 0 view .LVU122
 446 00b6 0A4A     		ldr	r2, .L28+8
 447 00b8 5369     		ldr	r3, [r2, #20]
 335:Drivers/STM32G0xx_HAL_Driver/Src/stm32g0xx_hal_flash.c **** 
 448              		.loc 1 335 28 view .LVU123
 449 00ba 013B     		subs	r3, r3, #1
 450 00bc 5361     		str	r3, [r2, #20]
 338:Drivers/STM32G0xx_HAL_Driver/Src/stm32g0xx_hal_flash.c ****       {
 451              		.loc 1 338 7 is_stmt 1 view .LVU124
 338:Drivers/STM32G0xx_HAL_Driver/Src/stm32g0xx_hal_flash.c ****       {
 452              		.loc 1 338 10 is_stmt 0 view .LVU125
 453 00be 002B     		cmp	r3, #0
 454 00c0 03D1     		bne	.L27
ARM GAS  /var/folders/cw/6cmm0b_n7yj10n1wx8hfx52r0000gn/T//cchk5TpI.s 			page 38


 347:Drivers/STM32G0xx_HAL_Driver/Src/stm32g0xx_hal_flash.c ****       }
 455              		.loc 1 347 9 is_stmt 1 view .LVU126
 347:Drivers/STM32G0xx_HAL_Driver/Src/stm32g0xx_hal_flash.c ****       }
 456              		.loc 1 347 33 is_stmt 0 view .LVU127
 457 00c2 074B     		ldr	r3, .L28+8
 458 00c4 0022     		movs	r2, #0
 459 00c6 9A60     		str	r2, [r3, #8]
 460 00c8 D8E7     		b	.L22
 461              	.L27:
 341:Drivers/STM32G0xx_HAL_Driver/Src/stm32g0xx_hal_flash.c ****         FLASH_PageErase(pFlash.Page);
 462              		.loc 1 341 9 is_stmt 1 view .LVU128
 341:Drivers/STM32G0xx_HAL_Driver/Src/stm32g0xx_hal_flash.c ****         FLASH_PageErase(pFlash.Page);
 463              		.loc 1 341 15 is_stmt 0 view .LVU129
 464 00ca 1069     		ldr	r0, [r2, #16]
 341:Drivers/STM32G0xx_HAL_Driver/Src/stm32g0xx_hal_flash.c ****         FLASH_PageErase(pFlash.Page);
 465              		.loc 1 341 20 view .LVU130
 466 00cc 0130     		adds	r0, r0, #1
 467 00ce 1061     		str	r0, [r2, #16]
 342:Drivers/STM32G0xx_HAL_Driver/Src/stm32g0xx_hal_flash.c ****       }
 468              		.loc 1 342 9 is_stmt 1 view .LVU131
 469 00d0 FFF7FEFF 		bl	FLASH_PageErase
 470              	.LVL25:
 471 00d4 D2E7     		b	.L22
 472              	.L29:
 473 00d6 C046     		.align	2
 474              	.L28:
 475 00d8 00200240 		.word	1073881088
 476 00dc FA830000 		.word	33786
 477 00e0 00000000 		.word	pFlash
 478 00e4 01000400 		.word	262145
 479 00e8 FFFFFFFE 		.word	-16777217
 480 00ec FFFFFFFC 		.word	-50331649
 481              		.cfi_endproc
 482              	.LFE160:
 484              		.section	.text.HAL_FLASH_Unlock,"ax",%progbits
 485              		.align	1
 486              		.global	HAL_FLASH_Unlock
 487              		.syntax unified
 488              		.code	16
 489              		.thumb_func
 491              	HAL_FLASH_Unlock:
 492              	.LFB163:
 430:Drivers/STM32G0xx_HAL_Driver/Src/stm32g0xx_hal_flash.c ****   HAL_StatusTypeDef status = HAL_OK;
 493              		.loc 1 430 1 view -0
 494              		.cfi_startproc
 495              		@ args = 0, pretend = 0, frame = 0
 496              		@ frame_needed = 0, uses_anonymous_args = 0
 497              		@ link register save eliminated.
 431:Drivers/STM32G0xx_HAL_Driver/Src/stm32g0xx_hal_flash.c **** 
 498              		.loc 1 431 3 view .LVU133
 499              	.LVL26:
 433:Drivers/STM32G0xx_HAL_Driver/Src/stm32g0xx_hal_flash.c ****   {
 500              		.loc 1 433 3 view .LVU134
 433:Drivers/STM32G0xx_HAL_Driver/Src/stm32g0xx_hal_flash.c ****   {
 501              		.loc 1 433 7 is_stmt 0 view .LVU135
 502 0000 084B     		ldr	r3, .L35
 503 0002 5B69     		ldr	r3, [r3, #20]
ARM GAS  /var/folders/cw/6cmm0b_n7yj10n1wx8hfx52r0000gn/T//cchk5TpI.s 			page 39


 433:Drivers/STM32G0xx_HAL_Driver/Src/stm32g0xx_hal_flash.c ****   {
 504              		.loc 1 433 6 view .LVU136
 505 0004 002B     		cmp	r3, #0
 506 0006 01DB     		blt	.L34
 431:Drivers/STM32G0xx_HAL_Driver/Src/stm32g0xx_hal_flash.c **** 
 507              		.loc 1 431 21 view .LVU137
 508 0008 0020     		movs	r0, #0
 509              	.L31:
 510              	.LVL27:
 446:Drivers/STM32G0xx_HAL_Driver/Src/stm32g0xx_hal_flash.c **** }
 511              		.loc 1 446 3 is_stmt 1 view .LVU138
 447:Drivers/STM32G0xx_HAL_Driver/Src/stm32g0xx_hal_flash.c **** 
 512              		.loc 1 447 1 is_stmt 0 view .LVU139
 513              		@ sp needed
 514 000a 7047     		bx	lr
 515              	.LVL28:
 516              	.L34:
 436:Drivers/STM32G0xx_HAL_Driver/Src/stm32g0xx_hal_flash.c ****     WRITE_REG(FLASH->KEYR, FLASH_KEY2);
 517              		.loc 1 436 5 is_stmt 1 view .LVU140
 518 000c 054B     		ldr	r3, .L35
 519 000e 064A     		ldr	r2, .L35+4
 520 0010 9A60     		str	r2, [r3, #8]
 437:Drivers/STM32G0xx_HAL_Driver/Src/stm32g0xx_hal_flash.c **** 
 521              		.loc 1 437 5 view .LVU141
 522 0012 064A     		ldr	r2, .L35+8
 523 0014 9A60     		str	r2, [r3, #8]
 440:Drivers/STM32G0xx_HAL_Driver/Src/stm32g0xx_hal_flash.c ****     {
 524              		.loc 1 440 5 view .LVU142
 440:Drivers/STM32G0xx_HAL_Driver/Src/stm32g0xx_hal_flash.c ****     {
 525              		.loc 1 440 9 is_stmt 0 view .LVU143
 526 0016 5B69     		ldr	r3, [r3, #20]
 440:Drivers/STM32G0xx_HAL_Driver/Src/stm32g0xx_hal_flash.c ****     {
 527              		.loc 1 440 8 view .LVU144
 528 0018 002B     		cmp	r3, #0
 529 001a 01DB     		blt	.L33
 431:Drivers/STM32G0xx_HAL_Driver/Src/stm32g0xx_hal_flash.c **** 
 530              		.loc 1 431 21 view .LVU145
 531 001c 0020     		movs	r0, #0
 532 001e F4E7     		b	.L31
 533              	.L33:
 442:Drivers/STM32G0xx_HAL_Driver/Src/stm32g0xx_hal_flash.c ****     }
 534              		.loc 1 442 14 view .LVU146
 535 0020 0120     		movs	r0, #1
 536 0022 F2E7     		b	.L31
 537              	.L36:
 538              		.align	2
 539              	.L35:
 540 0024 00200240 		.word	1073881088
 541 0028 23016745 		.word	1164378403
 542 002c AB89EFCD 		.word	-839939669
 543              		.cfi_endproc
 544              	.LFE163:
 546              		.section	.text.HAL_FLASH_Lock,"ax",%progbits
 547              		.align	1
 548              		.global	HAL_FLASH_Lock
 549              		.syntax unified
 550              		.code	16
ARM GAS  /var/folders/cw/6cmm0b_n7yj10n1wx8hfx52r0000gn/T//cchk5TpI.s 			page 40


 551              		.thumb_func
 553              	HAL_FLASH_Lock:
 554              	.LFB164:
 454:Drivers/STM32G0xx_HAL_Driver/Src/stm32g0xx_hal_flash.c ****   HAL_StatusTypeDef status = HAL_ERROR;
 555              		.loc 1 454 1 is_stmt 1 view -0
 556              		.cfi_startproc
 557              		@ args = 0, pretend = 0, frame = 0
 558              		@ frame_needed = 0, uses_anonymous_args = 0
 559              		@ link register save eliminated.
 455:Drivers/STM32G0xx_HAL_Driver/Src/stm32g0xx_hal_flash.c **** 
 560              		.loc 1 455 3 view .LVU148
 561              	.LVL29:
 458:Drivers/STM32G0xx_HAL_Driver/Src/stm32g0xx_hal_flash.c **** 
 562              		.loc 1 458 3 view .LVU149
 563 0000 064B     		ldr	r3, .L40
 564 0002 5969     		ldr	r1, [r3, #20]
 565 0004 8022     		movs	r2, #128
 566 0006 1206     		lsls	r2, r2, #24
 567 0008 0A43     		orrs	r2, r1
 568 000a 5A61     		str	r2, [r3, #20]
 461:Drivers/STM32G0xx_HAL_Driver/Src/stm32g0xx_hal_flash.c ****   {
 569              		.loc 1 461 3 view .LVU150
 461:Drivers/STM32G0xx_HAL_Driver/Src/stm32g0xx_hal_flash.c ****   {
 570              		.loc 1 461 7 is_stmt 0 view .LVU151
 571 000c 5B69     		ldr	r3, [r3, #20]
 461:Drivers/STM32G0xx_HAL_Driver/Src/stm32g0xx_hal_flash.c ****   {
 572              		.loc 1 461 6 view .LVU152
 573 000e 002B     		cmp	r3, #0
 574 0010 01DB     		blt	.L39
 455:Drivers/STM32G0xx_HAL_Driver/Src/stm32g0xx_hal_flash.c **** 
 575              		.loc 1 455 21 view .LVU153
 576 0012 0120     		movs	r0, #1
 577              	.L38:
 578              	.LVL30:
 466:Drivers/STM32G0xx_HAL_Driver/Src/stm32g0xx_hal_flash.c **** }
 579              		.loc 1 466 3 is_stmt 1 view .LVU154
 467:Drivers/STM32G0xx_HAL_Driver/Src/stm32g0xx_hal_flash.c **** 
 580              		.loc 1 467 1 is_stmt 0 view .LVU155
 581              		@ sp needed
 582 0014 7047     		bx	lr
 583              	.LVL31:
 584              	.L39:
 463:Drivers/STM32G0xx_HAL_Driver/Src/stm32g0xx_hal_flash.c ****   }
 585              		.loc 1 463 12 view .LVU156
 586 0016 0020     		movs	r0, #0
 587 0018 FCE7     		b	.L38
 588              	.L41:
 589 001a C046     		.align	2
 590              	.L40:
 591 001c 00200240 		.word	1073881088
 592              		.cfi_endproc
 593              	.LFE164:
 595              		.section	.text.HAL_FLASH_OB_Unlock,"ax",%progbits
 596              		.align	1
 597              		.global	HAL_FLASH_OB_Unlock
 598              		.syntax unified
 599              		.code	16
ARM GAS  /var/folders/cw/6cmm0b_n7yj10n1wx8hfx52r0000gn/T//cchk5TpI.s 			page 41


 600              		.thumb_func
 602              	HAL_FLASH_OB_Unlock:
 603              	.LFB165:
 474:Drivers/STM32G0xx_HAL_Driver/Src/stm32g0xx_hal_flash.c ****   HAL_StatusTypeDef status = HAL_ERROR;
 604              		.loc 1 474 1 is_stmt 1 view -0
 605              		.cfi_startproc
 606              		@ args = 0, pretend = 0, frame = 0
 607              		@ frame_needed = 0, uses_anonymous_args = 0
 608              		@ link register save eliminated.
 475:Drivers/STM32G0xx_HAL_Driver/Src/stm32g0xx_hal_flash.c **** 
 609              		.loc 1 475 3 view .LVU158
 610              	.LVL32:
 477:Drivers/STM32G0xx_HAL_Driver/Src/stm32g0xx_hal_flash.c ****   {
 611              		.loc 1 477 3 view .LVU159
 477:Drivers/STM32G0xx_HAL_Driver/Src/stm32g0xx_hal_flash.c ****   {
 612              		.loc 1 477 7 is_stmt 0 view .LVU160
 613 0000 084B     		ldr	r3, .L46
 614 0002 5B69     		ldr	r3, [r3, #20]
 477:Drivers/STM32G0xx_HAL_Driver/Src/stm32g0xx_hal_flash.c ****   {
 615              		.loc 1 477 6 view .LVU161
 616 0004 5B00     		lsls	r3, r3, #1
 617 0006 09D5     		bpl	.L44
 480:Drivers/STM32G0xx_HAL_Driver/Src/stm32g0xx_hal_flash.c ****     WRITE_REG(FLASH->OPTKEYR, FLASH_OPTKEY2);
 618              		.loc 1 480 5 is_stmt 1 view .LVU162
 619 0008 064B     		ldr	r3, .L46
 620 000a 074A     		ldr	r2, .L46+4
 621 000c DA60     		str	r2, [r3, #12]
 481:Drivers/STM32G0xx_HAL_Driver/Src/stm32g0xx_hal_flash.c **** 
 622              		.loc 1 481 5 view .LVU163
 623 000e 074A     		ldr	r2, .L46+8
 624 0010 DA60     		str	r2, [r3, #12]
 484:Drivers/STM32G0xx_HAL_Driver/Src/stm32g0xx_hal_flash.c ****     {
 625              		.loc 1 484 5 view .LVU164
 484:Drivers/STM32G0xx_HAL_Driver/Src/stm32g0xx_hal_flash.c ****     {
 626              		.loc 1 484 9 is_stmt 0 view .LVU165
 627 0012 5B69     		ldr	r3, [r3, #20]
 484:Drivers/STM32G0xx_HAL_Driver/Src/stm32g0xx_hal_flash.c ****     {
 628              		.loc 1 484 8 view .LVU166
 629 0014 5B00     		lsls	r3, r3, #1
 630 0016 03D5     		bpl	.L45
 475:Drivers/STM32G0xx_HAL_Driver/Src/stm32g0xx_hal_flash.c **** 
 631              		.loc 1 475 21 view .LVU167
 632 0018 0120     		movs	r0, #1
 633 001a 00E0     		b	.L43
 634              	.L44:
 635 001c 0120     		movs	r0, #1
 636              	.L43:
 637              	.LVL33:
 490:Drivers/STM32G0xx_HAL_Driver/Src/stm32g0xx_hal_flash.c **** }
 638              		.loc 1 490 3 is_stmt 1 view .LVU168
 491:Drivers/STM32G0xx_HAL_Driver/Src/stm32g0xx_hal_flash.c **** 
 639              		.loc 1 491 1 is_stmt 0 view .LVU169
 640              		@ sp needed
 641 001e 7047     		bx	lr
 642              	.LVL34:
 643              	.L45:
 486:Drivers/STM32G0xx_HAL_Driver/Src/stm32g0xx_hal_flash.c ****     }
ARM GAS  /var/folders/cw/6cmm0b_n7yj10n1wx8hfx52r0000gn/T//cchk5TpI.s 			page 42


 644              		.loc 1 486 14 view .LVU170
 645 0020 0020     		movs	r0, #0
 646 0022 FCE7     		b	.L43
 647              	.L47:
 648              		.align	2
 649              	.L46:
 650 0024 00200240 		.word	1073881088
 651 0028 3B2A1908 		.word	135866939
 652 002c 7F6E5D4C 		.word	1281191551
 653              		.cfi_endproc
 654              	.LFE165:
 656              		.section	.text.HAL_FLASH_OB_Lock,"ax",%progbits
 657              		.align	1
 658              		.global	HAL_FLASH_OB_Lock
 659              		.syntax unified
 660              		.code	16
 661              		.thumb_func
 663              	HAL_FLASH_OB_Lock:
 664              	.LFB166:
 498:Drivers/STM32G0xx_HAL_Driver/Src/stm32g0xx_hal_flash.c ****   HAL_StatusTypeDef status = HAL_ERROR;
 665              		.loc 1 498 1 is_stmt 1 view -0
 666              		.cfi_startproc
 667              		@ args = 0, pretend = 0, frame = 0
 668              		@ frame_needed = 0, uses_anonymous_args = 0
 669              		@ link register save eliminated.
 499:Drivers/STM32G0xx_HAL_Driver/Src/stm32g0xx_hal_flash.c **** 
 670              		.loc 1 499 3 view .LVU172
 671              	.LVL35:
 502:Drivers/STM32G0xx_HAL_Driver/Src/stm32g0xx_hal_flash.c **** 
 672              		.loc 1 502 3 view .LVU173
 673 0000 064B     		ldr	r3, .L51
 674 0002 5A69     		ldr	r2, [r3, #20]
 675 0004 8021     		movs	r1, #128
 676 0006 C905     		lsls	r1, r1, #23
 677 0008 0A43     		orrs	r2, r1
 678 000a 5A61     		str	r2, [r3, #20]
 505:Drivers/STM32G0xx_HAL_Driver/Src/stm32g0xx_hal_flash.c ****   {
 679              		.loc 1 505 3 view .LVU174
 505:Drivers/STM32G0xx_HAL_Driver/Src/stm32g0xx_hal_flash.c ****   {
 680              		.loc 1 505 7 is_stmt 0 view .LVU175
 681 000c 5B69     		ldr	r3, [r3, #20]
 505:Drivers/STM32G0xx_HAL_Driver/Src/stm32g0xx_hal_flash.c ****   {
 682              		.loc 1 505 6 view .LVU176
 683 000e 0B42     		tst	r3, r1
 684 0010 01D1     		bne	.L50
 499:Drivers/STM32G0xx_HAL_Driver/Src/stm32g0xx_hal_flash.c **** 
 685              		.loc 1 499 21 view .LVU177
 686 0012 0120     		movs	r0, #1
 687              	.L49:
 688              	.LVL36:
 510:Drivers/STM32G0xx_HAL_Driver/Src/stm32g0xx_hal_flash.c **** }
 689              		.loc 1 510 3 is_stmt 1 view .LVU178
 511:Drivers/STM32G0xx_HAL_Driver/Src/stm32g0xx_hal_flash.c **** 
 690              		.loc 1 511 1 is_stmt 0 view .LVU179
 691              		@ sp needed
 692 0014 7047     		bx	lr
 693              	.LVL37:
ARM GAS  /var/folders/cw/6cmm0b_n7yj10n1wx8hfx52r0000gn/T//cchk5TpI.s 			page 43


 694              	.L50:
 507:Drivers/STM32G0xx_HAL_Driver/Src/stm32g0xx_hal_flash.c ****   }
 695              		.loc 1 507 12 view .LVU180
 696 0016 0020     		movs	r0, #0
 697 0018 FCE7     		b	.L49
 698              	.L52:
 699 001a C046     		.align	2
 700              	.L51:
 701 001c 00200240 		.word	1073881088
 702              		.cfi_endproc
 703              	.LFE166:
 705              		.section	.text.HAL_FLASH_OB_Launch,"ax",%progbits
 706              		.align	1
 707              		.global	HAL_FLASH_OB_Launch
 708              		.syntax unified
 709              		.code	16
 710              		.thumb_func
 712              	HAL_FLASH_OB_Launch:
 713              	.LFB167:
 518:Drivers/STM32G0xx_HAL_Driver/Src/stm32g0xx_hal_flash.c ****   /* Set the bit to force the option byte reloading */
 714              		.loc 1 518 1 is_stmt 1 view -0
 715              		.cfi_startproc
 716              		@ args = 0, pretend = 0, frame = 0
 717              		@ frame_needed = 0, uses_anonymous_args = 0
 718              		@ link register save eliminated.
 520:Drivers/STM32G0xx_HAL_Driver/Src/stm32g0xx_hal_flash.c **** 
 719              		.loc 1 520 3 view .LVU182
 720 0000 034A     		ldr	r2, .L54
 721 0002 5169     		ldr	r1, [r2, #20]
 722 0004 8023     		movs	r3, #128
 723 0006 1B05     		lsls	r3, r3, #20
 724 0008 0B43     		orrs	r3, r1
 725 000a 5361     		str	r3, [r2, #20]
 524:Drivers/STM32G0xx_HAL_Driver/Src/stm32g0xx_hal_flash.c **** }
 726              		.loc 1 524 3 view .LVU183
 525:Drivers/STM32G0xx_HAL_Driver/Src/stm32g0xx_hal_flash.c **** 
 727              		.loc 1 525 1 is_stmt 0 view .LVU184
 728 000c 0120     		movs	r0, #1
 729              		@ sp needed
 730 000e 7047     		bx	lr
 731              	.L55:
 732              		.align	2
 733              	.L54:
 734 0010 00200240 		.word	1073881088
 735              		.cfi_endproc
 736              	.LFE167:
 738              		.section	.text.HAL_FLASH_GetError,"ax",%progbits
 739              		.align	1
 740              		.global	HAL_FLASH_GetError
 741              		.syntax unified
 742              		.code	16
 743              		.thumb_func
 745              	HAL_FLASH_GetError:
 746              	.LFB168:
 563:Drivers/STM32G0xx_HAL_Driver/Src/stm32g0xx_hal_flash.c ****   return pFlash.ErrorCode;
 747              		.loc 1 563 1 is_stmt 1 view -0
 748              		.cfi_startproc
ARM GAS  /var/folders/cw/6cmm0b_n7yj10n1wx8hfx52r0000gn/T//cchk5TpI.s 			page 44


 749              		@ args = 0, pretend = 0, frame = 0
 750              		@ frame_needed = 0, uses_anonymous_args = 0
 751              		@ link register save eliminated.
 564:Drivers/STM32G0xx_HAL_Driver/Src/stm32g0xx_hal_flash.c **** }
 752              		.loc 1 564 3 view .LVU186
 564:Drivers/STM32G0xx_HAL_Driver/Src/stm32g0xx_hal_flash.c **** }
 753              		.loc 1 564 16 is_stmt 0 view .LVU187
 754 0000 014B     		ldr	r3, .L57
 755 0002 5868     		ldr	r0, [r3, #4]
 565:Drivers/STM32G0xx_HAL_Driver/Src/stm32g0xx_hal_flash.c **** 
 756              		.loc 1 565 1 view .LVU188
 757              		@ sp needed
 758 0004 7047     		bx	lr
 759              	.L58:
 760 0006 C046     		.align	2
 761              	.L57:
 762 0008 00000000 		.word	pFlash
 763              		.cfi_endproc
 764              	.LFE168:
 766              		.section	.text.FLASH_WaitForLastOperation,"ax",%progbits
 767              		.align	1
 768              		.global	FLASH_WaitForLastOperation
 769              		.syntax unified
 770              		.code	16
 771              		.thumb_func
 773              	FLASH_WaitForLastOperation:
 774              	.LVL38:
 775              	.LFB169:
 587:Drivers/STM32G0xx_HAL_Driver/Src/stm32g0xx_hal_flash.c ****   uint32_t error;
 776              		.loc 1 587 1 is_stmt 1 view -0
 777              		.cfi_startproc
 778              		@ args = 0, pretend = 0, frame = 0
 779              		@ frame_needed = 0, uses_anonymous_args = 0
 587:Drivers/STM32G0xx_HAL_Driver/Src/stm32g0xx_hal_flash.c ****   uint32_t error;
 780              		.loc 1 587 1 is_stmt 0 view .LVU190
 781 0000 70B5     		push	{r4, r5, r6, lr}
 782              	.LCFI3:
 783              		.cfi_def_cfa_offset 16
 784              		.cfi_offset 4, -16
 785              		.cfi_offset 5, -12
 786              		.cfi_offset 6, -8
 787              		.cfi_offset 14, -4
 788 0002 0500     		movs	r5, r0
 588:Drivers/STM32G0xx_HAL_Driver/Src/stm32g0xx_hal_flash.c ****   uint32_t eccerr;
 789              		.loc 1 588 3 is_stmt 1 view .LVU191
 589:Drivers/STM32G0xx_HAL_Driver/Src/stm32g0xx_hal_flash.c ****   /* Wait for the FLASH operation to complete by polling on BUSY flag to be reset.
 790              		.loc 1 589 3 view .LVU192
 593:Drivers/STM32G0xx_HAL_Driver/Src/stm32g0xx_hal_flash.c **** 
 791              		.loc 1 593 3 view .LVU193
 593:Drivers/STM32G0xx_HAL_Driver/Src/stm32g0xx_hal_flash.c **** 
 792              		.loc 1 593 22 is_stmt 0 view .LVU194
 793 0004 FFF7FEFF 		bl	HAL_GetTick
 794              	.LVL39:
 593:Drivers/STM32G0xx_HAL_Driver/Src/stm32g0xx_hal_flash.c **** 
 795              		.loc 1 593 12 view .LVU195
 796 0008 4419     		adds	r4, r0, r5
 797              	.LVL40:
ARM GAS  /var/folders/cw/6cmm0b_n7yj10n1wx8hfx52r0000gn/T//cchk5TpI.s 			page 45


 596:Drivers/STM32G0xx_HAL_Driver/Src/stm32g0xx_hal_flash.c ****   {
 798              		.loc 1 596 3 is_stmt 1 view .LVU196
 799              	.L60:
 596:Drivers/STM32G0xx_HAL_Driver/Src/stm32g0xx_hal_flash.c ****   {
 800              		.loc 1 596 47 view .LVU197
 596:Drivers/STM32G0xx_HAL_Driver/Src/stm32g0xx_hal_flash.c ****   {
 801              		.loc 1 596 10 is_stmt 0 view .LVU198
 802 000a 184B     		ldr	r3, .L71
 803 000c 1B69     		ldr	r3, [r3, #16]
 596:Drivers/STM32G0xx_HAL_Driver/Src/stm32g0xx_hal_flash.c ****   {
 804              		.loc 1 596 47 view .LVU199
 805 000e DB03     		lsls	r3, r3, #15
 806 0010 05D5     		bpl	.L69
 598:Drivers/STM32G0xx_HAL_Driver/Src/stm32g0xx_hal_flash.c ****     {
 807              		.loc 1 598 5 is_stmt 1 view .LVU200
 598:Drivers/STM32G0xx_HAL_Driver/Src/stm32g0xx_hal_flash.c ****     {
 808              		.loc 1 598 9 is_stmt 0 view .LVU201
 809 0012 FFF7FEFF 		bl	HAL_GetTick
 810              	.LVL41:
 598:Drivers/STM32G0xx_HAL_Driver/Src/stm32g0xx_hal_flash.c ****     {
 811              		.loc 1 598 8 view .LVU202
 812 0016 A042     		cmp	r0, r4
 813 0018 F7D3     		bcc	.L60
 600:Drivers/STM32G0xx_HAL_Driver/Src/stm32g0xx_hal_flash.c ****     }
 814              		.loc 1 600 14 view .LVU203
 815 001a 0320     		movs	r0, #3
 816              	.LVL42:
 817              	.L61:
 640:Drivers/STM32G0xx_HAL_Driver/Src/stm32g0xx_hal_flash.c **** 
 818              		.loc 1 640 1 view .LVU204
 819              		@ sp needed
 820 001c 70BD     		pop	{r4, r5, r6, pc}
 821              	.LVL43:
 822              	.L69:
 606:Drivers/STM32G0xx_HAL_Driver/Src/stm32g0xx_hal_flash.c **** 
 823              		.loc 1 606 3 is_stmt 1 view .LVU205
 606:Drivers/STM32G0xx_HAL_Driver/Src/stm32g0xx_hal_flash.c **** 
 824              		.loc 1 606 17 is_stmt 0 view .LVU206
 825 001e 134A     		ldr	r2, .L71
 826 0020 1369     		ldr	r3, [r2, #16]
 606:Drivers/STM32G0xx_HAL_Driver/Src/stm32g0xx_hal_flash.c **** 
 827              		.loc 1 606 9 view .LVU207
 828 0022 1349     		ldr	r1, .L71+4
 829 0024 0B40     		ands	r3, r1
 830              	.LVL44:
 609:Drivers/STM32G0xx_HAL_Driver/Src/stm32g0xx_hal_flash.c **** 
 831              		.loc 1 609 3 is_stmt 1 view .LVU208
 609:Drivers/STM32G0xx_HAL_Driver/Src/stm32g0xx_hal_flash.c **** 
 832              		.loc 1 609 13 is_stmt 0 view .LVU209
 833 0026 1349     		ldr	r1, .L71+8
 834 0028 1161     		str	r1, [r2, #16]
 612:Drivers/STM32G0xx_HAL_Driver/Src/stm32g0xx_hal_flash.c **** 
 835              		.loc 1 612 3 is_stmt 1 view .LVU210
 612:Drivers/STM32G0xx_HAL_Driver/Src/stm32g0xx_hal_flash.c **** 
 836              		.loc 1 612 18 is_stmt 0 view .LVU211
 837 002a 9169     		ldr	r1, [r2, #24]
 612:Drivers/STM32G0xx_HAL_Driver/Src/stm32g0xx_hal_flash.c **** 
ARM GAS  /var/folders/cw/6cmm0b_n7yj10n1wx8hfx52r0000gn/T//cchk5TpI.s 			page 46


 838              		.loc 1 612 10 view .LVU212
 839 002c 8022     		movs	r2, #128
 840 002e D205     		lsls	r2, r2, #23
 841 0030 0800     		movs	r0, r1
 842 0032 1040     		ands	r0, r2
 843              	.LVL45:
 614:Drivers/STM32G0xx_HAL_Driver/Src/stm32g0xx_hal_flash.c ****   {
 844              		.loc 1 614 3 is_stmt 1 view .LVU213
 614:Drivers/STM32G0xx_HAL_Driver/Src/stm32g0xx_hal_flash.c ****   {
 845              		.loc 1 614 5 is_stmt 0 view .LVU214
 846 0034 1142     		tst	r1, r2
 847 0036 04D0     		beq	.L63
 616:Drivers/STM32G0xx_HAL_Driver/Src/stm32g0xx_hal_flash.c ****     error |= eccerr;
 848              		.loc 1 616 5 is_stmt 1 view .LVU215
 616:Drivers/STM32G0xx_HAL_Driver/Src/stm32g0xx_hal_flash.c ****     error |= eccerr;
 849              		.loc 1 616 10 is_stmt 0 view .LVU216
 850 0038 0C49     		ldr	r1, .L71
 851 003a 8A69     		ldr	r2, [r1, #24]
 616:Drivers/STM32G0xx_HAL_Driver/Src/stm32g0xx_hal_flash.c ****     error |= eccerr;
 852              		.loc 1 616 17 view .LVU217
 853 003c 0243     		orrs	r2, r0
 854 003e 8A61     		str	r2, [r1, #24]
 617:Drivers/STM32G0xx_HAL_Driver/Src/stm32g0xx_hal_flash.c ****   }
 855              		.loc 1 617 5 is_stmt 1 view .LVU218
 617:Drivers/STM32G0xx_HAL_Driver/Src/stm32g0xx_hal_flash.c ****   }
 856              		.loc 1 617 11 is_stmt 0 view .LVU219
 857 0040 0343     		orrs	r3, r0
 858              	.LVL46:
 859              	.L63:
 620:Drivers/STM32G0xx_HAL_Driver/Src/stm32g0xx_hal_flash.c ****   {
 860              		.loc 1 620 3 is_stmt 1 view .LVU220
 620:Drivers/STM32G0xx_HAL_Driver/Src/stm32g0xx_hal_flash.c ****   {
 861              		.loc 1 620 6 is_stmt 0 view .LVU221
 862 0042 002B     		cmp	r3, #0
 863 0044 03D0     		beq	.L64
 623:Drivers/STM32G0xx_HAL_Driver/Src/stm32g0xx_hal_flash.c **** 
 864              		.loc 1 623 5 is_stmt 1 view .LVU222
 623:Drivers/STM32G0xx_HAL_Driver/Src/stm32g0xx_hal_flash.c **** 
 865              		.loc 1 623 22 is_stmt 0 view .LVU223
 866 0046 0C4A     		ldr	r2, .L71+12
 867 0048 5360     		str	r3, [r2, #4]
 625:Drivers/STM32G0xx_HAL_Driver/Src/stm32g0xx_hal_flash.c ****   }
 868              		.loc 1 625 5 is_stmt 1 view .LVU224
 625:Drivers/STM32G0xx_HAL_Driver/Src/stm32g0xx_hal_flash.c ****   }
 869              		.loc 1 625 12 is_stmt 0 view .LVU225
 870 004a 0120     		movs	r0, #1
 871              	.LVL47:
 625:Drivers/STM32G0xx_HAL_Driver/Src/stm32g0xx_hal_flash.c ****   }
 872              		.loc 1 625 12 view .LVU226
 873 004c E6E7     		b	.L61
 874              	.LVL48:
 875              	.L64:
 629:Drivers/STM32G0xx_HAL_Driver/Src/stm32g0xx_hal_flash.c **** 
 876              		.loc 1 629 3 is_stmt 1 view .LVU227
 629:Drivers/STM32G0xx_HAL_Driver/Src/stm32g0xx_hal_flash.c **** 
 877              		.loc 1 629 13 is_stmt 0 view .LVU228
 878 004e FFF7FEFF 		bl	HAL_GetTick
ARM GAS  /var/folders/cw/6cmm0b_n7yj10n1wx8hfx52r0000gn/T//cchk5TpI.s 			page 47


 879              	.LVL49:
 629:Drivers/STM32G0xx_HAL_Driver/Src/stm32g0xx_hal_flash.c **** 
 880              		.loc 1 629 11 view .LVU229
 881 0052 4519     		adds	r5, r0, r5
 882              	.LVL50:
 631:Drivers/STM32G0xx_HAL_Driver/Src/stm32g0xx_hal_flash.c ****   {
 883              		.loc 1 631 3 is_stmt 1 view .LVU230
 884              	.L65:
 631:Drivers/STM32G0xx_HAL_Driver/Src/stm32g0xx_hal_flash.c ****   {
 885              		.loc 1 631 50 view .LVU231
 631:Drivers/STM32G0xx_HAL_Driver/Src/stm32g0xx_hal_flash.c ****   {
 886              		.loc 1 631 10 is_stmt 0 view .LVU232
 887 0054 054B     		ldr	r3, .L71
 888 0056 1B69     		ldr	r3, [r3, #16]
 631:Drivers/STM32G0xx_HAL_Driver/Src/stm32g0xx_hal_flash.c ****   {
 889              		.loc 1 631 50 view .LVU233
 890 0058 5B03     		lsls	r3, r3, #13
 891 005a 05D5     		bpl	.L70
 633:Drivers/STM32G0xx_HAL_Driver/Src/stm32g0xx_hal_flash.c ****     {
 892              		.loc 1 633 5 is_stmt 1 view .LVU234
 633:Drivers/STM32G0xx_HAL_Driver/Src/stm32g0xx_hal_flash.c ****     {
 893              		.loc 1 633 9 is_stmt 0 view .LVU235
 894 005c FFF7FEFF 		bl	HAL_GetTick
 895              	.LVL51:
 633:Drivers/STM32G0xx_HAL_Driver/Src/stm32g0xx_hal_flash.c ****     {
 896              		.loc 1 633 8 view .LVU236
 897 0060 A842     		cmp	r0, r5
 898 0062 F7D3     		bcc	.L65
 635:Drivers/STM32G0xx_HAL_Driver/Src/stm32g0xx_hal_flash.c ****     }
 899              		.loc 1 635 14 view .LVU237
 900 0064 0320     		movs	r0, #3
 901 0066 D9E7     		b	.L61
 902              	.L70:
 639:Drivers/STM32G0xx_HAL_Driver/Src/stm32g0xx_hal_flash.c **** }
 903              		.loc 1 639 10 view .LVU238
 904 0068 0020     		movs	r0, #0
 905 006a D7E7     		b	.L61
 906              	.L72:
 907              		.align	2
 908              	.L71:
 909 006c 00200240 		.word	1073881088
 910 0070 FA830000 		.word	33786
 911 0074 FB830000 		.word	33787
 912 0078 00000000 		.word	pFlash
 913              		.cfi_endproc
 914              	.LFE169:
 916              		.section	.text.HAL_FLASH_Program,"ax",%progbits
 917              		.align	1
 918              		.global	HAL_FLASH_Program
 919              		.syntax unified
 920              		.code	16
 921              		.thumb_func
 923              	HAL_FLASH_Program:
 924              	.LVL52:
 925              	.LFB158:
 164:Drivers/STM32G0xx_HAL_Driver/Src/stm32g0xx_hal_flash.c ****   HAL_StatusTypeDef status;
 926              		.loc 1 164 1 is_stmt 1 view -0
ARM GAS  /var/folders/cw/6cmm0b_n7yj10n1wx8hfx52r0000gn/T//cchk5TpI.s 			page 48


 927              		.cfi_startproc
 928              		@ args = 0, pretend = 0, frame = 0
 929              		@ frame_needed = 0, uses_anonymous_args = 0
 164:Drivers/STM32G0xx_HAL_Driver/Src/stm32g0xx_hal_flash.c ****   HAL_StatusTypeDef status;
 930              		.loc 1 164 1 is_stmt 0 view .LVU240
 931 0000 F8B5     		push	{r3, r4, r5, r6, r7, lr}
 932              	.LCFI4:
 933              		.cfi_def_cfa_offset 24
 934              		.cfi_offset 3, -24
 935              		.cfi_offset 4, -20
 936              		.cfi_offset 5, -16
 937              		.cfi_offset 6, -12
 938              		.cfi_offset 7, -8
 939              		.cfi_offset 14, -4
 940 0002 0700     		movs	r7, r0
 941 0004 0C00     		movs	r4, r1
 942 0006 1500     		movs	r5, r2
 943 0008 1E00     		movs	r6, r3
 165:Drivers/STM32G0xx_HAL_Driver/Src/stm32g0xx_hal_flash.c **** 
 944              		.loc 1 165 3 is_stmt 1 view .LVU241
 168:Drivers/STM32G0xx_HAL_Driver/Src/stm32g0xx_hal_flash.c ****   assert_param(IS_FLASH_PROGRAM_ADDRESS(Address));
 945              		.loc 1 168 3 view .LVU242
 169:Drivers/STM32G0xx_HAL_Driver/Src/stm32g0xx_hal_flash.c **** 
 946              		.loc 1 169 3 view .LVU243
 172:Drivers/STM32G0xx_HAL_Driver/Src/stm32g0xx_hal_flash.c **** 
 947              		.loc 1 172 3 view .LVU244
 172:Drivers/STM32G0xx_HAL_Driver/Src/stm32g0xx_hal_flash.c **** 
 948              		.loc 1 172 3 view .LVU245
 949 000a 144B     		ldr	r3, .L80
 950 000c 1B78     		ldrb	r3, [r3]
 951 000e 012B     		cmp	r3, #1
 952 0010 22D0     		beq	.L78
 172:Drivers/STM32G0xx_HAL_Driver/Src/stm32g0xx_hal_flash.c **** 
 953              		.loc 1 172 3 discriminator 2 view .LVU246
 954 0012 124B     		ldr	r3, .L80
 955 0014 0122     		movs	r2, #1
 956              	.LVL53:
 172:Drivers/STM32G0xx_HAL_Driver/Src/stm32g0xx_hal_flash.c **** 
 957              		.loc 1 172 3 is_stmt 0 discriminator 2 view .LVU247
 958 0016 1A70     		strb	r2, [r3]
 172:Drivers/STM32G0xx_HAL_Driver/Src/stm32g0xx_hal_flash.c **** 
 959              		.loc 1 172 3 is_stmt 1 discriminator 2 view .LVU248
 175:Drivers/STM32G0xx_HAL_Driver/Src/stm32g0xx_hal_flash.c **** 
 960              		.loc 1 175 3 discriminator 2 view .LVU249
 175:Drivers/STM32G0xx_HAL_Driver/Src/stm32g0xx_hal_flash.c **** 
 961              		.loc 1 175 20 is_stmt 0 discriminator 2 view .LVU250
 962 0018 0022     		movs	r2, #0
 963 001a 5A60     		str	r2, [r3, #4]
 178:Drivers/STM32G0xx_HAL_Driver/Src/stm32g0xx_hal_flash.c **** 
 964              		.loc 1 178 3 is_stmt 1 discriminator 2 view .LVU251
 178:Drivers/STM32G0xx_HAL_Driver/Src/stm32g0xx_hal_flash.c **** 
 965              		.loc 1 178 12 is_stmt 0 discriminator 2 view .LVU252
 966 001c FA20     		movs	r0, #250
 967              	.LVL54:
 178:Drivers/STM32G0xx_HAL_Driver/Src/stm32g0xx_hal_flash.c **** 
 968              		.loc 1 178 12 discriminator 2 view .LVU253
 969 001e 8000     		lsls	r0, r0, #2
ARM GAS  /var/folders/cw/6cmm0b_n7yj10n1wx8hfx52r0000gn/T//cchk5TpI.s 			page 49


 970 0020 FFF7FEFF 		bl	FLASH_WaitForLastOperation
 971              	.LVL55:
 180:Drivers/STM32G0xx_HAL_Driver/Src/stm32g0xx_hal_flash.c ****   {
 972              		.loc 1 180 3 is_stmt 1 discriminator 2 view .LVU254
 180:Drivers/STM32G0xx_HAL_Driver/Src/stm32g0xx_hal_flash.c ****   {
 973              		.loc 1 180 6 is_stmt 0 discriminator 2 view .LVU255
 974 0024 0028     		cmp	r0, #0
 975 0026 0DD1     		bne	.L75
 182:Drivers/STM32G0xx_HAL_Driver/Src/stm32g0xx_hal_flash.c ****     {
 976              		.loc 1 182 5 is_stmt 1 view .LVU256
 182:Drivers/STM32G0xx_HAL_Driver/Src/stm32g0xx_hal_flash.c ****     {
 977              		.loc 1 182 8 is_stmt 0 view .LVU257
 978 0028 012F     		cmp	r7, #1
 979 002a 0FD0     		beq	.L79
 193:Drivers/STM32G0xx_HAL_Driver/Src/stm32g0xx_hal_flash.c **** 
 980              		.loc 1 193 7 is_stmt 1 view .LVU258
 196:Drivers/STM32G0xx_HAL_Driver/Src/stm32g0xx_hal_flash.c ****     }
 981              		.loc 1 196 7 view .LVU259
 982 002c 2900     		movs	r1, r5
 983 002e 2000     		movs	r0, r4
 984              	.LVL56:
 196:Drivers/STM32G0xx_HAL_Driver/Src/stm32g0xx_hal_flash.c ****     }
 985              		.loc 1 196 7 is_stmt 0 view .LVU260
 986 0030 FFF7FEFF 		bl	FLASH_Program_Fast
 987              	.LVL57:
 988              	.L77:
 200:Drivers/STM32G0xx_HAL_Driver/Src/stm32g0xx_hal_flash.c **** 
 989              		.loc 1 200 5 is_stmt 1 view .LVU261
 200:Drivers/STM32G0xx_HAL_Driver/Src/stm32g0xx_hal_flash.c **** 
 990              		.loc 1 200 14 is_stmt 0 view .LVU262
 991 0034 FA20     		movs	r0, #250
 992 0036 8000     		lsls	r0, r0, #2
 993 0038 FFF7FEFF 		bl	FLASH_WaitForLastOperation
 994              	.LVL58:
 203:Drivers/STM32G0xx_HAL_Driver/Src/stm32g0xx_hal_flash.c ****   }
 995              		.loc 1 203 5 is_stmt 1 view .LVU263
 996 003c 084A     		ldr	r2, .L80+4
 997 003e 5369     		ldr	r3, [r2, #20]
 998 0040 BB43     		bics	r3, r7
 999 0042 5361     		str	r3, [r2, #20]
 1000              	.LVL59:
 1001              	.L75:
 207:Drivers/STM32G0xx_HAL_Driver/Src/stm32g0xx_hal_flash.c **** 
 1002              		.loc 1 207 3 view .LVU264
 207:Drivers/STM32G0xx_HAL_Driver/Src/stm32g0xx_hal_flash.c **** 
 1003              		.loc 1 207 3 view .LVU265
 1004 0044 054B     		ldr	r3, .L80
 1005 0046 0022     		movs	r2, #0
 1006 0048 1A70     		strb	r2, [r3]
 207:Drivers/STM32G0xx_HAL_Driver/Src/stm32g0xx_hal_flash.c **** 
 1007              		.loc 1 207 3 view .LVU266
 210:Drivers/STM32G0xx_HAL_Driver/Src/stm32g0xx_hal_flash.c **** }
 1008              		.loc 1 210 3 view .LVU267
 1009              	.LVL60:
 1010              	.L74:
 211:Drivers/STM32G0xx_HAL_Driver/Src/stm32g0xx_hal_flash.c **** 
 1011              		.loc 1 211 1 is_stmt 0 view .LVU268
ARM GAS  /var/folders/cw/6cmm0b_n7yj10n1wx8hfx52r0000gn/T//cchk5TpI.s 			page 50


 1012              		@ sp needed
 1013              	.LVL61:
 1014              	.LVL62:
 211:Drivers/STM32G0xx_HAL_Driver/Src/stm32g0xx_hal_flash.c **** 
 1015              		.loc 1 211 1 view .LVU269
 1016 004a F8BD     		pop	{r3, r4, r5, r6, r7, pc}
 1017              	.LVL63:
 1018              	.L79:
 185:Drivers/STM32G0xx_HAL_Driver/Src/stm32g0xx_hal_flash.c **** 
 1019              		.loc 1 185 7 is_stmt 1 view .LVU270
 188:Drivers/STM32G0xx_HAL_Driver/Src/stm32g0xx_hal_flash.c ****     }
 1020              		.loc 1 188 7 view .LVU271
 1021 004c 2A00     		movs	r2, r5
 1022 004e 3300     		movs	r3, r6
 1023 0050 2000     		movs	r0, r4
 1024              	.LVL64:
 188:Drivers/STM32G0xx_HAL_Driver/Src/stm32g0xx_hal_flash.c ****     }
 1025              		.loc 1 188 7 is_stmt 0 view .LVU272
 1026 0052 FFF7FEFF 		bl	FLASH_Program_DoubleWord
 1027              	.LVL65:
 1028 0056 EDE7     		b	.L77
 1029              	.LVL66:
 1030              	.L78:
 172:Drivers/STM32G0xx_HAL_Driver/Src/stm32g0xx_hal_flash.c **** 
 1031              		.loc 1 172 3 view .LVU273
 1032 0058 0220     		movs	r0, #2
 1033              	.LVL67:
 172:Drivers/STM32G0xx_HAL_Driver/Src/stm32g0xx_hal_flash.c **** 
 1034              		.loc 1 172 3 view .LVU274
 1035 005a F6E7     		b	.L74
 1036              	.L81:
 1037              		.align	2
 1038              	.L80:
 1039 005c 00000000 		.word	pFlash
 1040 0060 00200240 		.word	1073881088
 1041              		.cfi_endproc
 1042              	.LFE158:
 1044              		.section	.text.HAL_FLASH_Program_IT,"ax",%progbits
 1045              		.align	1
 1046              		.global	HAL_FLASH_Program_IT
 1047              		.syntax unified
 1048              		.code	16
 1049              		.thumb_func
 1051              	HAL_FLASH_Program_IT:
 1052              	.LVL68:
 1053              	.LFB159:
 225:Drivers/STM32G0xx_HAL_Driver/Src/stm32g0xx_hal_flash.c ****   HAL_StatusTypeDef status;
 1054              		.loc 1 225 1 is_stmt 1 view -0
 1055              		.cfi_startproc
 1056              		@ args = 0, pretend = 0, frame = 8
 1057              		@ frame_needed = 0, uses_anonymous_args = 0
 225:Drivers/STM32G0xx_HAL_Driver/Src/stm32g0xx_hal_flash.c ****   HAL_StatusTypeDef status;
 1058              		.loc 1 225 1 is_stmt 0 view .LVU276
 1059 0000 F0B5     		push	{r4, r5, r6, r7, lr}
 1060              	.LCFI5:
 1061              		.cfi_def_cfa_offset 20
 1062              		.cfi_offset 4, -20
ARM GAS  /var/folders/cw/6cmm0b_n7yj10n1wx8hfx52r0000gn/T//cchk5TpI.s 			page 51


 1063              		.cfi_offset 5, -16
 1064              		.cfi_offset 6, -12
 1065              		.cfi_offset 7, -8
 1066              		.cfi_offset 14, -4
 1067 0002 83B0     		sub	sp, sp, #12
 1068              	.LCFI6:
 1069              		.cfi_def_cfa_offset 32
 1070 0004 0700     		movs	r7, r0
 1071 0006 0E00     		movs	r6, r1
 1072 0008 1500     		movs	r5, r2
 1073 000a 0193     		str	r3, [sp, #4]
 226:Drivers/STM32G0xx_HAL_Driver/Src/stm32g0xx_hal_flash.c **** 
 1074              		.loc 1 226 3 is_stmt 1 view .LVU277
 229:Drivers/STM32G0xx_HAL_Driver/Src/stm32g0xx_hal_flash.c ****   assert_param(IS_FLASH_PROGRAM_ADDRESS(Address));
 1075              		.loc 1 229 3 view .LVU278
 230:Drivers/STM32G0xx_HAL_Driver/Src/stm32g0xx_hal_flash.c **** 
 1076              		.loc 1 230 3 view .LVU279
 233:Drivers/STM32G0xx_HAL_Driver/Src/stm32g0xx_hal_flash.c **** 
 1077              		.loc 1 233 3 view .LVU280
 233:Drivers/STM32G0xx_HAL_Driver/Src/stm32g0xx_hal_flash.c **** 
 1078              		.loc 1 233 3 view .LVU281
 1079 000c 184B     		ldr	r3, .L88
 1080 000e 1B78     		ldrb	r3, [r3]
 1081 0010 012B     		cmp	r3, #1
 1082 0012 2BD0     		beq	.L86
 233:Drivers/STM32G0xx_HAL_Driver/Src/stm32g0xx_hal_flash.c **** 
 1083              		.loc 1 233 3 discriminator 2 view .LVU282
 1084 0014 164C     		ldr	r4, .L88
 1085 0016 0123     		movs	r3, #1
 1086 0018 2370     		strb	r3, [r4]
 233:Drivers/STM32G0xx_HAL_Driver/Src/stm32g0xx_hal_flash.c **** 
 1087              		.loc 1 233 3 discriminator 2 view .LVU283
 236:Drivers/STM32G0xx_HAL_Driver/Src/stm32g0xx_hal_flash.c **** 
 1088              		.loc 1 236 3 discriminator 2 view .LVU284
 236:Drivers/STM32G0xx_HAL_Driver/Src/stm32g0xx_hal_flash.c **** 
 1089              		.loc 1 236 20 is_stmt 0 discriminator 2 view .LVU285
 1090 001a 0023     		movs	r3, #0
 1091 001c 6360     		str	r3, [r4, #4]
 239:Drivers/STM32G0xx_HAL_Driver/Src/stm32g0xx_hal_flash.c **** 
 1092              		.loc 1 239 3 is_stmt 1 discriminator 2 view .LVU286
 239:Drivers/STM32G0xx_HAL_Driver/Src/stm32g0xx_hal_flash.c **** 
 1093              		.loc 1 239 12 is_stmt 0 discriminator 2 view .LVU287
 1094 001e FA20     		movs	r0, #250
 1095              	.LVL69:
 239:Drivers/STM32G0xx_HAL_Driver/Src/stm32g0xx_hal_flash.c **** 
 1096              		.loc 1 239 12 discriminator 2 view .LVU288
 1097 0020 8000     		lsls	r0, r0, #2
 1098 0022 FFF7FEFF 		bl	FLASH_WaitForLastOperation
 1099              	.LVL70:
 239:Drivers/STM32G0xx_HAL_Driver/Src/stm32g0xx_hal_flash.c **** 
 1100              		.loc 1 239 12 discriminator 2 view .LVU289
 1101 0026 041E     		subs	r4, r0, #0
 1102              	.LVL71:
 241:Drivers/STM32G0xx_HAL_Driver/Src/stm32g0xx_hal_flash.c ****   {
 1103              		.loc 1 241 3 is_stmt 1 discriminator 2 view .LVU290
 241:Drivers/STM32G0xx_HAL_Driver/Src/stm32g0xx_hal_flash.c ****   {
 1104              		.loc 1 241 6 is_stmt 0 discriminator 2 view .LVU291
ARM GAS  /var/folders/cw/6cmm0b_n7yj10n1wx8hfx52r0000gn/T//cchk5TpI.s 			page 52


 1105 0028 05D0     		beq	.L84
 244:Drivers/STM32G0xx_HAL_Driver/Src/stm32g0xx_hal_flash.c ****   }
 1106              		.loc 1 244 5 is_stmt 1 view .LVU292
 244:Drivers/STM32G0xx_HAL_Driver/Src/stm32g0xx_hal_flash.c ****   }
 1107              		.loc 1 244 5 view .LVU293
 1108 002a 114B     		ldr	r3, .L88
 1109 002c 0022     		movs	r2, #0
 1110 002e 1A70     		strb	r2, [r3]
 244:Drivers/STM32G0xx_HAL_Driver/Src/stm32g0xx_hal_flash.c ****   }
 1111              		.loc 1 244 5 view .LVU294
 1112              	.LVL72:
 1113              	.L83:
 275:Drivers/STM32G0xx_HAL_Driver/Src/stm32g0xx_hal_flash.c **** 
 1114              		.loc 1 275 1 is_stmt 0 view .LVU295
 1115 0030 2000     		movs	r0, r4
 1116 0032 03B0     		add	sp, sp, #12
 1117              		@ sp needed
 1118              	.LVL73:
 1119              	.LVL74:
 275:Drivers/STM32G0xx_HAL_Driver/Src/stm32g0xx_hal_flash.c **** 
 1120              		.loc 1 275 1 view .LVU296
 1121 0034 F0BD     		pop	{r4, r5, r6, r7, pc}
 1122              	.LVL75:
 1123              	.L84:
 249:Drivers/STM32G0xx_HAL_Driver/Src/stm32g0xx_hal_flash.c ****     pFlash.Address = Address;
 1124              		.loc 1 249 5 is_stmt 1 view .LVU297
 249:Drivers/STM32G0xx_HAL_Driver/Src/stm32g0xx_hal_flash.c ****     pFlash.Address = Address;
 1125              		.loc 1 249 29 is_stmt 0 view .LVU298
 1126 0036 0E4B     		ldr	r3, .L88
 1127 0038 9F60     		str	r7, [r3, #8]
 250:Drivers/STM32G0xx_HAL_Driver/Src/stm32g0xx_hal_flash.c **** 
 1128              		.loc 1 250 5 is_stmt 1 view .LVU299
 250:Drivers/STM32G0xx_HAL_Driver/Src/stm32g0xx_hal_flash.c **** 
 1129              		.loc 1 250 20 is_stmt 0 view .LVU300
 1130 003a DE60     		str	r6, [r3, #12]
 253:Drivers/STM32G0xx_HAL_Driver/Src/stm32g0xx_hal_flash.c **** 
 1131              		.loc 1 253 5 is_stmt 1 view .LVU301
 253:Drivers/STM32G0xx_HAL_Driver/Src/stm32g0xx_hal_flash.c **** 
 1132              		.loc 1 253 5 view .LVU302
 253:Drivers/STM32G0xx_HAL_Driver/Src/stm32g0xx_hal_flash.c **** 
 1133              		.loc 1 253 5 view .LVU303
 1134 003c 0D4B     		ldr	r3, .L88+4
 1135 003e 9969     		ldr	r1, [r3, #24]
 1136 0040 8022     		movs	r2, #128
 1137 0042 5204     		lsls	r2, r2, #17
 1138 0044 0A43     		orrs	r2, r1
 1139 0046 9A61     		str	r2, [r3, #24]
 253:Drivers/STM32G0xx_HAL_Driver/Src/stm32g0xx_hal_flash.c **** 
 1140              		.loc 1 253 5 view .LVU304
 253:Drivers/STM32G0xx_HAL_Driver/Src/stm32g0xx_hal_flash.c **** 
 1141              		.loc 1 253 5 view .LVU305
 1142 0048 5969     		ldr	r1, [r3, #20]
 1143 004a C022     		movs	r2, #192
 1144 004c 9204     		lsls	r2, r2, #18
 1145 004e 0A43     		orrs	r2, r1
 1146 0050 5A61     		str	r2, [r3, #20]
 253:Drivers/STM32G0xx_HAL_Driver/Src/stm32g0xx_hal_flash.c **** 
ARM GAS  /var/folders/cw/6cmm0b_n7yj10n1wx8hfx52r0000gn/T//cchk5TpI.s 			page 53


 1147              		.loc 1 253 5 view .LVU306
 255:Drivers/STM32G0xx_HAL_Driver/Src/stm32g0xx_hal_flash.c ****     {
 1148              		.loc 1 255 5 view .LVU307
 255:Drivers/STM32G0xx_HAL_Driver/Src/stm32g0xx_hal_flash.c ****     {
 1149              		.loc 1 255 8 is_stmt 0 view .LVU308
 1150 0052 012F     		cmp	r7, #1
 1151 0054 04D0     		beq	.L87
 266:Drivers/STM32G0xx_HAL_Driver/Src/stm32g0xx_hal_flash.c **** 
 1152              		.loc 1 266 7 is_stmt 1 view .LVU309
 269:Drivers/STM32G0xx_HAL_Driver/Src/stm32g0xx_hal_flash.c ****     }
 1153              		.loc 1 269 7 view .LVU310
 1154 0056 2900     		movs	r1, r5
 1155 0058 3000     		movs	r0, r6
 1156              	.LVL76:
 269:Drivers/STM32G0xx_HAL_Driver/Src/stm32g0xx_hal_flash.c ****     }
 1157              		.loc 1 269 7 is_stmt 0 view .LVU311
 1158 005a FFF7FEFF 		bl	FLASH_Program_Fast
 1159              	.LVL77:
 1160 005e E7E7     		b	.L83
 1161              	.LVL78:
 1162              	.L87:
 258:Drivers/STM32G0xx_HAL_Driver/Src/stm32g0xx_hal_flash.c **** 
 1163              		.loc 1 258 7 is_stmt 1 view .LVU312
 261:Drivers/STM32G0xx_HAL_Driver/Src/stm32g0xx_hal_flash.c ****     }
 1164              		.loc 1 261 7 view .LVU313
 1165 0060 2A00     		movs	r2, r5
 1166 0062 019B     		ldr	r3, [sp, #4]
 1167 0064 3000     		movs	r0, r6
 1168              	.LVL79:
 261:Drivers/STM32G0xx_HAL_Driver/Src/stm32g0xx_hal_flash.c ****     }
 1169              		.loc 1 261 7 is_stmt 0 view .LVU314
 1170 0066 FFF7FEFF 		bl	FLASH_Program_DoubleWord
 1171              	.LVL80:
 1172 006a E1E7     		b	.L83
 1173              	.LVL81:
 1174              	.L86:
 233:Drivers/STM32G0xx_HAL_Driver/Src/stm32g0xx_hal_flash.c **** 
 1175              		.loc 1 233 3 view .LVU315
 1176 006c 0224     		movs	r4, #2
 1177 006e DFE7     		b	.L83
 1178              	.L89:
 1179              		.align	2
 1180              	.L88:
 1181 0070 00000000 		.word	pFlash
 1182 0074 00200240 		.word	1073881088
 1183              		.cfi_endproc
 1184              	.LFE159:
 1186              		.global	pFlash
 1187              		.section	.bss.pFlash,"aw",%nobits
 1188              		.align	2
 1191              	pFlash:
 1192 0000 00000000 		.space	24
 1192      00000000 
 1192      00000000 
 1192      00000000 
 1192      00000000 
 1193              		.text
ARM GAS  /var/folders/cw/6cmm0b_n7yj10n1wx8hfx52r0000gn/T//cchk5TpI.s 			page 54


 1194              	.Letext0:
 1195              		.file 3 "/Applications/ArmGNUToolchain/12.3.rel1/arm-none-eabi/arm-none-eabi/include/machine/_defa
 1196              		.file 4 "/Applications/ArmGNUToolchain/12.3.rel1/arm-none-eabi/arm-none-eabi/include/sys/_stdint.h
 1197              		.file 5 "Drivers/CMSIS/Device/ST/STM32G0xx/Include/stm32g030xx.h"
 1198              		.file 6 "Drivers/STM32G0xx_HAL_Driver/Inc/stm32g0xx_hal_def.h"
 1199              		.file 7 "Drivers/STM32G0xx_HAL_Driver/Inc/stm32g0xx_hal_flash.h"
 1200              		.file 8 "Drivers/STM32G0xx_HAL_Driver/Inc/stm32g0xx_hal.h"
 1201              		.file 9 "Drivers/STM32G0xx_HAL_Driver/Inc/stm32g0xx_hal_flash_ex.h"
ARM GAS  /var/folders/cw/6cmm0b_n7yj10n1wx8hfx52r0000gn/T//cchk5TpI.s 			page 55


DEFINED SYMBOLS
                            *ABS*:00000000 stm32g0xx_hal_flash.c
/var/folders/cw/6cmm0b_n7yj10n1wx8hfx52r0000gn/T//cchk5TpI.s:19     .text.FLASH_Program_DoubleWord:00000000 $t
/var/folders/cw/6cmm0b_n7yj10n1wx8hfx52r0000gn/T//cchk5TpI.s:24     .text.FLASH_Program_DoubleWord:00000000 FLASH_Program_DoubleWord
/var/folders/cw/6cmm0b_n7yj10n1wx8hfx52r0000gn/T//cchk5TpI.s:71     .text.FLASH_Program_DoubleWord:00000018 $d
/var/folders/cw/6cmm0b_n7yj10n1wx8hfx52r0000gn/T//cchk5TpI.s:76     .RamFunc:00000000 $t
/var/folders/cw/6cmm0b_n7yj10n1wx8hfx52r0000gn/T//cchk5TpI.s:81     .RamFunc:00000000 FLASH_Program_Fast
/var/folders/cw/6cmm0b_n7yj10n1wx8hfx52r0000gn/T//cchk5TpI.s:201    .RamFunc:00000034 $d
/var/folders/cw/6cmm0b_n7yj10n1wx8hfx52r0000gn/T//cchk5TpI.s:206    .text.HAL_FLASH_EndOfOperationCallback:00000000 $t
/var/folders/cw/6cmm0b_n7yj10n1wx8hfx52r0000gn/T//cchk5TpI.s:212    .text.HAL_FLASH_EndOfOperationCallback:00000000 HAL_FLASH_EndOfOperationCallback
/var/folders/cw/6cmm0b_n7yj10n1wx8hfx52r0000gn/T//cchk5TpI.s:228    .text.HAL_FLASH_OperationErrorCallback:00000000 $t
/var/folders/cw/6cmm0b_n7yj10n1wx8hfx52r0000gn/T//cchk5TpI.s:234    .text.HAL_FLASH_OperationErrorCallback:00000000 HAL_FLASH_OperationErrorCallback
/var/folders/cw/6cmm0b_n7yj10n1wx8hfx52r0000gn/T//cchk5TpI.s:250    .text.HAL_FLASH_IRQHandler:00000000 $t
/var/folders/cw/6cmm0b_n7yj10n1wx8hfx52r0000gn/T//cchk5TpI.s:256    .text.HAL_FLASH_IRQHandler:00000000 HAL_FLASH_IRQHandler
/var/folders/cw/6cmm0b_n7yj10n1wx8hfx52r0000gn/T//cchk5TpI.s:475    .text.HAL_FLASH_IRQHandler:000000d8 $d
/var/folders/cw/6cmm0b_n7yj10n1wx8hfx52r0000gn/T//cchk5TpI.s:1191   .bss.pFlash:00000000 pFlash
/var/folders/cw/6cmm0b_n7yj10n1wx8hfx52r0000gn/T//cchk5TpI.s:485    .text.HAL_FLASH_Unlock:00000000 $t
/var/folders/cw/6cmm0b_n7yj10n1wx8hfx52r0000gn/T//cchk5TpI.s:491    .text.HAL_FLASH_Unlock:00000000 HAL_FLASH_Unlock
/var/folders/cw/6cmm0b_n7yj10n1wx8hfx52r0000gn/T//cchk5TpI.s:540    .text.HAL_FLASH_Unlock:00000024 $d
/var/folders/cw/6cmm0b_n7yj10n1wx8hfx52r0000gn/T//cchk5TpI.s:547    .text.HAL_FLASH_Lock:00000000 $t
/var/folders/cw/6cmm0b_n7yj10n1wx8hfx52r0000gn/T//cchk5TpI.s:553    .text.HAL_FLASH_Lock:00000000 HAL_FLASH_Lock
/var/folders/cw/6cmm0b_n7yj10n1wx8hfx52r0000gn/T//cchk5TpI.s:591    .text.HAL_FLASH_Lock:0000001c $d
/var/folders/cw/6cmm0b_n7yj10n1wx8hfx52r0000gn/T//cchk5TpI.s:596    .text.HAL_FLASH_OB_Unlock:00000000 $t
/var/folders/cw/6cmm0b_n7yj10n1wx8hfx52r0000gn/T//cchk5TpI.s:602    .text.HAL_FLASH_OB_Unlock:00000000 HAL_FLASH_OB_Unlock
/var/folders/cw/6cmm0b_n7yj10n1wx8hfx52r0000gn/T//cchk5TpI.s:650    .text.HAL_FLASH_OB_Unlock:00000024 $d
/var/folders/cw/6cmm0b_n7yj10n1wx8hfx52r0000gn/T//cchk5TpI.s:657    .text.HAL_FLASH_OB_Lock:00000000 $t
/var/folders/cw/6cmm0b_n7yj10n1wx8hfx52r0000gn/T//cchk5TpI.s:663    .text.HAL_FLASH_OB_Lock:00000000 HAL_FLASH_OB_Lock
/var/folders/cw/6cmm0b_n7yj10n1wx8hfx52r0000gn/T//cchk5TpI.s:701    .text.HAL_FLASH_OB_Lock:0000001c $d
/var/folders/cw/6cmm0b_n7yj10n1wx8hfx52r0000gn/T//cchk5TpI.s:706    .text.HAL_FLASH_OB_Launch:00000000 $t
/var/folders/cw/6cmm0b_n7yj10n1wx8hfx52r0000gn/T//cchk5TpI.s:712    .text.HAL_FLASH_OB_Launch:00000000 HAL_FLASH_OB_Launch
/var/folders/cw/6cmm0b_n7yj10n1wx8hfx52r0000gn/T//cchk5TpI.s:734    .text.HAL_FLASH_OB_Launch:00000010 $d
/var/folders/cw/6cmm0b_n7yj10n1wx8hfx52r0000gn/T//cchk5TpI.s:739    .text.HAL_FLASH_GetError:00000000 $t
/var/folders/cw/6cmm0b_n7yj10n1wx8hfx52r0000gn/T//cchk5TpI.s:745    .text.HAL_FLASH_GetError:00000000 HAL_FLASH_GetError
/var/folders/cw/6cmm0b_n7yj10n1wx8hfx52r0000gn/T//cchk5TpI.s:762    .text.HAL_FLASH_GetError:00000008 $d
/var/folders/cw/6cmm0b_n7yj10n1wx8hfx52r0000gn/T//cchk5TpI.s:767    .text.FLASH_WaitForLastOperation:00000000 $t
/var/folders/cw/6cmm0b_n7yj10n1wx8hfx52r0000gn/T//cchk5TpI.s:773    .text.FLASH_WaitForLastOperation:00000000 FLASH_WaitForLastOperation
/var/folders/cw/6cmm0b_n7yj10n1wx8hfx52r0000gn/T//cchk5TpI.s:909    .text.FLASH_WaitForLastOperation:0000006c $d
/var/folders/cw/6cmm0b_n7yj10n1wx8hfx52r0000gn/T//cchk5TpI.s:917    .text.HAL_FLASH_Program:00000000 $t
/var/folders/cw/6cmm0b_n7yj10n1wx8hfx52r0000gn/T//cchk5TpI.s:923    .text.HAL_FLASH_Program:00000000 HAL_FLASH_Program
/var/folders/cw/6cmm0b_n7yj10n1wx8hfx52r0000gn/T//cchk5TpI.s:1039   .text.HAL_FLASH_Program:0000005c $d
/var/folders/cw/6cmm0b_n7yj10n1wx8hfx52r0000gn/T//cchk5TpI.s:1045   .text.HAL_FLASH_Program_IT:00000000 $t
/var/folders/cw/6cmm0b_n7yj10n1wx8hfx52r0000gn/T//cchk5TpI.s:1051   .text.HAL_FLASH_Program_IT:00000000 HAL_FLASH_Program_IT
/var/folders/cw/6cmm0b_n7yj10n1wx8hfx52r0000gn/T//cchk5TpI.s:1181   .text.HAL_FLASH_Program_IT:00000070 $d
/var/folders/cw/6cmm0b_n7yj10n1wx8hfx52r0000gn/T//cchk5TpI.s:1188   .bss.pFlash:00000000 $d

UNDEFINED SYMBOLS
FLASH_PageErase
HAL_GetTick
